 ray

 Timestamp is 59085c7b (Tue May  2 18:16:27 2017)

 Preferred load address is 00400000

 Start         Length     Name                   Class
 0001:00000000 000001e0H .text$di                CODE
 0001:000001e0 0007ef50H .text$mn                CODE
 0001:0007f130 00003900H .text$x                 CODE
 0001:00082a30 00000139H .text$yd                CODE
 0002:00000000 00000760H .idata$5                DATA
 0002:00000760 00000004H .00cfg                  DATA
 0002:00000764 00000004H .CRT$XCA                DATA
 0002:00000768 00000004H .CRT$XCAA               DATA
 0002:0000076c 00000004H .CRT$XCL                DATA
 0002:00000770 0000002cH .CRT$XCU                DATA
 0002:0000079c 00000004H .CRT$XCZ                DATA
 0002:000007a0 00000004H .CRT$XIA                DATA
 0002:000007a4 00000004H .CRT$XIAA               DATA
 0002:000007a8 00000004H .CRT$XIAC               DATA
 0002:000007ac 00000004H .CRT$XIC                DATA
 0002:000007b0 00000004H .CRT$XIZ                DATA
 0002:000007b4 00000004H .CRT$XLA                DATA
 0002:000007b8 00000004H .CRT$XLZ                DATA
 0002:000007bc 00000004H .CRT$XPA                DATA
 0002:000007c0 00000004H .CRT$XPZ                DATA
 0002:000007c4 00000004H .CRT$XTA                DATA
 0002:000007c8 00000008H .CRT$XTZ                DATA
 0002:000007cc 00000000H .gfids$y                DATA
 0002:000007d0 000081d0H .rdata                  DATA
 0002:000089a0 00000018H .rdata$T                DATA
 0002:000089b8 00003164H .rdata$r                DATA
 0002:0000bb1c 000003c4H .rdata$zzzdbg           DATA
 0002:0000bee0 00000004H .rtc$IAA                DATA
 0002:0000bee4 00000004H .rtc$IZZ                DATA
 0002:0000bee8 00000004H .rtc$TAA                DATA
 0002:0000beec 00000004H .rtc$TZZ                DATA
 0002:0000bef0 00004024H .xdata$x                DATA
 0002:0000ff14 00000000H .edata                  DATA
 0002:0000ff14 000001b8H .idata$2                DATA
 0002:000100cc 00000014H .idata$3                DATA
 0002:000100e0 00000760H .idata$4                DATA
 0002:00010840 00002b96H .idata$6                DATA
 0003:00000000 00001e88H .data                   DATA
 0003:00001e88 00002008H .data$r                 DATA
 0003:00003e90 00005608H .bss                    DATA
 0004:00000000 00000004H .tls                    DATA
 0004:00000004 00000004H .tls$                   DATA
 0004:00000008 00000001H .tls$ZZZ                DATA
 0005:00000000 00000060H .rsrc$01                DATA
 0005:00000060 00000180H .rsrc$02                DATA

  Address         Publics by Value              Rva+Base       Lib:Object

 0000:00000000       ___guard_iat_count         00000000     <absolute>
 0000:00000000       ___guard_longjmp_count     00000000     <absolute>
 0000:00000000       ___guard_fids_table        00000000     <absolute>
 0000:00000000       ___guard_iat_table         00000000     <absolute>
 0000:00000000       ___guard_fids_count        00000000     <absolute>
 0000:00000000       ___safe_se_handler_count   00000000     <absolute>
 0000:00000000       ___safe_se_handler_table   00000000     <absolute>
 0000:00000000       ___guard_longjmp_table     00000000     <absolute>
 0000:00000000       ___dynamic_value_reloc_table 00000000     <absolute>
 0000:0000002c       __tls_array                0000002c     <absolute>
 0000:00000100       ___guard_flags             00000100     <absolute>
 0000:00000000       ___ImageBase               00400000     <linker-defined>
 0001:000001e0       ?GetOption@@YAHHPAPADPAD0@Z 004011e0 f   getopt.obj
 0001:000002c0       ?getopt@@YAHHPAPADPAD@Z    004012c0 f   getopt.obj
 0001:00000300       ??$__vcrt_va_start_verify_argument_type@QBD@@YAXXZ 00401300 f i main.obj
 0001:00000310       ??_H@YGXPAXIIP6EPAX0@Z@Z   00401310 f i main.obj
 0001:00000340       ?processArgs@@YA_NHPAPAD@Z 00401340 f   main.obj
 0001:00000430       ?usage@@YAXXZ              00401430 f   main.obj
 0001:00000450       ___local_stdio_printf_options 00401450 f i main.obj
 0001:00000460       _fprintf                   00401460 f i main.obj
 0001:00000490       _main                      00401490 f   main.obj
 0001:000006c0       ??$_Construct@V?$_Deque_const_iterator@V?$_Deque_val@U?$_Deque_simple_types@PBVMaterial@@@std@@@std@@@std@@@?$deque@PBVMaterial@@V?$allocator@PBVMaterial@@@std@@@std@@QAEXV?$_Deque_const_iterator@V?$_Deque_val@U?$_Deque_simple_types@PBVMaterial@@@std@@@std@@@1@0@Z 004016c0 f i RayTracer.obj
 0001:00000760       ??$_Copy_no_deprecate@V?$_Deque_const_iterator@V?$_Deque_val@U?$_Deque_simple_types@PBVMaterial@@@std@@@std@@@std@@V?$_Deque_iterator@V?$_Deque_val@U?$_Deque_simple_types@PBVMaterial@@@std@@@std@@@2@@std@@YA?AV?$_Deque_iterator@V?$_Deque_val@U?$_Deque_simple_types@PBVMaterial@@@std@@@std@@@0@V?$_Deque_const_iterator@V?$_Deque_val@U?$_Deque_simple_types@PBVMaterial@@@std@@@std@@@0@0V10@@Z 00401760 f i RayTracer.obj
 0001:00000810       ??$_Copy_unchecked1@V?$_Deque_unchecked_const_iterator@V?$_Deque_val@U?$_Deque_simple_types@PBVMaterial@@@std@@@std@@@std@@V?$_Deque_unchecked_iterator@V?$_Deque_val@U?$_Deque_simple_types@PBVMaterial@@@std@@@std@@@2@@std@@YA?AV?$_Deque_unchecked_iterator@V?$_Deque_val@U?$_Deque_simple_types@PBVMaterial@@@std@@@std@@@0@V?$_Deque_unchecked_const_iterator@V?$_Deque_val@U?$_Deque_simple_types@PBVMaterial@@@std@@@std@@@0@0V10@U_General_ptr_iterator_tag@0@@Z 00401810 f i RayTracer.obj
 0001:00000880       ??$_Move_backward_unchecked1@V?$_Deque_unchecked_iterator@V?$_Deque_val@U?$_Deque_simple_types@PBVMaterial@@@std@@@std@@@std@@V12@@std@@YA?AV?$_Deque_unchecked_iterator@V?$_Deque_val@U?$_Deque_simple_types@PBVMaterial@@@std@@@std@@@0@V10@00U_General_ptr_iterator_tag@0@@Z 00401880 f i RayTracer.obj
 0001:000008f0       ??$_Move_no_deprecate@V?$_Deque_iterator@V?$_Deque_val@U?$_Deque_simple_types@PBVMaterial@@@std@@@std@@@std@@V12@@std@@YA?AV?$_Deque_iterator@V?$_Deque_val@U?$_Deque_simple_types@PBVMaterial@@@std@@@std@@@0@V10@00@Z 004018f0 f i RayTracer.obj
 0001:000009a0       ??$_Move_unchecked1@V?$_Deque_unchecked_iterator@V?$_Deque_val@U?$_Deque_simple_types@PBVMaterial@@@std@@@std@@@std@@V12@@std@@YA?AV?$_Deque_unchecked_iterator@V?$_Deque_val@U?$_Deque_simple_types@PBVMaterial@@@std@@@std@@@0@V10@00U_General_ptr_iterator_tag@0@@Z 004019a0 f i RayTracer.obj
 0001:00000a10       ??$_Reverse_unchecked@V?$_Deque_unchecked_iterator@V?$_Deque_val@U?$_Deque_simple_types@PBVMaterial@@@std@@@std@@@std@@@std@@YAXV?$_Deque_unchecked_iterator@V?$_Deque_val@U?$_Deque_simple_types@PBVMaterial@@@std@@@std@@@0@0@Z 00401a10 f i RayTracer.obj
 0001:00000a80       ??$_Rotate_unchecked1@V?$_Deque_unchecked_iterator@V?$_Deque_val@U?$_Deque_simple_types@PBVMaterial@@@std@@@std@@@std@@@std@@YA?AV?$_Deque_unchecked_iterator@V?$_Deque_val@U?$_Deque_simple_types@PBVMaterial@@@std@@@std@@@0@V10@00Urandom_access_iterator_tag@0@@Z 00401a80 f i RayTracer.obj
 0001:00000af0       ??$copy@V?$_Deque_const_iterator@V?$_Deque_val@U?$_Deque_simple_types@PBVMaterial@@@std@@@std@@@std@@V?$_Deque_iterator@V?$_Deque_val@U?$_Deque_simple_types@PBVMaterial@@@std@@@std@@@2@@std@@YA?AV?$_Deque_iterator@V?$_Deque_val@U?$_Deque_simple_types@PBVMaterial@@@std@@@std@@@0@V?$_Deque_const_iterator@V?$_Deque_val@U?$_Deque_simple_types@PBVMaterial@@@std@@@std@@@0@0V10@@Z 00401af0 f i RayTracer.obj
 0001:00000b90       ??$emplace_back@ABQBVMaterial@@@?$deque@PBVMaterial@@V?$allocator@PBVMaterial@@@std@@@std@@QAEXABQBVMaterial@@@Z 00401b90 f i RayTracer.obj
 0001:00000c30       ??$insert@V?$_Deque_const_iterator@V?$_Deque_val@U?$_Deque_simple_types@PBVMaterial@@@std@@@std@@@std@@@?$deque@PBVMaterial@@V?$allocator@PBVMaterial@@@std@@@std@@QAE?AV?$_Deque_iterator@V?$_Deque_val@U?$_Deque_simple_types@PBVMaterial@@@std@@@std@@@1@V?$_Deque_const_iterator@V?$_Deque_val@U?$_Deque_simple_types@PBVMaterial@@@std@@@std@@@1@00@Z 00401c30 f i RayTracer.obj
 0001:00000e90       ??$move@V?$_Deque_iterator@V?$_Deque_val@U?$_Deque_simple_types@PBVMaterial@@@std@@@std@@@std@@V12@@std@@YA?AV?$_Deque_iterator@V?$_Deque_val@U?$_Deque_simple_types@PBVMaterial@@@std@@@std@@@0@V10@00@Z 00401e90 f i RayTracer.obj
 0001:00000f30       ??$move_backward@V?$_Deque_iterator@V?$_Deque_val@U?$_Deque_simple_types@PBVMaterial@@@std@@@std@@@std@@V12@@std@@YA?AV?$_Deque_iterator@V?$_Deque_val@U?$_Deque_simple_types@PBVMaterial@@@std@@@std@@@0@V10@00@Z 00401f30 f i RayTracer.obj
 0001:00000fe0       ??$rotate@V?$_Deque_iterator@V?$_Deque_val@U?$_Deque_simple_types@PBVMaterial@@@std@@@std@@@std@@@std@@YA?AV?$_Deque_iterator@V?$_Deque_val@U?$_Deque_simple_types@PBVMaterial@@@std@@@std@@@0@V10@00@Z 00401fe0 f i RayTracer.obj
 0001:000010a0       ??0?$deque@PBVMaterial@@V?$allocator@PBVMaterial@@@std@@@std@@QAE@ABV01@@Z 004020a0 f i RayTracer.obj
 0001:00001150       ??0RayTracer@@QAE@XZ       00402150 f   RayTracer.obj
 0001:00001180       ??0TraceSet@RayTracer@@QAE@XZ 00402180 f i RayTracer.obj
 0001:000011f0       ??0vec3f@@QAE@XZ           004021f0 f i RayTracer.obj
 0001:00001200       ??1?$_Deque_alloc@U?$_Deque_base_types@PBVMaterial@@V?$allocator@PBVMaterial@@@std@@@std@@@std@@QAE@XZ 00402200 f i RayTracer.obj
 0001:00001220       ??1?$basic_string@DU?$char_traits@D@std@@V?$allocator@D@2@@std@@QAE@XZ 00402220 f i RayTracer.obj
 0001:00001250       ??1?$deque@PBVMaterial@@V?$allocator@PBVMaterial@@@std@@@std@@QAE@XZ 00402250 f i RayTracer.obj
 0001:00001270       ??1Material@@UAE@XZ        00402270 f i RayTracer.obj
 0001:00001280       ??1RayTracer@@QAE@XZ       00402280 f   RayTracer.obj
 0001:000012a0       ??1TraceSet@RayTracer@@QAE@XZ 004022a0 f i RayTracer.obj
 0001:000012d0       ??1isect@@QAE@XZ           004022d0 f i RayTracer.obj
 0001:000012e0       ??4?$deque@PBVMaterial@@V?$allocator@PBVMaterial@@@std@@@std@@QAEAAV01@ABV01@@Z 004022e0 f i RayTracer.obj
 0001:000014a0       ??A?$deque@PBVMaterial@@V?$allocator@PBVMaterial@@@std@@@std@@QAEAAPBVMaterial@@I@Z 004024a0 f i RayTracer.obj
 0001:000014f0       ??H?$_Deque_const_iterator@V?$_Deque_val@U?$_Deque_simple_types@PBVMaterial@@@std@@@std@@@std@@QBE?AV01@H@Z 004024f0 f i RayTracer.obj
 0001:00001530       ??H?$_Deque_iterator@V?$_Deque_val@U?$_Deque_simple_types@PBVMaterial@@@std@@@std@@@std@@QBE?AV01@H@Z 00402530 f i RayTracer.obj
 0001:00001570       ??_EMaterial@@UAEPAXI@Z    00402570 f i RayTracer.obj
 0001:00001570       ??_GMaterial@@UAEPAXI@Z    00402570 f i RayTracer.obj
 0001:000015a0       ?GetFresnelCoeff@RayTracer@@ABENABUTraceSet@1@ABVisect@@@Z 004025a0 f   RayTracer.obj
 0001:000017d0       ?IsLeavingObject@RayTracer@@ABE_NABUTraceSet@1@ABVisect@@@Z 004027d0 f   RayTracer.obj
 0001:00001820       ?_Copy@?$basic_string@DU?$char_traits@D@std@@V?$allocator@D@2@@std@@QAEXI@Z 00402820 f i RayTracer.obj
 0001:00001920       ?_Deallocate@std@@YAXPAXII@Z 00402920 f i RayTracer.obj
 0001:00001990       ?_Growmap@?$deque@PBVMaterial@@V?$allocator@PBVMaterial@@@std@@@std@@IAEXI@Z 00402990 f i RayTracer.obj
 0001:00001ae0       ?_Make_iter@?$deque@PBVMaterial@@V?$allocator@PBVMaterial@@@std@@@std@@QBE?AV?$_Deque_iterator@V?$_Deque_val@U?$_Deque_simple_types@PBVMaterial@@@std@@@std@@@2@V?$_Deque_const_iterator@V?$_Deque_val@U?$_Deque_simple_types@PBVMaterial@@@std@@@std@@@2@@Z 00402ae0 f i RayTracer.obj
 0001:00001b10       ?_Tidy@?$deque@PBVMaterial@@V?$allocator@PBVMaterial@@@std@@@std@@IAEXXZ 00402b10 f i RayTracer.obj
 0001:00001bd0       ?_Xlen@?$basic_string@DU?$char_traits@D@std@@V?$allocator@D@2@@std@@SAXXZ 00402bd0 f i RayTracer.obj
 0001:00001be0       ?_Xlen@?$deque@PBVMaterial@@V?$allocator@PBVMaterial@@@std@@@std@@IBEXXZ 00402be0 f i RayTracer.obj
 0001:00001bf0       ?_Xran@?$basic_string@DU?$char_traits@D@std@@V?$allocator@D@2@@std@@SAXXZ 00402bf0 f i RayTracer.obj
 0001:00001c00       ?allocate@?$_Wrap_alloc@V?$allocator@D@std@@@std@@QAEPADI@Z 00402c00 f i RayTracer.obj
 0001:00001c60       ?allocate@?$allocator@PAPBVMaterial@@@std@@QAEPAPAPBVMaterial@@I@Z 00402c60 f i RayTracer.obj
 0001:00001cd0       ?aspectRatio@RayTracer@@QAENXZ 00402cd0 f   RayTracer.obj
 0001:00001d10       ?assign@?$basic_string@DU?$char_traits@D@std@@V?$allocator@D@2@@std@@QAEAAV12@ABV12@II@Z 00402d10 f i RayTracer.obj
 0001:00001e10       ?assign@?$basic_string@DU?$char_traits@D@std@@V?$allocator@D@2@@std@@QAEAAV12@QBDI@Z 00402e10 f i RayTracer.obj
 0001:00001ee0       ?begin@?$deque@PBVMaterial@@V?$allocator@PBVMaterial@@@std@@@std@@QAE?AV?$_Deque_iterator@V?$_Deque_val@U?$_Deque_simple_types@PBVMaterial@@@std@@@std@@@2@XZ 00402ee0 f i RayTracer.obj
 0001:00001f00       ?begin@?$deque@PBVMaterial@@V?$allocator@PBVMaterial@@@std@@@std@@QBE?AV?$_Deque_const_iterator@V?$_Deque_val@U?$_Deque_simple_types@PBVMaterial@@@std@@@std@@@2@XZ 00402f00 f i RayTracer.obj
 0001:00001f20       ?end@?$deque@PBVMaterial@@V?$allocator@PBVMaterial@@@std@@@std@@QAE?AV?$_Deque_iterator@V?$_Deque_val@U?$_Deque_simple_types@PBVMaterial@@@std@@@std@@@2@XZ 00402f20 f i RayTracer.obj
 0001:00001f40       ?end@?$deque@PBVMaterial@@V?$allocator@PBVMaterial@@@std@@@std@@QBE?AV?$_Deque_const_iterator@V?$_Deque_val@U?$_Deque_simple_types@PBVMaterial@@@std@@@std@@@2@XZ 00402f40 f i RayTracer.obj
 0001:00001f60       ?erase@?$basic_string@DU?$char_traits@D@std@@V?$allocator@D@2@@std@@QAEAAV12@II@Z 00402f60 f i RayTracer.obj
 0001:00002000       ?erase@?$deque@PBVMaterial@@V?$allocator@PBVMaterial@@@std@@@std@@QAE?AV?$_Deque_iterator@V?$_Deque_val@U?$_Deque_simple_types@PBVMaterial@@@std@@@std@@@2@V?$_Deque_const_iterator@V?$_Deque_val@U?$_Deque_simple_types@PBVMaterial@@@std@@@std@@@2@0@Z 00403000 f i RayTracer.obj
 0001:000021e0       ?getBuffer@RayTracer@@QAEXAAPAEAAH1@Z 004031e0 f   RayTracer.obj
 0001:00002200       ?getMsg@Exception@@QBE?AV?$basic_string@DU?$char_traits@D@std@@V?$allocator@D@2@@std@@XZ 00403200 f i RayTracer.obj
 0001:00002240       ?loadScene@RayTracer@@QAE_NPBD@Z 00403240 f   RayTracer.obj
 0001:00002380       ?pop_front@?$deque@PBVMaterial@@V?$allocator@PBVMaterial@@@std@@@std@@QAEXXZ 00403380 f i RayTracer.obj
 0001:000023a0       ?push_back@?$deque@PBVMaterial@@V?$allocator@PBVMaterial@@@std@@@std@@QAEXABQBVMaterial@@@Z 004033a0 f i RayTracer.obj
 0001:00002440       ?push_front@?$deque@PBVMaterial@@V?$allocator@PBVMaterial@@@std@@@std@@QAEX$$QAPBVMaterial@@@Z 00403440 f i RayTracer.obj
 0001:000024e0       ?push_front@?$deque@PBVMaterial@@V?$allocator@PBVMaterial@@@std@@@std@@QAEXABQBVMaterial@@@Z 004034e0 f i RayTracer.obj
 0001:00002580       ?sceneLoaded@RayTracer@@QAE_NXZ 00403580 f   RayTracer.obj
 0001:00002590       ?trace@RayTracer@@QAE?AVvec3f@@PAVScene@@NN@Z 00403590 f   RayTracer.obj
 0001:000027d0       ?traceLines@RayTracer@@QAEXHH@Z 004037d0 f   RayTracer.obj
 0001:00002ab0       ?tracePixel@RayTracer@@QAEXHH@Z 00403ab0 f   RayTracer.obj
 0001:00002d40       ?traceRay@RayTracer@@AAE?AVvec3f@@ABUTraceSet@1@@Z 00403d40 f   RayTracer.obj
 0001:00003180       ?traceReflection@RayTracer@@AAE?AVvec3f@@ABUTraceSet@1@ABUReflectionSet@1@@Z 00404180 f   RayTracer.obj
 0001:000036b0       ?traceRefraction@RayTracer@@AAE?AVvec3f@@ABUTraceSet@1@ABURefractionParam@1@@Z 004046b0 f   RayTracer.obj
 0001:00003bb0       ?traceSetup@RayTracer@@QAEXHH@Z 00404bb0 f   RayTracer.obj
 0001:00003c10       ??0TraceGLWindow@@QAE@HHHHPBD@Z 00404c10 f   TraceGLWindow.obj
 0001:00003c90       ??_EFl_Gl_Window@@UAEPAXI@Z 00404c90 f i TraceGLWindow.obj
 0001:00003c90       ??_GFl_Gl_Window@@UAEPAXI@Z 00404c90 f i TraceGLWindow.obj
 0001:00003cc0       ??_ETraceGLWindow@@UAEPAXI@Z 00404cc0 f i TraceGLWindow.obj
 0001:00003cc0       ??_GTraceGLWindow@@UAEPAXI@Z 00404cc0 f i TraceGLWindow.obj
 0001:00003cf0       ?as_gl_window@Fl_Gl_Window@@UAEPAV1@XZ 00404cf0 f i TraceGLWindow.obj
 0001:00003d00       ?as_group@Fl_Group@@UAEPAV1@XZ 00404d00 f i TraceGLWindow.obj
 0001:00003d10       ?as_window@Fl_Window@@UAEPAV1@XZ 00404d10 f i TraceGLWindow.obj
 0001:00003d20       ?draw@TraceGLWindow@@UAEXXZ 00404d20 f   TraceGLWindow.obj
 0001:00003e00       ?handle@TraceGLWindow@@UAEHH@Z 00404e00 f   TraceGLWindow.obj
 0001:00003e10       ?refresh@TraceGLWindow@@QAEXXZ 00404e10 f   TraceGLWindow.obj
 0001:00003e20       ?resizeWindow@TraceGLWindow@@QAEXHH@Z 00404e20 f   TraceGLWindow.obj
 0001:00003e50       ?saveImage@TraceGLWindow@@QAEXPAD@Z 00404e50 f   TraceGLWindow.obj
 0001:00003ea0       ?setRayTracer@TraceGLWindow@@QAEXPAVRayTracer@@@Z 00404ea0 f   TraceGLWindow.obj
 0001:00003eb0       ?cb_load_scene@TraceUI@@CAXPAVFl_Menu_@@PAX@Z 00404eb0 f   TraceUI.obj
 0001:00003f50       ?cb_save_image@TraceUI@@CAXPAVFl_Menu_@@PAX@Z 00404f50 f   TraceUI.obj
 0001:00003f90       ?cb_exit@TraceUI@@CAXPAVFl_Menu_@@PAX@Z 00404f90 f   TraceUI.obj
 0001:00003fc0       ?cb_about@TraceUI@@CAXPAVFl_Menu_@@PAX@Z 00404fc0 f   TraceUI.obj
 0001:00003fd0       ??$?0AAPAV_CancellationTokenState@details@Concurrency@@AAUscheduler_ptr@2@@?$_Ref_count_obj@U?$_Task_impl@E@details@Concurrency@@@std@@QAE@AAPAV_CancellationTokenState@details@Concurrency@@AAUscheduler_ptr@4@@Z 00404fd0 f i TraceUI.obj
 0001:00004070       ??$?0ABV?$_Fake_no_copy_callable_adapter@A6AXPAVTraceUI@@HHH@ZAAPAV1@HAAHAAH@std@@ABV?$allocator@H@1@@?$_Func_impl@V?$_Fake_no_copy_callable_adapter@A6AXPAVTraceUI@@HHH@ZAAPAV1@HAAHAAH@std@@V?$allocator@H@2@X$$V@std@@QAE@ABV?$_Fake_no_copy_callable_adapter@A6AXPAVTraceUI@@HHH@ZAAPAV1@HAAHAAH@1@ABV?$allocator@H@1@@Z 00405070 f i TraceUI.obj
 0001:000040b0       ??$?0ABV?$_Fake_no_copy_callable_adapter@A6AXPAVTraceUI@@HHH@ZAAPAV1@HHAAH@std@@ABV?$allocator@H@1@@?$_Func_impl@V?$_Fake_no_copy_callable_adapter@A6AXPAVTraceUI@@HHH@ZAAPAV1@HHAAH@std@@V?$allocator@H@2@X$$V@std@@QAE@ABV?$_Fake_no_copy_callable_adapter@A6AXPAVTraceUI@@HHH@ZAAPAV1@HHAAH@1@ABV?$allocator@H@1@@Z 004050b0 f i TraceUI.obj
 0001:000040f0       ??$?0ABV?$allocator@H@std@@ABV?$_Fake_no_copy_callable_adapter@A6AXPAVTraceUI@@HHH@ZAAPAV1@HAAHAAH@1@@?$_Compressed_pair@V?$allocator@H@std@@V?$_Fake_no_copy_callable_adapter@A6AXPAVTraceUI@@HHH@ZAAPAV1@HAAHAAH@2@$00@std@@QAE@U_One_then_variadic_args_t@1@ABV?$allocator@H@1@ABV?$_Fake_no_copy_callable_adapter@A6AXPAVTraceUI@@HHH@ZAAPAV1@HAAHAAH@1@@Z 004050f0 f i TraceUI.obj
 0001:00004110       ??$?0ABV?$allocator@H@std@@ABV?$_Fake_no_copy_callable_adapter@A6AXPAVTraceUI@@HHH@ZAAPAV1@HHAAH@1@@?$_Compressed_pair@V?$allocator@H@std@@V?$_Fake_no_copy_callable_adapter@A6AXPAVTraceUI@@HHH@ZAAPAV1@HHAAH@2@$00@std@@QAE@U_One_then_variadic_args_t@1@ABV?$allocator@H@1@ABV?$_Fake_no_copy_callable_adapter@A6AXPAVTraceUI@@HHH@ZAAPAV1@HHAAH@1@@Z 00405110 f i TraceUI.obj
 0001:00004130       ??$?0ABVexception_ptr@std@@V_TaskCreationCallstack@details@Concurrency@@@?$_Ref_count_obj@U_ExceptionHolder@details@Concurrency@@@std@@QAE@ABVexception_ptr@1@$$QAV_TaskCreationCallstack@details@Concurrency@@@Z 00405130 f i TraceUI.obj
 0001:00004810       ??$?0V?$_Fake_no_copy_callable_adapter@A6AXPAVTraceUI@@HHH@ZAAPAV1@HAAHAAH@std@@@?$_Packaged_state@$$A6AXXZ@std@@QAE@$$QAV?$_Fake_no_copy_callable_adapter@A6AXPAVTraceUI@@HHH@ZAAPAV1@HAAHAAH@1@@Z 00405810 f i TraceUI.obj
 0001:000048b0       ??$?0V?$_Fake_no_copy_callable_adapter@A6AXPAVTraceUI@@HHH@ZAAPAV1@HAAHAAH@std@@@?$_Task_async_state@X$00@std@@QAE@$$QAV?$_Fake_no_copy_callable_adapter@A6AXPAVTraceUI@@HHH@ZAAPAV1@HAAHAAH@1@@Z 004058b0 f i TraceUI.obj
 0001:00004970       ??$?0V?$_Fake_no_copy_callable_adapter@A6AXPAVTraceUI@@HHH@ZAAPAV1@HAAHAAH@std@@@?$_Task_async_state@X$0A@@std@@QAE@$$QAV?$_Fake_no_copy_callable_adapter@A6AXPAVTraceUI@@HHH@ZAAPAV1@HAAHAAH@1@@Z 00405970 f i TraceUI.obj
 0001:00004a30       ??$?0V?$_Fake_no_copy_callable_adapter@A6AXPAVTraceUI@@HHH@ZAAPAV1@HHAAH@std@@@?$_Packaged_state@$$A6AXXZ@std@@QAE@$$QAV?$_Fake_no_copy_callable_adapter@A6AXPAVTraceUI@@HHH@ZAAPAV1@HHAAH@1@@Z 00405a30 f i TraceUI.obj
 0001:00004ad0       ??$?0V?$_Fake_no_copy_callable_adapter@A6AXPAVTraceUI@@HHH@ZAAPAV1@HHAAH@std@@@?$_Task_async_state@X$00@std@@QAE@$$QAV?$_Fake_no_copy_callable_adapter@A6AXPAVTraceUI@@HHH@ZAAPAV1@HHAAH@1@@Z 00405ad0 f i TraceUI.obj
 0001:00004b90       ??$?0V?$_Fake_no_copy_callable_adapter@A6AXPAVTraceUI@@HHH@ZAAPAV1@HHAAH@std@@@?$_Task_async_state@X$0A@@std@@QAE@$$QAV?$_Fake_no_copy_callable_adapter@A6AXPAVTraceUI@@HHH@ZAAPAV1@HHAAH@1@@Z 00405b90 f i TraceUI.obj
 0001:00004c50       ??$?8U_Task_impl_base@details@Concurrency@@@std@@YA_NABV?$shared_ptr@U_Task_impl_base@details@Concurrency@@@0@$$T@Z 00405c50 f i TraceUI.obj
 0001:00004c60       ??$?9U_Task_impl_base@details@Concurrency@@@std@@YA_NABV?$shared_ptr@U_Task_impl_base@details@Concurrency@@@0@$$T@Z 00405c60 f i TraceUI.obj
 0001:00004c70       ??$_Assign_range@PAPAX@?$vector@PAXV?$allocator@PAX@std@@@std@@AAEXPAPAX0Uforward_iterator_tag@1@@Z 00405c70 f i TraceUI.obj
 0001:00004e10       ??$_Destroy_range1@V?$allocator@V?$future@X@std@@@std@@PAV?$future@X@2@@std@@YAXPAV?$future@X@0@0AAU?$_Wrap_alloc@V?$allocator@V?$future@X@std@@@std@@@0@U?$integral_constant@_N$0A@@0@@Z 00405e10 f i TraceUI.obj
 0001:00004e90       ??$_Get_associated_state@XV?$_Fake_no_copy_callable_adapter@A6AXPAVTraceUI@@HHH@ZAAPAV1@HAAHAAH@std@@@std@@YAPAV?$_Associated_state@H@0@W4launch@0@$$QAV?$_Fake_no_copy_callable_adapter@A6AXPAVTraceUI@@HHH@ZAAPAV1@HAAHAAH@0@@Z 00405e90 f i TraceUI.obj
 0001:00004fa0       ??$_Get_associated_state@XV?$_Fake_no_copy_callable_adapter@A6AXPAVTraceUI@@HHH@ZAAPAV1@HHAAH@std@@@std@@YAPAV?$_Associated_state@H@0@W4launch@0@$$QAV?$_Fake_no_copy_callable_adapter@A6AXPAVTraceUI@@HHH@ZAAPAV1@HHAAH@0@@Z 00405fa0 f i TraceUI.obj
 0001:000050b0       ??$_Immortalize@V_Future_error_category@std@@@std@@YAAAV_Future_error_category@0@XZ 004060b0 f i TraceUI.obj
 0001:00005120       ??$_Immortalize@V_Generic_error_category@std@@@std@@YAAAV_Generic_error_category@0@XZ 00406120 f i TraceUI.obj
 0001:000056c0       ??$_To_xtime@_JU?$ratio@$00$0DOI@@std@@@std@@YA?AUxtime@@ABV?$duration@_JU?$ratio@$00$0DOI@@std@@@chrono@0@@Z 004066c0 f i TraceUI.obj
 0001:00005760       ??$_Unfancy@V?$future@X@std@@@std@@YAPAV?$future@X@0@PAV10@@Z 00406760 f i TraceUI.obj
 0001:00005770       ??$_Uninitialized_move_al_unchecked@PAV?$future@X@std@@PAV12@V?$allocator@V?$future@X@std@@@2@@std@@YAPAV?$future@X@0@PAV10@00AAU?$_Wrap_alloc@V?$allocator@V?$future@X@std@@@std@@@0@U_General_ptr_iterator_tag@0@U_Any_tag@0@@Z 00406770 f i TraceUI.obj
 0001:000057e0       ??$_Wait_for@_JU?$ratio@$00$0DOI@@std@@@?$_Associated_state@H@std@@QAE?AW4future_status@1@ABV?$duration@_JU?$ratio@$00$0DOI@@std@@@chrono@1@@Z 004067e0 f i TraceUI.obj
 0001:000058d0       ??$_Wait_until1@U_Test_ready@?$_Associated_state@H@std@@@condition_variable@std@@QAE_NAAV?$unique_lock@Vmutex@std@@@1@PBUxtime@@AAU_Test_ready@?$_Associated_state@H@1@@Z 004068d0 f i TraceUI.obj
 0001:00005960       ??$async@A6AXPAVTraceUI@@HHH@ZAAPAV1@HAAHAAH@std@@YA?AV?$future@X@0@W4launch@0@A6AXPAVTraceUI@@HHH@ZAAPAV3@$$QAHAAH5@Z 00406960 f i TraceUI.obj
 0001:00005a60       ??$async@A6AXPAVTraceUI@@HHH@ZAAPAV1@HHAAH@std@@YA?AV?$future@X@0@W4launch@0@A6AXPAVTraceUI@@HHH@ZAAPAV3@$$QAH4AAH@Z 00406a60 f i TraceUI.obj
 0001:00005b60       ??$atomic_compare_exchange@J@details@Concurrency@@YAJAAU?$atomic@J@std@@JJ@Z 00406b60 f i TraceUI.obj
 0001:00005b80       ??$atomic_exchange@J@details@Concurrency@@YAJAAU?$atomic@J@std@@J@Z 00406b80 f i TraceUI.obj
 0001:00005e90       ??$destroy@V?$future@X@std@@@?$_Wrap_alloc@V?$allocator@V?$future@X@std@@@std@@@std@@QAEXPAV?$future@X@1@@Z 00406e90 f i TraceUI.obj
 0001:00005f10       ??$emplace_back@V?$future@X@std@@@?$vector@V?$future@X@std@@V?$allocator@V?$future@X@std@@@2@@std@@QAEX$$QAV?$future@X@1@@Z 00406f10 f i TraceUI.obj
 0001:000060b0       ??$forward@ABV?$_Fake_no_copy_callable_adapter@A6AXPAVTraceUI@@HHH@ZAAPAV1@HAAHAAH@std@@@std@@YAABV?$_Fake_no_copy_callable_adapter@A6AXPAVTraceUI@@HHH@ZAAPAV1@HAAHAAH@0@ABV10@@Z 004070b0 f i TraceUI.obj
 0001:000060c0       ??$forward@ABV?$_Fake_no_copy_callable_adapter@A6AXPAVTraceUI@@HHH@ZAAPAV1@HHAAH@std@@@std@@YAABV?$_Fake_no_copy_callable_adapter@A6AXPAVTraceUI@@HHH@ZAAPAV1@HHAAH@0@ABV10@@Z 004070c0 f i TraceUI.obj
 0001:000060d0       ??$forward@ABV?$allocator@H@std@@@std@@YAABV?$allocator@H@0@ABV10@@Z 004070d0 f i TraceUI.obj
 0001:000060e0       ??$make_shared@U?$_Task_impl@E@details@Concurrency@@AAPAV_CancellationTokenState@23@AAUscheduler_ptr@3@@std@@YA?AV?$shared_ptr@U?$_Task_impl@E@details@Concurrency@@@0@AAPAV_CancellationTokenState@details@Concurrency@@AAUscheduler_ptr@4@@Z 004070e0 f i TraceUI.obj
 0001:00006140       ??$make_shared@U_ExceptionHolder@details@Concurrency@@ABVexception_ptr@std@@V_TaskCreationCallstack@23@@std@@YA?AV?$shared_ptr@U_ExceptionHolder@details@Concurrency@@@0@ABVexception_ptr@0@$$QAV_TaskCreationCallstack@details@Concurrency@@@Z 00407140 f i TraceUI.obj
 0001:000061c0       ??$move@AAV?$tuple@P6AXPAVTraceUI@@HHH@ZPAV1@HHH@std@@@std@@YA$$QAV?$tuple@P6AXPAVTraceUI@@HHH@ZPAV1@HHH@0@AAV10@@Z 004071c0 f i TraceUI.obj
 0001:000063b0       ??0?$_Fake_no_copy_callable_adapter@A6AXPAVTraceUI@@HHH@ZAAPAV1@HAAHAAH@std@@QAE@ABV01@@Z 004073b0 f i TraceUI.obj
 0001:000063d0       ??0?$_Fake_no_copy_callable_adapter@A6AXPAVTraceUI@@HHH@ZAAPAV1@HHAAH@std@@QAE@ABV01@@Z 004073d0 f i TraceUI.obj
 0001:000063f0       ??0?$_Func_base@X$$V@std@@QAE@XZ 004073f0 f i TraceUI.obj
 0001:000065c0       ??0?$shared_ptr@Uscheduler_interface@Concurrency@@@std@@QAE@ABV01@@Z 004075c0 f i TraceUI.obj
 0001:00006630       ??0?$tuple@P6AXPAVTraceUI@@HHH@ZPAV1@HHH@std@@QAE@$$QAV01@@Z 00407630 f i TraceUI.obj
 0001:00006660       ??0?$vector@PAXV?$allocator@PAX@std@@@std@@QAE@ABV01@@Z 00407660 f i TraceUI.obj
 0001:000066f0       ??0TraceUI@@QAE@XZ         004076f0 f   TraceUI.obj
 0001:000072b0       ??0_System_error@std@@IAE@Verror_code@1@ABV?$basic_string@DU?$char_traits@D@std@@V?$allocator@D@2@@1@@Z 004082b0 f i TraceUI.obj
 0001:00007370       ??0_System_error@std@@QAE@ABV01@@Z 00408370 f i TraceUI.obj
 0001:000073c0       ??0_TaskCollectionBaseImpl@details@Concurrency@@QAE@Uscheduler_ptr@2@@Z 004083c0 f i TraceUI.obj
 0001:00007440       ??0_Task_impl_base@details@Concurrency@@QAE@PAV_CancellationTokenState@12@Uscheduler_ptr@2@@Z 00408440 f i TraceUI.obj
 0001:00007520       ??0exception@std@@QAE@ABV01@@Z 00408520 f i TraceUI.obj
 0001:00007550       ??0exception_ptr@std@@QAE@ABV01@@Z 00408550 f i TraceUI.obj
 0001:00007570       ??0invalid_operation@Concurrency@@QAE@ABV01@@Z 00408570 f i TraceUI.obj
 0001:000075b0       ??0invalid_operation@Concurrency@@QAE@PBD@Z 004085b0 f i TraceUI.obj
 0001:000075f0       ??0runtime_error@std@@QAE@ABV01@@Z 004085f0 f i TraceUI.obj
 0001:00007630       ??0runtime_error@std@@QAE@PBD@Z 00408630 f i TraceUI.obj
 0001:00007680       ??0scheduler_ptr@Concurrency@@QAE@ABU01@@Z 00408680 f i TraceUI.obj
 0001:000076f0       ??0system_error@std@@QAE@ABV01@@Z 004086f0 f i TraceUI.obj
 0001:00007740       ??0system_error@std@@QAE@Verror_code@1@@Z 00408740 f i TraceUI.obj
 0001:000077f0       ??0task_options@Concurrency@@QAE@XZ 004087f0 f i TraceUI.obj
 0001:000078e0       ??1?$_Associated_state@H@std@@UAE@XZ 004088e0 f i TraceUI.obj
 0001:00007960       ??1?$_Func_base@E$$V@std@@QAE@XZ 00408960 f i TraceUI.obj
 0001:00007970       ??1?$_Func_class@E$$V@std@@QAE@XZ 00408970 f i TraceUI.obj
 0001:000079a0       ??1?$_Func_class@X$$V@std@@QAE@XZ 004089a0 f i TraceUI.obj
 0001:00007e10       ??1?$_Packaged_state@$$A6AXXZ@std@@UAE@XZ 00408e10 f i TraceUI.obj
 0001:00007eb0       ??1?$_Promise@H@std@@QAE@XZ 00408eb0 f i TraceUI.obj
 0001:00007f20       ??1?$_Task_async_state@X$00@std@@UAE@XZ 00408f20 f i TraceUI.obj
 0001:00007fb0       ??1?$_Task_async_state@X$0A@@std@@UAE@XZ 00408fb0 f i TraceUI.obj
 0001:00008030       ??1?$_Task_impl@E@details@Concurrency@@UAE@XZ 00409030 f i TraceUI.obj
 0001:000080d0       ??1?$function@$$A6AEXZ@std@@QAE@XZ 004090d0 f i TraceUI.obj
 0001:00008100       ??1?$function@$$A6AXXZ@std@@QAE@XZ 00409100 f i TraceUI.obj
 0001:00008130       ??1?$future@X@std@@QAE@XZ  00409130 f i TraceUI.obj
 0001:000081a0       ??1?$lock_guard@Vmutex@std@@@std@@QAE@XZ 004091a0 f i TraceUI.obj
 0001:000081f0       ??1?$shared_ptr@U_ExceptionHolder@details@Concurrency@@@std@@QAE@XZ 004091f0 f i TraceUI.obj
 0001:00008220       ??1?$shared_ptr@U_Task_impl_base@details@Concurrency@@@std@@QAE@XZ 00409220 f i TraceUI.obj
 0001:00008250       ??1?$shared_ptr@Uscheduler_interface@Concurrency@@@std@@QAE@XZ 00409250 f i TraceUI.obj
 0001:00008280       ??1?$task@E@Concurrency@@QAE@XZ 00409280 f i TraceUI.obj
 0001:000082b0       ??1?$task@X@Concurrency@@QAE@XZ 004092b0 f i TraceUI.obj
 0001:000082e0       ??1?$unique_lock@Vmutex@std@@@std@@QAE@XZ 004092e0 f i TraceUI.obj
 0001:00008330       ??1?$unique_ptr@U_TaskProcHandle@details@Concurrency@@U?$default_delete@U_TaskProcHandle@details@Concurrency@@@std@@@std@@QAE@XZ 00409330 f i TraceUI.obj
 0001:00008340       ??1?$unique_ptr@V_PPLTaskChore@_DefaultPPLTaskScheduler@details@Concurrency@@U?$default_delete@V_PPLTaskChore@_DefaultPPLTaskScheduler@details@Concurrency@@@std@@@std@@QAE@XZ 00409340 f i TraceUI.obj
 0001:000083a0       ??1?$vector@V?$future@X@std@@V?$allocator@V?$future@X@std@@@2@@std@@QAE@XZ 004093a0 f i TraceUI.obj
 0001:00008420       ??1?$weak_ptr@U_Task_impl_base@details@Concurrency@@@std@@QAE@XZ 00409420 f i TraceUI.obj
 0001:00008440       ??1_CancellationTokenRegistration@details@Concurrency@@MAE@XZ 00409440 f i TraceUI.obj
 0001:00008470       ??1_ContextCallback@details@Concurrency@@QAE@XZ 00409470 f i TraceUI.obj
 0001:000084b0       ??1_ExceptionHolder@details@Concurrency@@QAE@XZ 004094b0 f i TraceUI.obj
 0001:00008540       ??1_Holder@_TaskProcThunk@details@Concurrency@@QAE@XZ 00409540 f i TraceUI.obj
 0001:00008570       ??1_RefCounter@details@Concurrency@@UAE@XZ 00409570 f i TraceUI.obj
 0001:00008580       ??1_Ref_count_base@std@@UAE@XZ 00409580 f i TraceUI.obj
 0001:00008590       ??1_TaskCreationCallstack@details@Concurrency@@QAE@XZ 00409590 f i TraceUI.obj
 0001:000085d0       ??1_TaskProcHandle@details@Concurrency@@UAE@XZ 004095d0 f i TraceUI.obj
 0001:000085e0       ??1_TaskWorkItemRAIILogger@details@Concurrency@@QAE@XZ 004095e0 f i TraceUI.obj
 0001:00008620       ??1_Task_impl_base@details@Concurrency@@UAE@XZ 00409620 f i TraceUI.obj
 0001:00008730       ??1cancellation_token@Concurrency@@QAE@XZ 00409730 f i TraceUI.obj
 0001:00008790       ??1error_category@std@@UAE@XZ 00409790 f i TraceUI.obj
 0001:000087a0       ??1exception@std@@UAE@XZ   004097a0 f i TraceUI.obj
 0001:000087c0       ??1exception_ptr@std@@QAE@XZ 004097c0 f i TraceUI.obj
 0001:000087d0       ??1invalid_operation@Concurrency@@UAE@XZ 004097d0 f i TraceUI.obj
 0001:000087f0       ??1runtime_error@std@@UAE@XZ 004097f0 f i TraceUI.obj
 0001:00008810       ??1scheduler_ptr@Concurrency@@QAE@XZ 00409810 f i TraceUI.obj
 0001:00008840       ??1system_error@std@@UAE@XZ 00409840 f i TraceUI.obj
 0001:00008860       ??1task_options@Concurrency@@QAE@XZ 00409860 f i TraceUI.obj
 0001:00008930       ??3@YAXPAX0@Z              00409930 f i TraceUI.obj
 0001:00008940       ??4?$shared_ptr@U_ExceptionHolder@details@Concurrency@@@std@@QAEAAV01@ABV01@@Z 00409940 f i TraceUI.obj
 0001:000089a0       ??4?$task@E@Concurrency@@QAEAAV01@$$QAV01@@Z 004099a0 f i TraceUI.obj
 0001:00008a10       ??C?$shared_ptr@U_ExceptionHolder@details@Concurrency@@@std@@QBEPAU_ExceptionHolder@details@Concurrency@@XZ 00409a10 f i TraceUI.obj
 0001:00008b80       ??_E?$_Associated_state@H@std@@UAEPAXI@Z 00409b80 f i TraceUI.obj
 0001:00008b80       ??_G?$_Associated_state@H@std@@UAEPAXI@Z 00409b80 f i TraceUI.obj
 0001:00008c10       ??_E?$_CancellationTokenCallback@V<lambda_3b8ab8d2629adf61a42ee3fe177a046b>@@@details@Concurrency@@UAEPAXI@Z 00409c10 f i TraceUI.obj
 0001:00008c10       ??_G?$_CancellationTokenCallback@V<lambda_3b8ab8d2629adf61a42ee3fe177a046b>@@@details@Concurrency@@UAEPAXI@Z 00409c10 f i TraceUI.obj
 0001:00008c70       ??_G?$_Deferred_async_state@X@std@@UAEPAXI@Z 00409c70 f i TraceUI.obj
 0001:00008c70       ??_E?$_Deferred_async_state@X@std@@UAEPAXI@Z 00409c70 f i TraceUI.obj
 0001:00008ca0       ??_G?$_InitialTaskHandle@XV<lambda_042c6af70ca74ab46830ae50c8c14c9e>@@U_TypeSelectorNoAsync@details@Concurrency@@@?$task@E@Concurrency@@UAEPAXI@Z 00409ca0 f i TraceUI.obj
 0001:00008ca0       ??_E?$_InitialTaskHandle@XV<lambda_042c6af70ca74ab46830ae50c8c14c9e>@@U_TypeSelectorNoAsync@details@Concurrency@@@?$task@E@Concurrency@@UAEPAXI@Z 00409ca0 f i TraceUI.obj
 0001:00008d40       ??_G?$_InitialTaskHandle@XV<lambda_0ebde0502725cf61f7686a2917d1749f>@@U_TypeSelectorNoAsync@details@Concurrency@@@?$task@E@Concurrency@@UAEPAXI@Z 00409d40 f i TraceUI.obj
 0001:00008d40       ??_E?$_InitialTaskHandle@XV<lambda_0ebde0502725cf61f7686a2917d1749f>@@U_TypeSelectorNoAsync@details@Concurrency@@@?$task@E@Concurrency@@UAEPAXI@Z 00409d40 f i TraceUI.obj
 0001:00008de0       ??_E?$_InitialTaskHandle@XV<lambda_483208dc91e150c0c9b495b53fd62158>@@U_TypeSelectorNoAsync@details@Concurrency@@@?$task@E@Concurrency@@UAEPAXI@Z 00409de0 f i TraceUI.obj
 0001:00008de0       ??_G?$_InitialTaskHandle@XV<lambda_483208dc91e150c0c9b495b53fd62158>@@U_TypeSelectorNoAsync@details@Concurrency@@@?$task@E@Concurrency@@UAEPAXI@Z 00409de0 f i TraceUI.obj
 0001:00008e80       ??_G?$_InitialTaskHandle@XV<lambda_855a1ef4dbee54ab7f2f1e055b9bdfad>@@U_TypeSelectorNoAsync@details@Concurrency@@@?$task@E@Concurrency@@UAEPAXI@Z 00409e80 f i TraceUI.obj
 0001:00008e80       ??_E?$_InitialTaskHandle@XV<lambda_855a1ef4dbee54ab7f2f1e055b9bdfad>@@U_TypeSelectorNoAsync@details@Concurrency@@@?$task@E@Concurrency@@UAEPAXI@Z 00409e80 f i TraceUI.obj
 0001:00008f20       ??_E?$_PPLTaskHandle@EU?$_InitialTaskHandle@XV<lambda_042c6af70ca74ab46830ae50c8c14c9e>@@U_TypeSelectorNoAsync@details@Concurrency@@@?$task@E@Concurrency@@U_TaskProcHandle@details@3@@details@Concurrency@@UAEPAXI@Z 00409f20 f i TraceUI.obj
 0001:00008f20       ??_G?$_PPLTaskHandle@EU?$_InitialTaskHandle@XV<lambda_042c6af70ca74ab46830ae50c8c14c9e>@@U_TypeSelectorNoAsync@details@Concurrency@@@?$task@E@Concurrency@@U_TaskProcHandle@details@3@@details@Concurrency@@UAEPAXI@Z 00409f20 f i TraceUI.obj
 0001:00008fc0       ??_E?$_PPLTaskHandle@EU?$_InitialTaskHandle@XV<lambda_0ebde0502725cf61f7686a2917d1749f>@@U_TypeSelectorNoAsync@details@Concurrency@@@?$task@E@Concurrency@@U_TaskProcHandle@details@3@@details@Concurrency@@UAEPAXI@Z 00409fc0 f i TraceUI.obj
 0001:00008fc0       ??_G?$_PPLTaskHandle@EU?$_InitialTaskHandle@XV<lambda_0ebde0502725cf61f7686a2917d1749f>@@U_TypeSelectorNoAsync@details@Concurrency@@@?$task@E@Concurrency@@U_TaskProcHandle@details@3@@details@Concurrency@@UAEPAXI@Z 00409fc0 f i TraceUI.obj
 0001:00009060       ??_E?$_PPLTaskHandle@EU?$_InitialTaskHandle@XV<lambda_483208dc91e150c0c9b495b53fd62158>@@U_TypeSelectorNoAsync@details@Concurrency@@@?$task@E@Concurrency@@U_TaskProcHandle@details@3@@details@Concurrency@@UAEPAXI@Z 0040a060 f i TraceUI.obj
 0001:00009060       ??_G?$_PPLTaskHandle@EU?$_InitialTaskHandle@XV<lambda_483208dc91e150c0c9b495b53fd62158>@@U_TypeSelectorNoAsync@details@Concurrency@@@?$task@E@Concurrency@@U_TaskProcHandle@details@3@@details@Concurrency@@UAEPAXI@Z 0040a060 f i TraceUI.obj
 0001:00009100       ??_G?$_PPLTaskHandle@EU?$_InitialTaskHandle@XV<lambda_855a1ef4dbee54ab7f2f1e055b9bdfad>@@U_TypeSelectorNoAsync@details@Concurrency@@@?$task@E@Concurrency@@U_TaskProcHandle@details@3@@details@Concurrency@@UAEPAXI@Z 0040a100 f i TraceUI.obj
 0001:00009100       ??_E?$_PPLTaskHandle@EU?$_InitialTaskHandle@XV<lambda_855a1ef4dbee54ab7f2f1e055b9bdfad>@@U_TypeSelectorNoAsync@details@Concurrency@@@?$task@E@Concurrency@@U_TaskProcHandle@details@3@@details@Concurrency@@UAEPAXI@Z 0040a100 f i TraceUI.obj
 0001:000091a0       ??_E?$_Packaged_state@$$A6AXXZ@std@@UAEPAXI@Z 0040a1a0 f i TraceUI.obj
 0001:000091a0       ??_G?$_Packaged_state@$$A6AXXZ@std@@UAEPAXI@Z 0040a1a0 f i TraceUI.obj
 0001:000091d0       ??_G?$_Ref_count_obj@U?$_Task_impl@E@details@Concurrency@@@std@@UAEPAXI@Z 0040a1d0 f i TraceUI.obj
 0001:000091d0       ??_E?$_Ref_count_obj@U?$_Task_impl@E@details@Concurrency@@@std@@UAEPAXI@Z 0040a1d0 f i TraceUI.obj
 0001:00009200       ??_G?$_Ref_count_obj@U_ExceptionHolder@details@Concurrency@@@std@@UAEPAXI@Z 0040a200 f i TraceUI.obj
 0001:00009200       ??_E?$_Ref_count_obj@U_ExceptionHolder@details@Concurrency@@@std@@UAEPAXI@Z 0040a200 f i TraceUI.obj
 0001:00009230       ??_E?$_Task_async_state@X$00@std@@UAEPAXI@Z 0040a230 f i TraceUI.obj
 0001:00009230       ??_G?$_Task_async_state@X$00@std@@UAEPAXI@Z 0040a230 f i TraceUI.obj
 0001:00009260       ??_G?$_Task_async_state@X$0A@@std@@UAEPAXI@Z 0040a260 f i TraceUI.obj
 0001:00009260       ??_E?$_Task_async_state@X$0A@@std@@UAEPAXI@Z 0040a260 f i TraceUI.obj
 0001:00009300       ??_E?$_Task_impl@E@details@Concurrency@@UAEPAXI@Z 0040a300 f i TraceUI.obj
 0001:00009300       ??_G?$_Task_impl@E@details@Concurrency@@UAEPAXI@Z 0040a300 f i TraceUI.obj
 0001:00009330       ??_E_CancellationTokenRegistration@details@Concurrency@@MAEPAXI@Z 0040a330 f i TraceUI.obj
 0001:00009330       ??_G_CancellationTokenRegistration@details@Concurrency@@MAEPAXI@Z 0040a330 f i TraceUI.obj
 0001:00009380       ??_E_Future_error_category@std@@UAEPAXI@Z 0040a380 f i TraceUI.obj
 0001:00009380       ??_G_Future_error_category@std@@UAEPAXI@Z 0040a380 f i TraceUI.obj
 0001:000093b0       ??_G_Generic_error_category@std@@UAEPAXI@Z 0040a3b0 f i TraceUI.obj
 0001:000093b0       ??_E_Generic_error_category@std@@UAEPAXI@Z 0040a3b0 f i TraceUI.obj
 0001:000093e0       ??_G_PPLTaskChore@_DefaultPPLTaskScheduler@details@Concurrency@@QAEPAXI@Z 0040a3e0 f i TraceUI.obj
 0001:00009440       ??_E_RefCounter@details@Concurrency@@UAEPAXI@Z 0040a440 f i TraceUI.obj
 0001:00009440       ??_G_RefCounter@details@Concurrency@@UAEPAXI@Z 0040a440 f i TraceUI.obj
 0001:00009470       ??_E_Ref_count_base@std@@UAEPAXI@Z 0040a470 f i TraceUI.obj
 0001:00009470       ??_G_Ref_count_base@std@@UAEPAXI@Z 0040a470 f i TraceUI.obj
 0001:000094a0       ??_G_System_error@std@@UAEPAXI@Z 0040a4a0 f i TraceUI.obj
 0001:000094a0       ??_E_System_error@std@@UAEPAXI@Z 0040a4a0 f i TraceUI.obj
 0001:000094e0       ??_E_TaskProcHandle@details@Concurrency@@UAEPAXI@Z 0040a4e0 f i TraceUI.obj
 0001:000094e0       ??_G_TaskProcHandle@details@Concurrency@@UAEPAXI@Z 0040a4e0 f i TraceUI.obj
 0001:00009510       ??_G_Task_impl_base@details@Concurrency@@UAEPAXI@Z 0040a510 f i TraceUI.obj
 0001:00009510       ??_E_Task_impl_base@details@Concurrency@@UAEPAXI@Z 0040a510 f i TraceUI.obj
 0001:00009540       ??_Eerror_category@std@@UAEPAXI@Z 0040a540 f i TraceUI.obj
 0001:00009540       ??_Gerror_category@std@@UAEPAXI@Z 0040a540 f i TraceUI.obj
 0001:00009570       ??_Gexception@std@@UAEPAXI@Z 0040a570 f i TraceUI.obj
 0001:00009570       ??_Eexception@std@@UAEPAXI@Z 0040a570 f i TraceUI.obj
 0001:000095b0       ??_Einvalid_operation@Concurrency@@UAEPAXI@Z 0040a5b0 f i TraceUI.obj
 0001:000095b0       ??_Ginvalid_operation@Concurrency@@UAEPAXI@Z 0040a5b0 f i TraceUI.obj
 0001:000095f0       ??_Gruntime_error@std@@UAEPAXI@Z 0040a5f0 f i TraceUI.obj
 0001:000095f0       ??_Eruntime_error@std@@UAEPAXI@Z 0040a5f0 f i TraceUI.obj
 0001:00009630       ??_Gsystem_error@std@@UAEPAXI@Z 0040a630 f i TraceUI.obj
 0001:00009630       ??_Esystem_error@std@@UAEPAXI@Z 0040a630 f i TraceUI.obj
 0001:00009670       ?RenderWorker@TraceUI@@CAXPAV1@HHH@Z 0040a670 f   TraceUI.obj
 0001:000096c0       ?WaitUntilStateChangedTo@_TaskCollectionBaseImpl@details@Concurrency@@IAEXW4_TaskCollectionState@123@@Z 0040a6c0 f i TraceUI.obj
 0001:00009770       ?_Bridge@_TaskProcThunk@details@Concurrency@@SAXPAX@Z 0040a770 f i TraceUI.obj
 0001:000097f0       ?_Buy@?$vector@PAXV?$allocator@PAX@std@@@std@@AAE_NI@Z 0040a7f0 f i TraceUI.obj
 0001:00009850       ?_CallInContext@_ContextCallback@details@Concurrency@@QBEXV?$function@$$A6AXXZ@std@@@Z 0040a850 f i TraceUI.obj
 0001:000098e0       ?_Call_immediate@?$_Packaged_state@$$A6AXXZ@std@@QAEXXZ 0040a8e0 f i TraceUI.obj
 0001:00009970       ?_Callback@_PPLTaskChore@_DefaultPPLTaskScheduler@details@Concurrency@@CAXPAX@Z 0040a970 f i TraceUI.obj
 0001:000099e0       ?_CancelAndRunContinuations@?$_Task_impl@E@details@Concurrency@@UAE_N_N00ABV?$shared_ptr@U_ExceptionHolder@details@Concurrency@@@std@@@Z 0040a9e0 f i TraceUI.obj
 0001:00009b80       ?_CancelWithException@_Task_impl_base@details@Concurrency@@QAE_NABVexception_ptr@std@@@Z 0040ab80 f i TraceUI.obj
 0001:00009c40       ?_CaptureCurrent@_ContextCallback@details@Concurrency@@SA?AV123@XZ 0040ac40 f i TraceUI.obj
 0001:00009ca0       ?_CaptureSingleFrameCallstack@_TaskCreationCallstack@details@Concurrency@@SA?AV123@PAX@Z 0040aca0 f i TraceUI.obj
 0001:00009de0       ?_Copy@?$_Func_impl@V?$_Fake_no_copy_callable_adapter@A6AXPAVTraceUI@@HHH@ZAAPAV1@HAAHAAH@std@@V?$allocator@H@2@X$$V@std@@EBEPAV?$_Func_base@X$$V@2@PAX@Z 0040ade0 f i TraceUI.obj
 0001:00009e20       ?_Copy@?$_Func_impl@V?$_Fake_no_copy_callable_adapter@A6AXPAVTraceUI@@HHH@ZAAPAV1@HHAAH@std@@V?$allocator@H@2@X$$V@std@@EBEPAV?$_Func_base@X$$V@2@PAX@Z 0040ae20 f i TraceUI.obj
 0001:00009e60       ?_CreateImpl@?$task@E@Concurrency@@QAEXPAV_CancellationTokenState@details@2@Uscheduler_ptr@2@@Z 0040ae60 f i TraceUI.obj
 0001:00009fb0       ?_Current_exception@exception_ptr@std@@SA?AV12@XZ 0040afb0 f i TraceUI.obj
 0001:0000a140       ?_Delete_this@?$_Func_impl@V?$_Fake_no_copy_callable_adapter@A6AXPAVTraceUI@@HHH@ZAAPAV1@HAAHAAH@std@@V?$allocator@H@2@X$$V@std@@EAEX_N@Z 0040b140 f i TraceUI.obj
 0001:0000a160       ?_Delete_this@?$_Func_impl@V?$_Fake_no_copy_callable_adapter@A6AXPAVTraceUI@@HHH@ZAAPAV1@HHAAH@std@@V?$allocator@H@2@X$$V@std@@EAEX_N@Z 0040b160 f i TraceUI.obj
 0001:0000a180       ?_Delete_this@?$_Ref_count_obj@U?$_Task_impl@E@details@Concurrency@@@std@@EAEXXZ 0040b180 f i TraceUI.obj
 0001:0000a190       ?_Delete_this@?$_Ref_count_obj@U_ExceptionHolder@details@Concurrency@@@std@@EAEXXZ 0040b190 f i TraceUI.obj
 0001:0000a1a0       ?_DeregisterCallback@_CancellationTokenState@details@Concurrency@@QAEXPAV_CancellationTokenRegistration@23@@Z 0040b1a0 f i TraceUI.obj
 0001:0000a310       ?_Destroy@?$_Ref_count_obj@U?$_Task_impl@E@details@Concurrency@@@std@@EAEXXZ 0040b310 f i TraceUI.obj
 0001:0000a320       ?_Destroy@?$_Ref_count_obj@U_ExceptionHolder@details@Concurrency@@@std@@EAEXXZ 0040b320 f i TraceUI.obj
 0001:0000a330       ?_Destroy@_RefCounter@details@Concurrency@@MAEXXZ 0040b330 f i TraceUI.obj
 0001:0000a3d0       ?_Do_call@?$_Func_impl@V?$_Fake_no_copy_callable_adapter@A6AXPAVTraceUI@@HHH@ZAAPAV1@HAAHAAH@std@@V?$allocator@H@2@X$$V@std@@EAEXXZ 0040b3d0 f i TraceUI.obj
 0001:0000a3f0       ?_Do_call@?$_Func_impl@V?$_Fake_no_copy_callable_adapter@A6AXPAVTraceUI@@HHH@ZAAPAV1@HHAAH@std@@V?$allocator@H@2@X$$V@std@@EAEXXZ 0040b3f0 f i TraceUI.obj
 0001:0000a410       ?_Do_notify@?$_Associated_state@H@std@@EAEXPAV?$unique_lock@Vmutex@std@@@2@_N@Z 0040b410 f i TraceUI.obj
 0001:0000a540       ?_FinalizeAndRunContinuations@?$_Task_impl@E@details@Concurrency@@QAEXE@Z 0040b540 f i TraceUI.obj
 0001:0000a690       ?_Get@?$_Func_impl@V?$_Fake_no_copy_callable_adapter@A6AXPAVTraceUI@@HHH@ZAAPAV1@HAAHAAH@std@@V?$allocator@H@2@X$$V@std@@EBEPBXXZ 0040b690 f i TraceUI.obj
 0001:0000a6a0       ?_Get@?$_Func_impl@V?$_Fake_no_copy_callable_adapter@A6AXPAVTraceUI@@HHH@ZAAPAV1@HHAAH@std@@V?$allocator@H@2@X$$V@std@@EBEPBXXZ 0040b6a0 f i TraceUI.obj
 0001:0000a6b0       ?_GetStaticAmbientSchedulerRef@details@Concurrency@@YAAAV?$shared_ptr@Uscheduler_interface@Concurrency@@@std@@XZ 0040b6b0 f i TraceUI.obj
 0001:0000a720       ?_GetTaskCreationCallstack@_Task_impl_base@details@Concurrency@@QAE?AV_TaskCreationCallstack@23@XZ 0040b720 f i TraceUI.obj
 0001:0000a750       ?_Get_deleter@_Ref_count_base@std@@UBEPAXABVtype_info@@@Z 0040b750 f i TraceUI.obj
 0001:0000a760       ?_Get_value@?$_Associated_state@H@std@@UAEAAH_N@Z 0040b760 f i TraceUI.obj
 0001:0000a8a0       ?_Get_value@?$_Task_async_state@X$00@std@@UAEAAH_N@Z 0040b8a0 f i TraceUI.obj
 0001:0000a8d0       ?_Get_value@?$_Task_async_state@X$0A@@std@@UAEAAH_N@Z 0040b8d0 f i TraceUI.obj
 0001:0000a8e0       ?_Getal@?$_Vector_alloc@U?$_Vec_base_types@V?$future@X@std@@V?$allocator@V?$future@X@std@@@2@@std@@@std@@QAEAAU?$_Wrap_alloc@V?$allocator@V?$future@X@std@@@std@@@2@XZ 0040b8e0 f i TraceUI.obj
 0001:0000a8f0       ?_Has_deferred_function@?$_Associated_state@H@std@@EBE_NXZ 0040b8f0 f i TraceUI.obj
 0001:0000a900       ?_Has_deferred_function@?$_Deferred_async_state@X@std@@EBE_NXZ 0040b900 f i TraceUI.obj
 0001:0000a910       ?_Invoke@_CancellationTokenRegistration@details@Concurrency@@AAEXXZ 0040b910 f i TraceUI.obj
 0001:0000a9f0       ?_Make@?$_Task_ptr@E@details@Concurrency@@SA?AV?$shared_ptr@U?$_Task_impl@E@details@Concurrency@@@std@@PAV_CancellationTokenState@23@Uscheduler_ptr@3@@Z 0040b9f0 f i TraceUI.obj
 0001:0000aa80       ?_MakeVoidToUnitFunc@details@Concurrency@@YA?AV?$function@$$A6AEXZ@std@@ABV?$function@$$A6AXXZ@4@@Z 0040ba80 f i TraceUI.obj
 0001:0000ab30       ?_Makestr@_System_error@std@@CA?AV?$basic_string@DU?$char_traits@D@std@@V?$allocator@D@2@@2@Verror_code@2@V32@@Z 0040bb30 f i TraceUI.obj
 0001:0000ad70       ?_Move@?$_Func_impl@V?$_Fake_no_copy_callable_adapter@A6AXPAVTraceUI@@HHH@ZAAPAV1@HAAHAAH@std@@V?$allocator@H@2@X$$V@std@@EAEPAV?$_Func_base@X$$V@2@PAX@Z 0040bd70 f i TraceUI.obj
 0001:0000adb0       ?_Move@?$_Func_impl@V?$_Fake_no_copy_callable_adapter@A6AXPAVTraceUI@@HHH@ZAAPAV1@HHAAH@std@@V?$allocator@H@2@X$$V@std@@EAEPAV?$_Func_base@X$$V@2@PAX@Z 0040bdb0 f i TraceUI.obj
 0001:0000adf0       ?_NoCallOnDefaultTask_ErrorImpl@_DefaultTaskHelper@details@Concurrency@@SAXXZ 0040bdf0 f i TraceUI.obj
 0001:0000ae20       ?_Perform@?$_Init_func_transformer@X@Concurrency@@SA?AV?$function@$$A6AEXZ@std@@V?$function@$$A6AXXZ@4@@Z 0040be20 f i TraceUI.obj
 0001:0000ae90       ?_RegisterCallback@_CancellationTokenState@details@Concurrency@@QAEXPAV_CancellationTokenRegistration@23@@Z 0040be90 f i TraceUI.obj
 0001:0000af90       ?_RegisterCancellation@_Task_impl_base@details@Concurrency@@QAEXV?$weak_ptr@U_Task_impl_base@details@Concurrency@@@std@@@Z 0040bf90 f i TraceUI.obj
 0001:0000b050       ?_Reset0@?$_Ptr_base@U_Task_impl_base@details@Concurrency@@@std@@QAEXPAU_Task_impl_base@details@Concurrency@@PAV_Ref_count_base@2@@Z 0040c050 f i TraceUI.obj
 0001:0000b0b0       ?_Reset_weak@?$_Ptr_base@U_Task_impl_base@details@Concurrency@@@std@@QAE_NPAU_Task_impl_base@details@Concurrency@@PAV_Ref_count_base@2@@Z 0040c0b0 f i TraceUI.obj
 0001:0000b100       ?_RethrowException@exception_ptr@std@@QBEXXZ 0040c100 f i TraceUI.obj
 0001:0000b110       ?_RethrowUserException@_ExceptionHolder@details@Concurrency@@QAEXXZ 0040c110 f i TraceUI.obj
 0001:0000b140       ?_RunChoreBridge@_TaskProcHandle@details@Concurrency@@SAXPAX@Z 0040c140 f i TraceUI.obj
 0001:0000b190       ?_RunTask@_TaskCollectionBaseImpl@details@Concurrency@@SAXP6AXPAX@Z0W4_TaskInliningMode@23@@Z 0040c190 f i TraceUI.obj
 0001:0000b250       ?_RunTaskContinuations@_Task_impl_base@details@Concurrency@@QAEXXZ 0040c250 f i TraceUI.obj
 0001:0000b430       ?_Run_deferred_function@?$_Associated_state@H@std@@EAEXAAV?$unique_lock@Vmutex@std@@@2@@Z 0040c430 f i TraceUI.obj
 0001:0000b440       ?_Run_deferred_function@?$_Deferred_async_state@X@std@@EAEXAAV?$unique_lock@Vmutex@std@@@2@@Z 0040c440 f i TraceUI.obj
 0001:0000b520       ?_ScheduleTask@_TaskCollectionBaseImpl@details@Concurrency@@QAEXPAU_TaskProcHandle@23@W4_TaskInliningMode@23@@Z 0040c520 f i TraceUI.obj
 0001:0000b5c0       ?_ScheduleTask@_Task_impl_base@details@Concurrency@@QAEXPAU_TaskProcHandle@23@W4_TaskInliningMode@23@@Z 0040c5c0 f i TraceUI.obj
 0001:0000b690       ?_SetCollectionState@_TaskCollectionBaseImpl@details@Concurrency@@IAEXW4_TaskCollectionState@123@@Z 0040c690 f i TraceUI.obj
 0001:0000b730       ?_Set_exception@?$_Associated_state@H@std@@QAEXVexception_ptr@2@_N@Z 0040c730 f i TraceUI.obj
 0001:0000b800       ?_Set_exception_raw@?$_Associated_state@H@std@@QAEXVexception_ptr@2@PAV?$unique_lock@Vmutex@std@@@2@_N@Z 0040c800 f i TraceUI.obj
 0001:0000b890       ?_Set_value@?$_Associated_state@H@std@@QAEX$$QAH_N@Z 0040c890 f i TraceUI.obj
 0001:0000b9d0       ?_Target_type@?$_Func_impl@V?$_Fake_no_copy_callable_adapter@A6AXPAVTraceUI@@HHH@ZAAPAV1@HAAHAAH@std@@V?$allocator@H@2@X$$V@std@@EBEABVtype_info@@XZ 0040c9d0 f i TraceUI.obj
 0001:0000b9e0       ?_Target_type@?$_Func_impl@V?$_Fake_no_copy_callable_adapter@A6AXPAVTraceUI@@HHH@ZAAPAV1@HHAAH@std@@V?$allocator@H@2@X$$V@std@@EBEABVtype_info@@XZ 0040c9e0 f i TraceUI.obj
 0001:0000b9f0       ?_Validate@?$unique_lock@Vmutex@std@@@std@@ABEXXZ 0040c9f0 f i TraceUI.obj
 0001:0000ba60       ?_Wait@?$_Associated_state@H@std@@UAEXXZ 0040ca60 f i TraceUI.obj
 0001:0000bb40       ?_Wait@?$_Task_async_state@X$00@std@@UAEXXZ 0040cb40 f i TraceUI.obj
 0001:0000bb60       ?_Wait@?$_Task_async_state@X$0A@@std@@UAEXXZ 0040cb60 f i TraceUI.obj
 0001:0000bb70       ?_Wait@_Task_impl_base@details@Concurrency@@QAE?AW4task_group_status@3@XZ 0040cb70 f i TraceUI.obj
 0001:0000bc90       ?_Xlength@?$vector@PAXV?$allocator@PAX@std@@@std@@CAXXZ 0040cc90 f i TraceUI.obj
 0001:0000bca0       ?_Xlength@?$vector@V?$future@X@std@@V?$allocator@V?$future@X@std@@@2@@std@@CAXXZ 0040cca0 f i TraceUI.obj
 0001:0000bcb0       ?allocate@?$allocator@PAX@std@@QAEPAPAXI@Z 0040ccb0 f i TraceUI.obj
 0001:0000bd20       ?allocate@?$allocator@V?$future@X@std@@@std@@QAEPAV?$future@X@2@I@Z 0040cd20 f i TraceUI.obj
 0001:0000bd90       ?append@?$basic_string@DU?$char_traits@D@std@@V?$allocator@D@2@@std@@QAEAAV12@ABV12@II@Z 0040cd90 f i TraceUI.obj
 0001:0000be70       ?append@?$basic_string@DU?$char_traits@D@std@@V?$allocator@D@2@@std@@QAEAAV12@QBDI@Z 0040ce70 f i TraceUI.obj
 0001:0000bf60       ?cb_aConstantSlides@TraceUI@@CAXPAVFl_Widget@@PAX@Z 0040cf60 f   TraceUI.obj
 0001:0000bf80       ?cb_aLinearSlides@TraceUI@@CAXPAVFl_Widget@@PAX@Z 0040cf80 f   TraceUI.obj
 0001:0000bfa0       ?cb_aQuadraticSlides@TraceUI@@CAXPAVFl_Widget@@PAX@Z 0040cfa0 f   TraceUI.obj
 0001:0000bfc0       ?cb_depthSlides@TraceUI@@CAXPAVFl_Widget@@PAX@Z 0040cfc0 f   TraceUI.obj
 0001:0000bfe0       ?cb_distanceSwitch@TraceUI@@CAXPAVFl_Widget@@PAX@Z 0040cfe0 f   TraceUI.obj
 0001:0000c000       ?cb_exit2@TraceUI@@CAXPAVFl_Widget@@PAX@Z 0040d000 f   TraceUI.obj
 0001:0000c030       ?cb_fresnelSlides@TraceUI@@CAXPAVFl_Widget@@PAX@Z 0040d030 f   TraceUI.obj
 0001:0000c050       ?cb_fresnelSwitch@TraceUI@@CAXPAVFl_Widget@@PAX@Z 0040d050 f   TraceUI.obj
 0001:0000c060       ?cb_glossyReflectionSlides@TraceUI@@CAXPAVFl_Widget@@PAX@Z 0040d060 f   TraceUI.obj
 0001:0000c080       ?cb_intensityThresholdSlides@TraceUI@@CAXPAVFl_Widget@@PAX@Z 0040d080 f   TraceUI.obj
 0001:0000c0a0       ?cb_reflectionSwitch@TraceUI@@CAXPAVFl_Widget@@PAX@Z 0040d0a0 f   TraceUI.obj
 0001:0000c0b0       ?cb_refractionSwitch@TraceUI@@CAXPAVFl_Widget@@PAX@Z 0040d0b0 f   TraceUI.obj
 0001:0000c0c0       ?cb_render@TraceUI@@CAXPAVFl_Widget@@PAX@Z 0040d0c0 f   TraceUI.obj
 0001:0000c410       ?cb_shadowSwitch@TraceUI@@CAXPAVFl_Widget@@PAX@Z 0040d410 f   TraceUI.obj
 0001:0000c420       ?cb_sizeSlides@TraceUI@@CAXPAVFl_Widget@@PAX@Z 0040d420 f   TraceUI.obj
 0001:0000c470       ?cb_softShadowSwitch@TraceUI@@CAXPAVFl_Widget@@PAX@Z 0040d470 f   TraceUI.obj
 0001:0000c480       ?cb_stop@TraceUI@@CAXPAVFl_Widget@@PAX@Z 0040d480 f   TraceUI.obj
 0001:0000c490       ?cb_superSamplingSlides@TraceUI@@CAXPAVFl_Widget@@PAX@Z 0040d490 f   TraceUI.obj
 0001:0000c4b0       ?cb_threadSlides@TraceUI@@CAXPAVFl_Widget@@PAX@Z 0040d4b0 f   TraceUI.obj
 0001:0000c4d0       ?current_exception@std@@YA?AVexception_ptr@1@XZ 0040d4d0 f i TraceUI.obj
 0001:0000c510       ?deallocate@?$_Wrap_alloc@V?$allocator@V?$future@X@std@@@std@@@std@@QAEXPAV?$future@X@2@I@Z 0040d510 f i TraceUI.obj
 0001:0000c530       ?default_error_condition@error_category@std@@UBE?AVerror_condition@2@H@Z 0040d530 f i TraceUI.obj
 0001:0000c550       ?equivalent@error_category@std@@UBE_NABVerror_code@2@H@Z 0040d550 f i TraceUI.obj
 0001:0000c580       ?equivalent@error_category@std@@UBE_NHABVerror_condition@2@@Z 0040d580 f i TraceUI.obj
 0001:0000c5c0       ?get_cancellation_token@task_options@Concurrency@@QBE?AVcancellation_token@2@XZ 0040d5c0 f i TraceUI.obj
 0001:0000c5f0       ?get_scheduler@task_options@Concurrency@@QBE?AUscheduler_ptr@2@XZ 0040d5f0 f i TraceUI.obj
 0001:0000cc90       ?load_scene@TraceUI@@AAEXPBD@Z 0040dc90 f   TraceUI.obj
 0001:0000cd10       ?lock@?$weak_ptr@U_Task_impl_base@details@Concurrency@@@std@@QBE?AV?$shared_ptr@U_Task_impl_base@details@Concurrency@@@2@XZ 0040dd10 f i TraceUI.obj
 0001:0000cd40       ?make_error_code@std@@YA?AVerror_code@1@W4errc@1@@Z 0040dd40 f i TraceUI.obj
 0001:0000cd60       ?make_error_code@std@@YA?AVerror_code@1@W4future_errc@1@@Z 0040dd60 f i TraceUI.obj
 0001:0000cd80       ?message@_Future_error_category@std@@UBE?AV?$basic_string@DU?$char_traits@D@std@@V?$allocator@D@2@@2@H@Z 0040dd80 f i TraceUI.obj
 0001:0000ce20       ?message@_Generic_error_category@std@@UBE?AV?$basic_string@DU?$char_traits@D@std@@V?$allocator@D@2@@2@H@Z 0040de20 f i TraceUI.obj
 0001:0000ce70       ?message@error_code@std@@QBE?AV?$basic_string@DU?$char_traits@D@std@@V?$allocator@D@2@@2@XZ 0040de70 f i TraceUI.obj
 0001:0000cea0       ?name@_Future_error_category@std@@UBEPBDXZ 0040dea0 f i TraceUI.obj
 0001:0000ceb0       ?name@_Generic_error_category@std@@UBEPBDXZ 0040deb0 f i TraceUI.obj
 0001:0000cec0       ?none@cancellation_token@Concurrency@@SA?AV12@XZ 0040dec0 f i TraceUI.obj
 0001:0000cee0       ?remove@TokenRegistrationContainer@_CancellationTokenState@details@Concurrency@@QAEXPAV_CancellationTokenRegistration@34@@Z 0040dee0 f i TraceUI.obj
 0001:0000cf30       ?rethrow_exception@std@@YAXVexception_ptr@1@@Z 0040df30 f i TraceUI.obj
 0001:0000cf70       ?schedule@_DefaultPPLTaskScheduler@details@Concurrency@@UAEXP6AXPAX@Z0@Z 0040df70 f i TraceUI.obj
 0001:0000cff0       ?setRayTracer@TraceUI@@QAEXPAVRayTracer@@@Z 0040dff0 f   TraceUI.obj
 0001:0000d010       ?show@TraceUI@@QAEXXZ      0040e010 f   TraceUI.obj
 0001:0000d020       ?unlock@?$unique_lock@Vmutex@std@@@std@@QAEXXZ 0040e020 f i TraceUI.obj
 0001:0000d080       ?use_default@task_continuation_context@Concurrency@@SA?AV12@XZ 0040e080 f i TraceUI.obj
 0001:0000d0a0       ?what@exception@std@@UBEPBDXZ 0040e0a0 f i TraceUI.obj
 0001:0000d0b0       ?whoami@TraceUI@@CAPAV1@PAVFl_Menu_@@@Z 0040e0b0 f   TraceUI.obj
 0001:0000d0c0       _sprintf                   0040e0c0 f i TraceUI.obj
 0001:0000d100       ?readBMP@@YAPAEPADAAH1@Z   0040e100 f   bitmap.obj
 0001:0000d270       ?writeBMP@@YAXPADHHPAE@Z   0040e270 f   bitmap.obj
 0001:0000d400       ??$?0U?$_Wrap_alloc@V?$allocator@U?$_Tree_node@U?$pair@$$CBV?$basic_string@DU?$char_traits@D@std@@V?$allocator@D@2@@std@@PAVObj@@@std@@PAX@std@@@std@@@std@@@?$_Tree@V?$_Tmap_traits@V?$basic_string@DU?$char_traits@D@std@@V?$allocator@D@2@@std@@PAVObj@@U?$less@V?$basic_string@DU?$char_traits@D@std@@V?$allocator@D@2@@std@@@2@V?$allocator@U?$pair@$$CBV?$basic_string@DU?$char_traits@D@std@@V?$allocator@D@2@@std@@PAVObj@@@std@@@2@$0A@@std@@@std@@QAE@ABV01@$$QAU?$_Wrap_alloc@V?$allocator@U?$_Tree_node@U?$pair@$$CBV?$basic_string@DU?$char_traits@D@std@@V?$allocator@D@2@@std@@PAVObj@@@std@@PAX@std@@@std@@@1@@Z 0040e400 f i parse.obj
 0001:0000d490       ??$?6U?$char_traits@D@std@@@std@@YAAAV?$basic_ostream@DU?$char_traits@D@std@@@0@AAV10@D@Z 0040e490 f i parse.obj
 0001:0000d6a0       ??$?6U?$char_traits@D@std@@@std@@YAAAV?$basic_ostream@DU?$char_traits@D@std@@@0@AAV10@PBD@Z 0040e6a0 f i parse.obj
 0001:0000d8d0       ??$?HDU?$char_traits@D@std@@V?$allocator@D@1@@std@@YA?AV?$basic_string@DU?$char_traits@D@std@@V?$allocator@D@2@@0@$$QAV10@0@Z 0040e8d0 f i parse.obj
 0001:0000d950       ??$?HDU?$char_traits@D@std@@V?$allocator@D@1@@std@@YA?AV?$basic_string@DU?$char_traits@D@std@@V?$allocator@D@2@@0@$$QAV10@ABV10@@Z 0040e950 f i parse.obj
 0001:0000d9b0       ??$_Buynode@AAU?$pair@$$CBV?$basic_string@DU?$char_traits@D@std@@V?$allocator@D@2@@std@@PAVObj@@@std@@@?$_Tree_comp_alloc@V?$_Tmap_traits@V?$basic_string@DU?$char_traits@D@std@@V?$allocator@D@2@@std@@PAVObj@@U?$less@V?$basic_string@DU?$char_traits@D@std@@V?$allocator@D@2@@std@@@2@V?$allocator@U?$pair@$$CBV?$basic_string@DU?$char_traits@D@std@@V?$allocator@D@2@@std@@PAVObj@@@std@@@2@$0A@@std@@@std@@QAEPAU?$_Tree_node@U?$pair@$$CBV?$basic_string@DU?$char_traits@D@std@@V?$allocator@D@2@@std@@PAVObj@@@std@@PAX@1@AAU?$pair@$$CBV?$basic_string@DU?$char_traits@D@std@@V?$allocator@D@2@@std@@PAVObj@@@1@@Z 0040e9b0 f i parse.obj
 0001:0000da60       ??$_Buynode@ABUpiecewise_construct_t@std@@V?$tuple@ABV?$basic_string@DU?$char_traits@D@std@@V?$allocator@D@2@@std@@@2@V?$tuple@$$V@2@@?$_Tree_comp_alloc@V?$_Tmap_traits@V?$basic_string@DU?$char_traits@D@std@@V?$allocator@D@2@@std@@PAVObj@@U?$less@V?$basic_string@DU?$char_traits@D@std@@V?$allocator@D@2@@std@@@2@V?$allocator@U?$pair@$$CBV?$basic_string@DU?$char_traits@D@std@@V?$allocator@D@2@@std@@PAVObj@@@std@@@2@$0A@@std@@@std@@QAEPAU?$_Tree_node@U?$pair@$$CBV?$basic_string@DU?$char_traits@D@std@@V?$allocator@D@2@@std@@PAVObj@@@std@@PAX@1@ABUpiecewise_construct_t@1@$$QAV?$tuple@ABV?$basic_string@DU?$char_traits@D@std@@V?$allocator@D@2@@std@@@1@$$QAV?$tuple@$$V@1@@Z 0040ea60 f i parse.obj
 0001:0000db10       ??$_Copy@U_Copy_tag@?$_Tree@V?$_Tmap_traits@V?$basic_string@DU?$char_traits@D@std@@V?$allocator@D@2@@std@@PAVObj@@U?$less@V?$basic_string@DU?$char_traits@D@std@@V?$allocator@D@2@@std@@@2@V?$allocator@U?$pair@$$CBV?$basic_string@DU?$char_traits@D@std@@V?$allocator@D@2@@std@@PAVObj@@@std@@@2@$0A@@std@@@std@@@?$_Tree@V?$_Tmap_traits@V?$basic_string@DU?$char_traits@D@std@@V?$allocator@D@2@@std@@PAVObj@@U?$less@V?$basic_string@DU?$char_traits@D@std@@V?$allocator@D@2@@std@@@2@V?$allocator@U?$pair@$$CBV?$basic_string@DU?$char_traits@D@std@@V?$allocator@D@2@@std@@PAVObj@@@std@@@2@$0A@@std@@@std@@IAEXABV01@U_Copy_tag@01@@Z 0040eb10 f i parse.obj
 0001:0000db90       ??$_Copy_nodes@U_Copy_tag@?$_Tree@V?$_Tmap_traits@V?$basic_string@DU?$char_traits@D@std@@V?$allocator@D@2@@std@@PAVObj@@U?$less@V?$basic_string@DU?$char_traits@D@std@@V?$allocator@D@2@@std@@@2@V?$allocator@U?$pair@$$CBV?$basic_string@DU?$char_traits@D@std@@V?$allocator@D@2@@std@@PAVObj@@@std@@@2@$0A@@std@@@std@@@?$_Tree@V?$_Tmap_traits@V?$basic_string@DU?$char_traits@D@std@@V?$allocator@D@2@@std@@PAVObj@@U?$less@V?$basic_string@DU?$char_traits@D@std@@V?$allocator@D@2@@std@@@2@V?$allocator@U?$pair@$$CBV?$basic_string@DU?$char_traits@D@std@@V?$allocator@D@2@@std@@PAVObj@@@std@@@2@$0A@@std@@@std@@IAEPAU?$_Tree_node@U?$pair@$$CBV?$basic_string@DU?$char_traits@D@std@@V?$allocator@D@2@@std@@PAVObj@@@std@@PAX@1@PAU21@0U_Copy_tag@01@@Z 0040eb90 f i parse.obj
 0001:0000dc50       ??$_Insert_at@AAU?$pair@$$CBV?$basic_string@DU?$char_traits@D@std@@V?$allocator@D@2@@std@@PAVObj@@@std@@PAU?$_Tree_node@U?$pair@$$CBV?$basic_string@DU?$char_traits@D@std@@V?$allocator@D@2@@std@@PAVObj@@@std@@PAX@2@@?$_Tree@V?$_Tmap_traits@V?$basic_string@DU?$char_traits@D@std@@V?$allocator@D@2@@std@@PAVObj@@U?$less@V?$basic_string@DU?$char_traits@D@std@@V?$allocator@D@2@@std@@@2@V?$allocator@U?$pair@$$CBV?$basic_string@DU?$char_traits@D@std@@V?$allocator@D@2@@std@@PAVObj@@@std@@@2@$0A@@std@@@std@@IAE?AV?$_Tree_iterator@V?$_Tree_val@U?$_Tree_simple_types@U?$pair@$$CBV?$basic_string@DU?$char_traits@D@std@@V?$allocator@D@2@@std@@PAVObj@@@std@@@std@@@std@@@1@_NPAU?$_Tree_node@U?$pair@$$CBV?$basic_string@DU?$char_traits@D@std@@V?$allocator@D@2@@std@@PAVObj@@@std@@PAX@1@AAU?$pair@$$CBV?$basic_string@DU?$char_traits@D@std@@V?$allocator@D@2@@std@@PAVObj@@@1@1@Z 0040ec50 f i parse.obj
 0001:0000ddf0       ??$_Insert_hint@AAU?$pair@$$CBV?$basic_string@DU?$char_traits@D@std@@V?$allocator@D@2@@std@@PAVObj@@@std@@PAU?$_Tree_node@U?$pair@$$CBV?$basic_string@DU?$char_traits@D@std@@V?$allocator@D@2@@std@@PAVObj@@@std@@PAX@2@@?$_Tree@V?$_Tmap_traits@V?$basic_string@DU?$char_traits@D@std@@V?$allocator@D@2@@std@@PAVObj@@U?$less@V?$basic_string@DU?$char_traits@D@std@@V?$allocator@D@2@@std@@@2@V?$allocator@U?$pair@$$CBV?$basic_string@DU?$char_traits@D@std@@V?$allocator@D@2@@std@@PAVObj@@@std@@@2@$0A@@std@@@std@@IAE?AV?$_Tree_iterator@V?$_Tree_val@U?$_Tree_simple_types@U?$pair@$$CBV?$basic_string@DU?$char_traits@D@std@@V?$allocator@D@2@@std@@PAVObj@@@std@@@std@@@std@@@1@V?$_Tree_const_iterator@V?$_Tree_val@U?$_Tree_simple_types@U?$pair@$$CBV?$basic_string@DU?$char_traits@D@std@@V?$allocator@D@2@@std@@PAVObj@@@std@@@std@@@std@@@1@AAU?$pair@$$CBV?$basic_string@DU?$char_traits@D@std@@V?$allocator@D@2@@std@@PAVObj@@@1@PAU?$_Tree_node@U?$pair@$$CBV?$basic_string@DU?$char_traits@D@std@@V?$allocator@D@2@@std@@PAVObj@@@std@@PAX@1@@Z 0040edf0 f i parse.obj
 0001:0000e070       ??$_Insert_nohint@AAU?$pair@$$CBV?$basic_string@DU?$char_traits@D@std@@V?$allocator@D@2@@std@@PAVObj@@@std@@PAU?$_Tree_node@U?$pair@$$CBV?$basic_string@DU?$char_traits@D@std@@V?$allocator@D@2@@std@@PAVObj@@@std@@PAX@2@@?$_Tree@V?$_Tmap_traits@V?$basic_string@DU?$char_traits@D@std@@V?$allocator@D@2@@std@@PAVObj@@U?$less@V?$basic_string@DU?$char_traits@D@std@@V?$allocator@D@2@@std@@@2@V?$allocator@U?$pair@$$CBV?$basic_string@DU?$char_traits@D@std@@V?$allocator@D@2@@std@@PAVObj@@@std@@@2@$0A@@std@@@std@@IAE?AU?$pair@V?$_Tree_iterator@V?$_Tree_val@U?$_Tree_simple_types@U?$pair@$$CBV?$basic_string@DU?$char_traits@D@std@@V?$allocator@D@2@@std@@PAVObj@@@std@@@std@@@std@@@std@@_N@1@_NAAU?$pair@$$CBV?$basic_string@DU?$char_traits@D@std@@V?$allocator@D@2@@std@@PAVObj@@@1@PAU?$_Tree_node@U?$pair@$$CBV?$basic_string@DU?$char_traits@D@std@@V?$allocator@D@2@@std@@PAVObj@@@std@@PAX@1@@Z 0040f070 f i parse.obj
 0001:0000e330       ??$_Insert_string@DU?$char_traits@D@std@@I@std@@YAAAV?$basic_ostream@DU?$char_traits@D@std@@@0@AAV10@QBDI@Z 0040f330 f i parse.obj
 0001:0000e520       ??$_Lbound@V?$basic_string@DU?$char_traits@D@std@@V?$allocator@D@2@@std@@@?$_Tree@V?$_Tmap_traits@V?$basic_string@DU?$char_traits@D@std@@V?$allocator@D@2@@std@@PAVObj@@U?$less@V?$basic_string@DU?$char_traits@D@std@@V?$allocator@D@2@@std@@@2@V?$allocator@U?$pair@$$CBV?$basic_string@DU?$char_traits@D@std@@V?$allocator@D@2@@std@@PAVObj@@@std@@@2@$0A@@std@@@std@@IBEPAU?$_Tree_node@U?$pair@$$CBV?$basic_string@DU?$char_traits@D@std@@V?$allocator@D@2@@std@@PAVObj@@@std@@PAX@1@ABV?$basic_string@DU?$char_traits@D@std@@V?$allocator@D@2@@1@@Z 0040f520 f i parse.obj
 0001:0000e5f0       ??$_Traits_compare@U?$char_traits@D@std@@@std@@YAHQBDI0I@Z 0040f5f0 f i parse.obj
 0001:0000e680       ??$_Traits_equal@U?$char_traits@D@std@@@std@@YA_NQBDI0I@Z 0040f680 f i parse.obj
 0001:0000e6f0       ??$emplace_back@PAVObj@@@?$vector@PAVObj@@V?$allocator@PAVObj@@@std@@@std@@QAEX$$QAPAVObj@@@Z 0040f6f0 f i parse.obj
 0001:0000e7c0       ??0?$basic_string@DU?$char_traits@D@std@@V?$allocator@D@2@@std@@QAE@QBD@Z 0040f7c0 f i parse.obj
 0001:0000e800       ??0?$vector@PAVObj@@V?$allocator@PAVObj@@@std@@@std@@QAE@ABV01@@Z 0040f800 f i parse.obj
 0001:0000e890       ??0Exception@@QAE@ABV0@@Z  0040f890 f i parse.obj
 0001:0000e8c0       ??0IdObj@@QAE@ABV?$basic_string@DU?$char_traits@D@std@@V?$allocator@D@2@@std@@@Z 0040f8c0 f i parse.obj
 0001:0000e930       ??0NamedObj@@QAE@ABV?$basic_string@DU?$char_traits@D@std@@V?$allocator@D@2@@std@@PAVObj@@@Z 0040f930 f i parse.obj
 0001:0000e9a0       ??0ObjTypeMismatch@@QAE@ABV0@@Z 0040f9a0 f i parse.obj
 0001:0000e9d0       ??0ObjTypeMismatch@@QAE@V?$basic_string@DU?$char_traits@D@std@@V?$allocator@D@2@@std@@0@Z 0040f9d0 f i parse.obj
 0001:0000ec80       ??0ParseError@@QAE@ABV0@@Z 0040fc80 f i parse.obj
 0001:0000ecb0       ??0ParseError@@QAE@ABV?$basic_string@DU?$char_traits@D@std@@V?$allocator@D@2@@std@@@Z 0040fcb0 f i parse.obj
 0001:0000ece0       ??1?$_Tree_comp_alloc@V?$_Tmap_traits@V?$basic_string@DU?$char_traits@D@std@@V?$allocator@D@2@@std@@PAVObj@@U?$less@V?$basic_string@DU?$char_traits@D@std@@V?$allocator@D@2@@std@@@2@V?$allocator@U?$pair@$$CBV?$basic_string@DU?$char_traits@D@std@@V?$allocator@D@2@@std@@PAVObj@@@std@@@2@$0A@@std@@@std@@QAE@XZ 0040fce0 f i parse.obj
 0001:0000ecf0       ??1?$map@V?$basic_string@DU?$char_traits@D@std@@V?$allocator@D@2@@std@@PAVObj@@U?$less@V?$basic_string@DU?$char_traits@D@std@@V?$allocator@D@2@@std@@@2@V?$allocator@U?$pair@$$CBV?$basic_string@DU?$char_traits@D@std@@V?$allocator@D@2@@std@@PAVObj@@@std@@@2@@std@@QAE@XZ 0040fcf0 f i parse.obj
 0001:0000ed50       ??1?$vector@PAVObj@@V?$allocator@PAVObj@@@std@@@std@@QAE@XZ 0040fd50 f i parse.obj
 0001:0000ed90       ??1BooleanObj@@UAE@XZ      0040fd90 f i parse.obj
 0001:0000eda0       ??1DictObj@@UAE@XZ         0040fda0 f i parse.obj
 0001:0000ee70       ??1IdObj@@UAE@XZ           0040fe70 f i parse.obj
 0001:0000eeb0       ??1NamedObj@@UAE@XZ        0040feb0 f i parse.obj
 0001:0000ef00       ??1Obj@@UAE@XZ             0040ff00 f i parse.obj
 0001:0000ef10       ??1ObjTypeMismatch@@QAE@XZ 0040ff10 f i parse.obj
 0001:0000ef40       ??1ParseError@@QAE@XZ      0040ff40 f i parse.obj
 0001:0000ef70       ??1ScalarObj@@UAE@XZ       0040ff70 f i parse.obj
 0001:0000ef80       ??1StringObj@@UAE@XZ       0040ff80 f i parse.obj
 0001:0000efc0       ??1TupleObj@@UAE@XZ        0040ffc0 f i parse.obj
 0001:0000f070       ??1_Sentry_base@?$basic_ostream@DU?$char_traits@D@std@@@std@@QAE@XZ 00410070 f i parse.obj
 0001:0000f0c0       ??1sentry@?$basic_ostream@DU?$char_traits@D@std@@@std@@QAE@XZ 004100c0 f i parse.obj
 0001:0000f130       ??E?$_Tree_unchecked_const_iterator@V?$_Tree_val@U?$_Tree_simple_types@U?$pair@$$CBV?$basic_string@DU?$char_traits@D@std@@V?$allocator@D@2@@std@@PAVObj@@@std@@@std@@@std@@U_Iterator_base0@2@@std@@QAEAAV01@XZ 00410130 f i parse.obj
 0001:0000f180       ??F?$_Tree_unchecked_const_iterator@V?$_Tree_val@U?$_Tree_simple_types@U?$pair@$$CBV?$basic_string@DU?$char_traits@D@std@@V?$allocator@D@2@@std@@PAVObj@@@std@@@std@@@std@@U_Iterator_base0@2@@std@@QAEAAV01@XZ 00410180 f i parse.obj
 0001:0000f1e0       ??R?$less@V?$basic_string@DU?$char_traits@D@std@@V?$allocator@D@2@@std@@@std@@QBE_NABV?$basic_string@DU?$char_traits@D@std@@V?$allocator@D@2@@1@0@Z 004101e0 f i parse.obj
 0001:0000f220       ??_GBooleanObj@@UAEPAXI@Z  00410220 f i parse.obj
 0001:0000f220       ??_EBooleanObj@@UAEPAXI@Z  00410220 f i parse.obj
 0001:0000f250       ??_GDictObj@@UAEPAXI@Z     00410250 f i parse.obj
 0001:0000f250       ??_EDictObj@@UAEPAXI@Z     00410250 f i parse.obj
 0001:0000f280       ??_EIdObj@@UAEPAXI@Z       00410280 f i parse.obj
 0001:0000f280       ??_GIdObj@@UAEPAXI@Z       00410280 f i parse.obj
 0001:0000f2e0       ??_ENamedObj@@UAEPAXI@Z    004102e0 f i parse.obj
 0001:0000f2e0       ??_GNamedObj@@UAEPAXI@Z    004102e0 f i parse.obj
 0001:0000f340       ??_EObj@@UAEPAXI@Z         00410340 f i parse.obj
 0001:0000f340       ??_GObj@@UAEPAXI@Z         00410340 f i parse.obj
 0001:0000f370       ??_EScalarObj@@UAEPAXI@Z   00410370 f i parse.obj
 0001:0000f370       ??_GScalarObj@@UAEPAXI@Z   00410370 f i parse.obj
 0001:0000f3a0       ??_GStringObj@@UAEPAXI@Z   004103a0 f i parse.obj
 0001:0000f3a0       ??_EStringObj@@UAEPAXI@Z   004103a0 f i parse.obj
 0001:0000f400       ??_ETupleObj@@UAEPAXI@Z    00410400 f i parse.obj
 0001:0000f400       ??_GTupleObj@@UAEPAXI@Z    00410400 f i parse.obj
 0001:0000f430       ?_Buyheadnode@?$_Tree_comp_alloc@V?$_Tmap_traits@V?$basic_string@DU?$char_traits@D@std@@V?$allocator@D@2@@std@@PAVObj@@U?$less@V?$basic_string@DU?$char_traits@D@std@@V?$allocator@D@2@@std@@@2@V?$allocator@U?$pair@$$CBV?$basic_string@DU?$char_traits@D@std@@V?$allocator@D@2@@std@@PAVObj@@@std@@@2@$0A@@std@@@std@@QAEPAU?$_Tree_node@U?$pair@$$CBV?$basic_string@DU?$char_traits@D@std@@V?$allocator@D@2@@std@@PAVObj@@@std@@PAX@2@XZ 00410430 f i parse.obj
 0001:0000f460       ?_Buynode0@?$_Tree_comp_alloc@V?$_Tmap_traits@V?$basic_string@DU?$char_traits@D@std@@V?$allocator@D@2@@std@@PAVObj@@U?$less@V?$basic_string@DU?$char_traits@D@std@@V?$allocator@D@2@@std@@@2@V?$allocator@U?$pair@$$CBV?$basic_string@DU?$char_traits@D@std@@V?$allocator@D@2@@std@@PAVObj@@@std@@@2@$0A@@std@@@std@@QAEPAU?$_Tree_node@U?$pair@$$CBV?$basic_string@DU?$char_traits@D@std@@V?$allocator@D@2@@std@@PAVObj@@@std@@PAX@2@XZ 00410460 f i parse.obj
 0001:0000f4a0       ?_Destroy_if_not_nil@?$_Tree@V?$_Tmap_traits@V?$basic_string@DU?$char_traits@D@std@@V?$allocator@D@2@@std@@PAVObj@@U?$less@V?$basic_string@DU?$char_traits@D@std@@V?$allocator@D@2@@std@@@2@V?$allocator@U?$pair@$$CBV?$basic_string@DU?$char_traits@D@std@@V?$allocator@D@2@@std@@PAVObj@@@std@@@2@$0A@@std@@@std@@IAEXPAU?$_Tree_node@U?$pair@$$CBV?$basic_string@DU?$char_traits@D@std@@V?$allocator@D@2@@std@@PAVObj@@@std@@PAX@2@@Z 004104a0 f i parse.obj
 0001:0000f4f0       ?_Erase@?$_Tree@V?$_Tmap_traits@V?$basic_string@DU?$char_traits@D@std@@V?$allocator@D@2@@std@@PAVObj@@U?$less@V?$basic_string@DU?$char_traits@D@std@@V?$allocator@D@2@@std@@@2@V?$allocator@U?$pair@$$CBV?$basic_string@DU?$char_traits@D@std@@V?$allocator@D@2@@std@@PAVObj@@@std@@@2@$0A@@std@@@std@@IAEXPAU?$_Tree_node@U?$pair@$$CBV?$basic_string@DU?$char_traits@D@std@@V?$allocator@D@2@@std@@PAVObj@@@std@@PAX@2@@Z 004104f0 f i parse.obj
 0001:0000f580       ?_Freenode0@?$_Tree_comp_alloc@V?$_Tmap_traits@V?$basic_string@DU?$char_traits@D@std@@V?$allocator@D@2@@std@@PAVObj@@U?$less@V?$basic_string@DU?$char_traits@D@std@@V?$allocator@D@2@@std@@@2@V?$allocator@U?$pair@$$CBV?$basic_string@DU?$char_traits@D@std@@V?$allocator@D@2@@std@@PAVObj@@@std@@@2@$0A@@std@@@std@@QAEXPAU?$_Tree_node@U?$pair@$$CBV?$basic_string@DU?$char_traits@D@std@@V?$allocator@D@2@@std@@PAVObj@@@std@@PAX@2@@Z 00410580 f i parse.obj
 0001:0000f5a0       ?_Lrotate@?$_Tree@V?$_Tmap_traits@V?$basic_string@DU?$char_traits@D@std@@V?$allocator@D@2@@std@@PAVObj@@U?$less@V?$basic_string@DU?$char_traits@D@std@@V?$allocator@D@2@@std@@@2@V?$allocator@U?$pair@$$CBV?$basic_string@DU?$char_traits@D@std@@V?$allocator@D@2@@std@@PAVObj@@@std@@@2@$0A@@std@@@std@@IAEXPAU?$_Tree_node@U?$pair@$$CBV?$basic_string@DU?$char_traits@D@std@@V?$allocator@D@2@@std@@PAVObj@@@std@@PAX@2@@Z 004105a0 f i parse.obj
 0001:0000f600       ?_Rrotate@?$_Tree@V?$_Tmap_traits@V?$basic_string@DU?$char_traits@D@std@@V?$allocator@D@2@@std@@PAVObj@@U?$less@V?$basic_string@DU?$char_traits@D@std@@V?$allocator@D@2@@std@@@2@V?$allocator@U?$pair@$$CBV?$basic_string@DU?$char_traits@D@std@@V?$allocator@D@2@@std@@PAVObj@@@std@@@2@$0A@@std@@@std@@IAEXPAU?$_Tree_node@U?$pair@$$CBV?$basic_string@DU?$char_traits@D@std@@V?$allocator@D@2@@std@@PAVObj@@@std@@PAX@2@@Z 00410600 f i parse.obj
 0001:0000f660       ?_Tidy@?$_Tree@V?$_Tmap_traits@V?$basic_string@DU?$char_traits@D@std@@V?$allocator@D@2@@std@@PAVObj@@U?$less@V?$basic_string@DU?$char_traits@D@std@@V?$allocator@D@2@@std@@@2@V?$allocator@U?$pair@$$CBV?$basic_string@DU?$char_traits@D@std@@V?$allocator@D@2@@std@@PAVObj@@@std@@@2@$0A@@std@@@std@@IAEXXZ 00410660 f i parse.obj
 0001:0000f680       ?_Xlength@?$vector@PAVObj@@V?$allocator@PAVObj@@@std@@@std@@CAXXZ 00410680 f i parse.obj
 0001:0000f690       ?allocate@?$allocator@PAVObj@@@std@@QAEPAPAVObj@@I@Z 00410690 f i parse.obj
 0001:0000f8e0       ?erase@?$_Tree@V?$_Tmap_traits@V?$basic_string@DU?$char_traits@D@std@@V?$allocator@D@2@@std@@PAVObj@@U?$less@V?$basic_string@DU?$char_traits@D@std@@V?$allocator@D@2@@std@@@2@V?$allocator@U?$pair@$$CBV?$basic_string@DU?$char_traits@D@std@@V?$allocator@D@2@@std@@PAVObj@@@std@@@2@$0A@@std@@@std@@QAE?AV?$_Tree_iterator@V?$_Tree_val@U?$_Tree_simple_types@U?$pair@$$CBV?$basic_string@DU?$char_traits@D@std@@V?$allocator@D@2@@std@@PAVObj@@@std@@@std@@@std@@@2@V?$_Tree_const_iterator@V?$_Tree_val@U?$_Tree_simple_types@U?$pair@$$CBV?$basic_string@DU?$char_traits@D@std@@V?$allocator@D@2@@std@@PAVObj@@@std@@@std@@@std@@@2@0@Z 004108e0 f i parse.obj
 0001:0000f9d0       ?erase@?$_Tree@V?$_Tmap_traits@V?$basic_string@DU?$char_traits@D@std@@V?$allocator@D@2@@std@@PAVObj@@U?$less@V?$basic_string@DU?$char_traits@D@std@@V?$allocator@D@2@@std@@@2@V?$allocator@U?$pair@$$CBV?$basic_string@DU?$char_traits@D@std@@V?$allocator@D@2@@std@@PAVObj@@@std@@@2@$0A@@std@@@std@@QAE?AV?$_Tree_iterator@V?$_Tree_val@U?$_Tree_simple_types@U?$pair@$$CBV?$basic_string@DU?$char_traits@D@std@@V?$allocator@D@2@@std@@PAVObj@@@std@@@std@@@std@@@2@V?$_Tree_const_iterator@V?$_Tree_val@U?$_Tree_simple_types@U?$pair@$$CBV?$basic_string@DU?$char_traits@D@std@@V?$allocator@D@2@@std@@PAVObj@@@std@@@std@@@std@@@2@@Z 004109d0 f i parse.obj
 0001:0000fcc0       ?getBoolean@BooleanObj@@UBE_NXZ 00410cc0 f i parse.obj
 0001:0000fcd0       ?getBoolean@Obj@@UBE_NXZ   00410cd0 f i parse.obj
 0001:0000fd40       ?getChild@NamedObj@@UBEPAVObj@@XZ 00410d40 f i parse.obj
 0001:0000fd50       ?getChild@Obj@@UBEPAV1@XZ  00410d50 f i parse.obj
 0001:0000fdc0       ?getDict@DictObj@@UBEABV?$map@V?$basic_string@DU?$char_traits@D@std@@V?$allocator@D@2@@std@@PAVObj@@U?$less@V?$basic_string@DU?$char_traits@D@std@@V?$allocator@D@2@@std@@@2@V?$allocator@U?$pair@$$CBV?$basic_string@DU?$char_traits@D@std@@V?$allocator@D@2@@std@@PAVObj@@@std@@@2@@std@@XZ 00410dc0 f i parse.obj
 0001:0000fdd0       ?getDict@Obj@@UBEABV?$map@V?$basic_string@DU?$char_traits@D@std@@V?$allocator@D@2@@std@@PAVObj@@U?$less@V?$basic_string@DU?$char_traits@D@std@@V?$allocator@D@2@@std@@@2@V?$allocator@U?$pair@$$CBV?$basic_string@DU?$char_traits@D@std@@V?$allocator@D@2@@std@@PAVObj@@@std@@@2@@std@@XZ 00410dd0 f i parse.obj
 0001:0000fe40       ?getID@IdObj@@UBE?AV?$basic_string@DU?$char_traits@D@std@@V?$allocator@D@2@@std@@XZ 00410e40 f i parse.obj
 0001:0000fe80       ?getID@Obj@@UBE?AV?$basic_string@DU?$char_traits@D@std@@V?$allocator@D@2@@std@@XZ 00410e80 f i parse.obj
 0001:0000fef0       ?getName@NamedObj@@UBE?AV?$basic_string@DU?$char_traits@D@std@@V?$allocator@D@2@@std@@XZ 00410ef0 f i parse.obj
 0001:0000ff30       ?getName@Obj@@UBE?AV?$basic_string@DU?$char_traits@D@std@@V?$allocator@D@2@@std@@XZ 00410f30 f i parse.obj
 0001:0000ffa0       ?getScalar@Obj@@UBENXZ     00410fa0 f i parse.obj
 0001:00010010       ?getScalar@ScalarObj@@UBENXZ 00411010 f i parse.obj
 0001:00010020       ?getString@Obj@@UBE?AV?$basic_string@DU?$char_traits@D@std@@V?$allocator@D@2@@std@@XZ 00411020 f i parse.obj
 0001:00010090       ?getString@StringObj@@UBE?AV?$basic_string@DU?$char_traits@D@std@@V?$allocator@D@2@@std@@XZ 00411090 f i parse.obj
 0001:000100d0       ?getTuple@Obj@@UBEABV?$vector@PAVObj@@V?$allocator@PAVObj@@@std@@@std@@XZ 004110d0 f i parse.obj
 0001:00010140       ?getTuple@TupleObj@@UBEABV?$vector@PAVObj@@V?$allocator@PAVObj@@@std@@@std@@XZ 00411140 f i parse.obj
 0001:00010150       ?getTypeName@BooleanObj@@UBE?AV?$basic_string@DU?$char_traits@D@std@@V?$allocator@D@2@@std@@XZ 00411150 f i parse.obj
 0001:00010190       ?getTypeName@DictObj@@UBE?AV?$basic_string@DU?$char_traits@D@std@@V?$allocator@D@2@@std@@XZ 00411190 f i parse.obj
 0001:000101d0       ?getTypeName@IdObj@@UBE?AV?$basic_string@DU?$char_traits@D@std@@V?$allocator@D@2@@std@@XZ 004111d0 f i parse.obj
 0001:00010210       ?getTypeName@NamedObj@@UBE?AV?$basic_string@DU?$char_traits@D@std@@V?$allocator@D@2@@std@@XZ 00411210 f i parse.obj
 0001:00010250       ?getTypeName@Obj@@UBE?AV?$basic_string@DU?$char_traits@D@std@@V?$allocator@D@2@@std@@XZ 00411250 f i parse.obj
 0001:00010290       ?getTypeName@ScalarObj@@UBE?AV?$basic_string@DU?$char_traits@D@std@@V?$allocator@D@2@@std@@XZ 00411290 f i parse.obj
 0001:000102d0       ?getTypeName@StringObj@@UBE?AV?$basic_string@DU?$char_traits@D@std@@V?$allocator@D@2@@std@@XZ 004112d0 f i parse.obj
 0001:00010310       ?getTypeName@TupleObj@@UBE?AV?$basic_string@DU?$char_traits@D@std@@V?$allocator@D@2@@std@@XZ 00411310 f i parse.obj
 0001:00010350       ?insert@?$basic_string@DU?$char_traits@D@std@@V?$allocator@D@2@@std@@QAEAAV12@IABV12@II@Z 00411350 f i parse.obj
 0001:000104c0       ?printOn@BooleanObj@@UBEXAAV?$basic_ostream@DU?$char_traits@D@std@@@std@@@Z 004114c0 f i parse.obj
 0001:000104f0       ?printOn@DictObj@@UBEXAAV?$basic_ostream@DU?$char_traits@D@std@@@std@@@Z 004114f0 f i parse.obj
 0001:000105d0       ?printOn@IdObj@@UBEXAAV?$basic_ostream@DU?$char_traits@D@std@@@std@@@Z 004115d0 f i parse.obj
 0001:00010600       ?printOn@NamedObj@@UBEXAAV?$basic_ostream@DU?$char_traits@D@std@@@std@@@Z 00411600 f i parse.obj
 0001:00010640       ?printOn@Obj@@UBEXAAV?$basic_ostream@DU?$char_traits@D@std@@@std@@@Z 00411640 f i parse.obj
 0001:00010650       ?printOn@ScalarObj@@UBEXAAV?$basic_ostream@DU?$char_traits@D@std@@@std@@@Z 00411650 f i parse.obj
 0001:00010670       ?printOn@StringObj@@UBEXAAV?$basic_ostream@DU?$char_traits@D@std@@@std@@@Z 00411670 f i parse.obj
 0001:000106b0       ?printOn@TupleObj@@UBEXAAV?$basic_ostream@DU?$char_traits@D@std@@@std@@@Z 004116b0 f i parse.obj
 0001:00010ae0       ?readFile@@YAPAVObj@@AAV?$basic_istream@DU?$char_traits@D@std@@@std@@@Z 00411ae0 f   parse.obj
 0001:00011250       ??$?8DU?$char_traits@D@std@@V?$allocator@D@1@@std@@YA_NABV?$basic_string@DU?$char_traits@D@std@@V?$allocator@D@2@@0@QBD@Z 00412250 f i read.obj
 0001:00011290       ??$?HDU?$char_traits@D@std@@V?$allocator@D@1@@std@@YA?AV?$basic_string@DU?$char_traits@D@std@@V?$allocator@D@2@@0@$$QAV10@QBD@Z 00412290 f i read.obj
 0001:000112f0       ??$_Buynode@ABQAVGeometry@@@?$_List_buy@PAVGeometry@@V?$allocator@PAVGeometry@@@std@@@std@@QAEPAU?$_List_node@PAVGeometry@@PAX@1@PAU21@0ABQAVGeometry@@@Z 004122f0 f i read.obj
 0001:00011310       ??$_Buynode@ABQAVLight@@@?$_List_buy@PAVLight@@V?$allocator@PAVLight@@@std@@@std@@QAEPAU?$_List_node@PAVLight@@PAX@1@PAU21@0ABQAVLight@@@Z 00412310 f i read.obj
 0001:00011330       ??$_Buynode@ABQAVTransformNode@@@?$_List_buy@PAVTransformNode@@V?$allocator@PAVTransformNode@@@std@@@std@@QAEPAU?$_List_node@PAVTransformNode@@PAX@1@PAU21@0ABQAVTransformNode@@@Z 00412330 f i read.obj
 0001:00011350       ??$_Buynode@ABUpiecewise_construct_t@std@@V?$tuple@ABV?$basic_string@DU?$char_traits@D@std@@V?$allocator@D@2@@std@@@2@V?$tuple@$$V@2@@?$_Tree_comp_alloc@V?$_Tmap_traits@V?$basic_string@DU?$char_traits@D@std@@V?$allocator@D@2@@std@@PAVMaterial@@U?$less@V?$basic_string@DU?$char_traits@D@std@@V?$allocator@D@2@@std@@@2@V?$allocator@U?$pair@$$CBV?$basic_string@DU?$char_traits@D@std@@V?$allocator@D@2@@std@@PAVMaterial@@@std@@@2@$0A@@std@@@std@@QAEPAU?$_Tree_node@U?$pair@$$CBV?$basic_string@DU?$char_traits@D@std@@V?$allocator@D@2@@std@@PAVMaterial@@@std@@PAX@1@ABUpiecewise_construct_t@1@$$QAV?$tuple@ABV?$basic_string@DU?$char_traits@D@std@@V?$allocator@D@2@@std@@@1@$$QAV?$tuple@$$V@1@@Z 00412350 f i read.obj
 0001:00011400       ??$_Insert_at@AAU?$pair@$$CBV?$basic_string@DU?$char_traits@D@std@@V?$allocator@D@2@@std@@PAVMaterial@@@std@@PAU?$_Tree_node@U?$pair@$$CBV?$basic_string@DU?$char_traits@D@std@@V?$allocator@D@2@@std@@PAVMaterial@@@std@@PAX@2@@?$_Tree@V?$_Tmap_traits@V?$basic_string@DU?$char_traits@D@std@@V?$allocator@D@2@@std@@PAVMaterial@@U?$less@V?$basic_string@DU?$char_traits@D@std@@V?$allocator@D@2@@std@@@2@V?$allocator@U?$pair@$$CBV?$basic_string@DU?$char_traits@D@std@@V?$allocator@D@2@@std@@PAVMaterial@@@std@@@2@$0A@@std@@@std@@IAE?AV?$_Tree_iterator@V?$_Tree_val@U?$_Tree_simple_types@U?$pair@$$CBV?$basic_string@DU?$char_traits@D@std@@V?$allocator@D@2@@std@@PAVMaterial@@@std@@@std@@@std@@@1@_NPAU?$_Tree_node@U?$pair@$$CBV?$basic_string@DU?$char_traits@D@std@@V?$allocator@D@2@@std@@PAVMaterial@@@std@@PAX@1@AAU?$pair@$$CBV?$basic_string@DU?$char_traits@D@std@@V?$allocator@D@2@@std@@PAVMaterial@@@1@1@Z 00412400 f i read.obj
 0001:000115a0       ??$_Insert_hint@AAU?$pair@$$CBV?$basic_string@DU?$char_traits@D@std@@V?$allocator@D@2@@std@@PAVMaterial@@@std@@PAU?$_Tree_node@U?$pair@$$CBV?$basic_string@DU?$char_traits@D@std@@V?$allocator@D@2@@std@@PAVMaterial@@@std@@PAX@2@@?$_Tree@V?$_Tmap_traits@V?$basic_string@DU?$char_traits@D@std@@V?$allocator@D@2@@std@@PAVMaterial@@U?$less@V?$basic_string@DU?$char_traits@D@std@@V?$allocator@D@2@@std@@@2@V?$allocator@U?$pair@$$CBV?$basic_string@DU?$char_traits@D@std@@V?$allocator@D@2@@std@@PAVMaterial@@@std@@@2@$0A@@std@@@std@@IAE?AV?$_Tree_iterator@V?$_Tree_val@U?$_Tree_simple_types@U?$pair@$$CBV?$basic_string@DU?$char_traits@D@std@@V?$allocator@D@2@@std@@PAVMaterial@@@std@@@std@@@std@@@1@V?$_Tree_const_iterator@V?$_Tree_val@U?$_Tree_simple_types@U?$pair@$$CBV?$basic_string@DU?$char_traits@D@std@@V?$allocator@D@2@@std@@PAVMaterial@@@std@@@std@@@std@@@1@AAU?$pair@$$CBV?$basic_string@DU?$char_traits@D@std@@V?$allocator@D@2@@std@@PAVMaterial@@@1@PAU?$_Tree_node@U?$pair@$$CBV?$basic_string@DU?$char_traits@D@std@@V?$allocator@D@2@@std@@PAVMaterial@@@std@@PAX@1@@Z 004125a0 f i read.obj
 0001:00011820       ??$_Insert_nohint@AAU?$pair@$$CBV?$basic_string@DU?$char_traits@D@std@@V?$allocator@D@2@@std@@PAVMaterial@@@std@@PAU?$_Tree_node@U?$pair@$$CBV?$basic_string@DU?$char_traits@D@std@@V?$allocator@D@2@@std@@PAVMaterial@@@std@@PAX@2@@?$_Tree@V?$_Tmap_traits@V?$basic_string@DU?$char_traits@D@std@@V?$allocator@D@2@@std@@PAVMaterial@@U?$less@V?$basic_string@DU?$char_traits@D@std@@V?$allocator@D@2@@std@@@2@V?$allocator@U?$pair@$$CBV?$basic_string@DU?$char_traits@D@std@@V?$allocator@D@2@@std@@PAVMaterial@@@std@@@2@$0A@@std@@@std@@IAE?AU?$pair@V?$_Tree_iterator@V?$_Tree_val@U?$_Tree_simple_types@U?$pair@$$CBV?$basic_string@DU?$char_traits@D@std@@V?$allocator@D@2@@std@@PAVMaterial@@@std@@@std@@@std@@@std@@_N@1@_NAAU?$pair@$$CBV?$basic_string@DU?$char_traits@D@std@@V?$allocator@D@2@@std@@PAVMaterial@@@1@PAU?$_Tree_node@U?$pair@$$CBV?$basic_string@DU?$char_traits@D@std@@V?$allocator@D@2@@std@@PAVMaterial@@@std@@PAX@1@@Z 00412820 f i read.obj
 0001:00011ae0       ??$_Lbound@V?$basic_string@DU?$char_traits@D@std@@V?$allocator@D@2@@std@@@?$_Tree@V?$_Tmap_traits@V?$basic_string@DU?$char_traits@D@std@@V?$allocator@D@2@@std@@PAVMaterial@@U?$less@V?$basic_string@DU?$char_traits@D@std@@V?$allocator@D@2@@std@@@2@V?$allocator@U?$pair@$$CBV?$basic_string@DU?$char_traits@D@std@@V?$allocator@D@2@@std@@PAVMaterial@@@std@@@2@$0A@@std@@@std@@IBEPAU?$_Tree_node@U?$pair@$$CBV?$basic_string@DU?$char_traits@D@std@@V?$allocator@D@2@@std@@PAVMaterial@@@std@@PAX@1@ABV?$basic_string@DU?$char_traits@D@std@@V?$allocator@D@2@@1@@Z 00412ae0 f i read.obj
 0001:00011bb0       ??$_Try_emplace@ABV?$basic_string@DU?$char_traits@D@std@@V?$allocator@D@2@@std@@$$V@?$map@V?$basic_string@DU?$char_traits@D@std@@V?$allocator@D@2@@std@@PAVMaterial@@U?$less@V?$basic_string@DU?$char_traits@D@std@@V?$allocator@D@2@@std@@@2@V?$allocator@U?$pair@$$CBV?$basic_string@DU?$char_traits@D@std@@V?$allocator@D@2@@std@@PAVMaterial@@@std@@@2@@std@@QAE?AU?$pair@V?$_Tree_iterator@V?$_Tree_val@U?$_Tree_simple_types@U?$pair@$$CBV?$basic_string@DU?$char_traits@D@std@@V?$allocator@D@2@@std@@PAVMaterial@@@std@@@std@@@std@@@std@@_N@1@ABV?$basic_string@DU?$char_traits@D@std@@V?$allocator@D@2@@1@@Z 00412bb0 f i read.obj
 0001:00011c50       ??$endl@DU?$char_traits@D@std@@@std@@YAAAV?$basic_ostream@DU?$char_traits@D@std@@@0@AAV10@@Z 00412c50 f i read.obj
 0001:00011c80       ??$ends@DU?$char_traits@D@std@@@std@@YAAAV?$basic_ostream@DU?$char_traits@D@std@@@0@AAV10@@Z 00412c80 f i read.obj
 0001:00011ca0       ??$use_facet@V?$codecvt@DDU_Mbstatet@@@std@@@std@@YAABV?$codecvt@DDU_Mbstatet@@@0@ABVlocale@0@@Z 00412ca0 f i read.obj
 0001:00011d90       ??0?$basic_ifstream@DU?$char_traits@D@std@@@std@@QAE@PBDHH@Z 00412d90 f i read.obj
 0001:00011ea0       ??0?$basic_string@DU?$char_traits@D@std@@V?$allocator@D@2@@std@@QAE@ABV01@@Z 00412ea0 f i read.obj
 0001:00011ed0       ??0?$fpos@U_Mbstatet@@@std@@QAE@U_Mbstatet@@_J@Z 00412ed0 f i read.obj
 0001:00011f00       ??0Scene@@QAE@XZ           00412f00 f i read.obj
 0001:000120d0       ??0TransformNode@@IAE@PAV0@ABVmat4f@@@Z 004130d0 f i read.obj
 0001:000124d0       ??0bad_cast@std@@QAE@ABV01@@Z 004134d0 f i read.obj
 0001:00012510       ??0bad_cast@std@@QAE@XZ    00413510 f i read.obj
 0001:00012530       ??0mat4f@@QAE@ABVvec4f@@000@Z 00413530 f i read.obj
 0001:00012600       ??0ostrstream@std@@QAE@XZ  00413600 f i read.obj
 0001:000126f0       ??0vec4f@@QAE@XZ           004136f0 f i read.obj
 0001:00012700       ??1?$basic_filebuf@DU?$char_traits@D@std@@@std@@UAE@XZ 00413700 f i read.obj
 0001:00012780       ??1?$basic_ifstream@DU?$char_traits@D@std@@@std@@UAE@XZ 00413780 f i read.obj
 0001:00012830       ??1?$list@PAVAmbientLight@@V?$allocator@PAVAmbientLight@@@std@@@std@@QAE@XZ 00413830 f i read.obj
 0001:00012880       ??1?$list@PAVGeometry@@V?$allocator@PAVGeometry@@@std@@@std@@QAE@XZ 00413880 f i read.obj
 0001:000128d0       ??1?$list@PAVLight@@V?$allocator@PAVLight@@@std@@@std@@QAE@XZ 004138d0 f i read.obj
 0001:00012920       ??1?$list@PAVTransformNode@@V?$allocator@PAVTransformNode@@@std@@@std@@QAE@XZ 00413920 f i read.obj
 0001:00012970       ??1?$map@V?$basic_string@DU?$char_traits@D@std@@V?$allocator@D@2@@std@@PAVMaterial@@U?$less@V?$basic_string@DU?$char_traits@D@std@@V?$allocator@D@2@@std@@@2@V?$allocator@U?$pair@$$CBV?$basic_string@DU?$char_traits@D@std@@V?$allocator@D@2@@std@@PAVMaterial@@@std@@@2@@std@@QAE@XZ 00413970 f i read.obj
 0001:000129d0       ??1MaterialSceneObject@@UAE@XZ 004139d0 f i read.obj
 0001:000129f0       ??1SceneElement@@UAE@XZ    004139f0 f i read.obj
 0001:00012a00       ??1TransformNode@@QAE@XZ   00413a00 f i read.obj
 0001:00012a90       ??1TransformRoot@@QAE@XZ   00413a90 f i read.obj
 0001:00012aa0       ??1bad_cast@std@@UAE@XZ    00413aa0 f i read.obj
 0001:00012ac0       ??1locale@std@@QAE@XZ      00413ac0 f i read.obj
 0001:00012b10       ??1ostrstream@std@@UAE@XZ  00413b10 f i read.obj
 0001:00012bb0       ??1strstreambuf@std@@UAE@XZ 00413bb0 f i read.obj
 0001:00012c20       ??4?$basic_string@DU?$char_traits@D@std@@V?$allocator@D@2@@std@@QAEAAV01@$$QAV01@@Z 00413c20 f i read.obj
 0001:00012c80       ??6@YAAAV?$basic_ostream@DU?$char_traits@D@std@@@std@@AAV01@ABVException@@@Z 00413c80 f i read.obj
 0001:00012d10       ??D@YA?AVmat4f@@ABV0@0@Z   00413d10 f i read.obj
 0001:000131c0       ??E?$_Tree_unchecked_const_iterator@V?$_Tree_val@U?$_Tree_simple_types@U?$pair@$$CBV?$basic_string@DU?$char_traits@D@std@@V?$allocator@D@2@@std@@PAVMaterial@@@std@@@std@@@std@@U_Iterator_base0@2@@std@@QAEAAV01@XZ 004141c0 f i read.obj
 0001:00013210       ??F?$_Tree_unchecked_const_iterator@V?$_Tree_val@U?$_Tree_simple_types@U?$pair@$$CBV?$basic_string@DU?$char_traits@D@std@@V?$allocator@D@2@@std@@PAVMaterial@@@std@@@std@@@std@@U_Iterator_base0@2@@std@@QAEAAV01@XZ 00414210 f i read.obj
 0001:00013270       ??_D?$basic_ifstream@DU?$char_traits@D@std@@@std@@QAEXXZ 00414270 f i read.obj
 0001:00013290       ??_Dostrstream@std@@QAEXXZ 00414290 f i read.obj
 0001:000132a4       ??_E?$basic_ifstream@DU?$char_traits@D@std@@@std@@$4PPPPPPPM@A@AEPAXI@Z 004142a4 f i read.obj
 0001:000132ac       ??_Eostrstream@std@@$4PPPPPPPM@A@AEPAXI@Z 004142ac f i read.obj
 0001:000132c0       ??_E?$basic_filebuf@DU?$char_traits@D@std@@@std@@UAEPAXI@Z 004142c0 f i read.obj
 0001:000132c0       ??_G?$basic_filebuf@DU?$char_traits@D@std@@@std@@UAEPAXI@Z 004142c0 f i read.obj
 0001:00013360       ??_G?$basic_ifstream@DU?$char_traits@D@std@@@std@@UAEPAXI@Z 00414360 f i read.obj
 0001:00013360       ??_E?$basic_ifstream@DU?$char_traits@D@std@@@std@@UAEPAXI@Z 00414360 f i read.obj
 0001:000133a0       ??_GBox@@UAEPAXI@Z         004143a0 f i read.obj
 0001:000133a0       ??_EBox@@UAEPAXI@Z         004143a0 f i read.obj
 0001:000133e0       ??_GCone@@UAEPAXI@Z        004143e0 f i read.obj
 0001:000133e0       ??_ECone@@UAEPAXI@Z        004143e0 f i read.obj
 0001:00013420       ??_GCylinder@@UAEPAXI@Z    00414420 f i read.obj
 0001:00013420       ??_ECylinder@@UAEPAXI@Z    00414420 f i read.obj
 0001:00013460       ??_GDirectionalLight@@UAEPAXI@Z 00414460 f i read.obj
 0001:00013460       ??_EDirectionalLight@@UAEPAXI@Z 00414460 f i read.obj
 0001:00013490       ??_EGeometry@@UAEPAXI@Z    00414490 f i read.obj
 0001:00013490       ??_GGeometry@@UAEPAXI@Z    00414490 f i read.obj
 0001:000134c0       ??_ELight@@UAEPAXI@Z       004144c0 f i read.obj
 0001:000134c0       ??_GLight@@UAEPAXI@Z       004144c0 f i read.obj
 0001:000134f0       ??_EMaterialSceneObject@@UAEPAXI@Z 004144f0 f i read.obj
 0001:000134f0       ??_GMaterialSceneObject@@UAEPAXI@Z 004144f0 f i read.obj
 0001:00013530       ??_GScene@@UAEPAXI@Z       00414530 f i read.obj
 0001:00013530       ??_EScene@@UAEPAXI@Z       00414530 f i read.obj
 0001:00013560       ??_ESceneElement@@UAEPAXI@Z 00414560 f i read.obj
 0001:00013560       ??_GSceneElement@@UAEPAXI@Z 00414560 f i read.obj
 0001:00013590       ??_GSceneObject@@UAEPAXI@Z 00414590 f i read.obj
 0001:00013590       ??_ESceneObject@@UAEPAXI@Z 00414590 f i read.obj
 0001:000135c0       ??_GSphere@@UAEPAXI@Z      004145c0 f i read.obj
 0001:000135c0       ??_ESphere@@UAEPAXI@Z      004145c0 f i read.obj
 0001:00013600       ??_ESquare@@UAEPAXI@Z      00414600 f i read.obj
 0001:00013600       ??_GSquare@@UAEPAXI@Z      00414600 f i read.obj
 0001:00013640       ??_ETrimesh@@UAEPAXI@Z     00414640 f i read.obj
 0001:00013640       ??_GTrimesh@@UAEPAXI@Z     00414640 f i read.obj
 0001:00013670       ??_Gbad_cast@std@@UAEPAXI@Z 00414670 f i read.obj
 0001:00013670       ??_Ebad_cast@std@@UAEPAXI@Z 00414670 f i read.obj
 0001:000136b0       ??_Gostrstream@std@@UAEPAXI@Z 004146b0 f i read.obj
 0001:000136b0       ??_Eostrstream@std@@UAEPAXI@Z 004146b0 f i read.obj
 0001:000136f0       ??_Gstrstreambuf@std@@UAEPAXI@Z 004146f0 f i read.obj
 0001:000136f0       ??_Estrstreambuf@std@@UAEPAXI@Z 004146f0 f i read.obj
 0001:00013780       ?ComputeBoundingBox@Geometry@@UAEXXZ 00414780 f i read.obj
 0001:00013dc0       ?ComputeLocalBoundingBox@Box@@UAE?AVBoundingBox@@XZ 00414dc0 f i read.obj
 0001:00013e00       ?ComputeLocalBoundingBox@Cone@@UAE?AVBoundingBox@@XZ 00414e00 f i read.obj
 0001:00013e60       ?ComputeLocalBoundingBox@Cylinder@@UAE?AVBoundingBox@@XZ 00414e60 f i read.obj
 0001:00013ea0       ?ComputeLocalBoundingBox@Geometry@@UAE?AVBoundingBox@@XZ 00414ea0 f i read.obj
 0001:00013ed0       ?ComputeLocalBoundingBox@Sphere@@UAE?AVBoundingBox@@XZ 00414ed0 f i read.obj
 0001:00013f10       ?ComputeLocalBoundingBox@Square@@UAE?AVBoundingBox@@XZ 00414f10 f i read.obj
 0001:00013f60       ?_Buyheadnode@?$_Tree_comp_alloc@V?$_Tmap_traits@V?$basic_string@DU?$char_traits@D@std@@V?$allocator@D@2@@std@@PAVMaterial@@U?$less@V?$basic_string@DU?$char_traits@D@std@@V?$allocator@D@2@@std@@@2@V?$allocator@U?$pair@$$CBV?$basic_string@DU?$char_traits@D@std@@V?$allocator@D@2@@std@@PAVMaterial@@@std@@@2@$0A@@std@@@std@@QAEPAU?$_Tree_node@U?$pair@$$CBV?$basic_string@DU?$char_traits@D@std@@V?$allocator@D@2@@std@@PAVMaterial@@@std@@PAX@2@XZ 00414f60 f i read.obj
 0001:00013f90       ?_Buynode0@?$_List_alloc@U?$_List_base_types@PAVAmbientLight@@V?$allocator@PAVAmbientLight@@@std@@@std@@@std@@QAEPAU?$_List_node@PAVAmbientLight@@PAX@2@PAU32@0@Z 00414f90 f i read.obj
 0001:00013fd0       ?_Buynode0@?$_List_alloc@U?$_List_base_types@PAVGeometry@@V?$allocator@PAVGeometry@@@std@@@std@@@std@@QAEPAU?$_List_node@PAVGeometry@@PAX@2@PAU32@0@Z 00414fd0 f i read.obj
 0001:00014010       ?_Buynode0@?$_List_alloc@U?$_List_base_types@PAVLight@@V?$allocator@PAVLight@@@std@@@std@@@std@@QAEPAU?$_List_node@PAVLight@@PAX@2@PAU32@0@Z 00415010 f i read.obj
 0001:00014050       ?_Buynode0@?$_List_alloc@U?$_List_base_types@PAVTransformNode@@V?$allocator@PAVTransformNode@@@std@@@std@@@std@@QAEPAU?$_List_node@PAVTransformNode@@PAX@2@PAU32@0@Z 00415050 f i read.obj
 0001:00014090       ?_Buynode0@?$_Tree_comp_alloc@V?$_Tmap_traits@V?$basic_string@DU?$char_traits@D@std@@V?$allocator@D@2@@std@@PAVMaterial@@U?$less@V?$basic_string@DU?$char_traits@D@std@@V?$allocator@D@2@@std@@@2@V?$allocator@U?$pair@$$CBV?$basic_string@DU?$char_traits@D@std@@V?$allocator@D@2@@std@@PAVMaterial@@@std@@@2@$0A@@std@@@std@@QAEPAU?$_Tree_node@U?$pair@$$CBV?$basic_string@DU?$char_traits@D@std@@V?$allocator@D@2@@std@@PAVMaterial@@@std@@PAX@2@XZ 00415090 f i read.obj
 0001:000140d0       ?_Chassign@?$basic_string@DU?$char_traits@D@std@@V?$allocator@D@2@@std@@QAEXIID@Z 004150d0 f i read.obj
 0001:00014120       ?_Destroy_if_not_nil@?$_Tree@V?$_Tmap_traits@V?$basic_string@DU?$char_traits@D@std@@V?$allocator@D@2@@std@@PAVMaterial@@U?$less@V?$basic_string@DU?$char_traits@D@std@@V?$allocator@D@2@@std@@@2@V?$allocator@U?$pair@$$CBV?$basic_string@DU?$char_traits@D@std@@V?$allocator@D@2@@std@@PAVMaterial@@@std@@@2@$0A@@std@@@std@@IAEXPAU?$_Tree_node@U?$pair@$$CBV?$basic_string@DU?$char_traits@D@std@@V?$allocator@D@2@@std@@PAVMaterial@@@std@@PAX@2@@Z 00415120 f i read.obj
 0001:00014170       ?_Endwrite@?$basic_filebuf@DU?$char_traits@D@std@@@std@@IAE_NXZ 00415170 f i read.obj
 0001:000142e0       ?_Erase@?$_Tree@V?$_Tmap_traits@V?$basic_string@DU?$char_traits@D@std@@V?$allocator@D@2@@std@@PAVMaterial@@U?$less@V?$basic_string@DU?$char_traits@D@std@@V?$allocator@D@2@@std@@@2@V?$allocator@U?$pair@$$CBV?$basic_string@DU?$char_traits@D@std@@V?$allocator@D@2@@std@@PAVMaterial@@@std@@@2@$0A@@std@@@std@@IAEXPAU?$_Tree_node@U?$pair@$$CBV?$basic_string@DU?$char_traits@D@std@@V?$allocator@D@2@@std@@PAVMaterial@@@std@@PAX@2@@Z 004152e0 f i read.obj
 0001:00014370       ?_Freenode0@?$_Tree_comp_alloc@V?$_Tmap_traits@V?$basic_string@DU?$char_traits@D@std@@V?$allocator@D@2@@std@@PAVMaterial@@U?$less@V?$basic_string@DU?$char_traits@D@std@@V?$allocator@D@2@@std@@@2@V?$allocator@U?$pair@$$CBV?$basic_string@DU?$char_traits@D@std@@V?$allocator@D@2@@std@@PAVMaterial@@@std@@@2@$0A@@std@@@std@@QAEXPAU?$_Tree_node@U?$pair@$$CBV?$basic_string@DU?$char_traits@D@std@@V?$allocator@D@2@@std@@PAVMaterial@@@std@@PAX@2@@Z 00415370 f i read.obj
 0001:00014390       ?_Init@?$basic_filebuf@DU?$char_traits@D@std@@@std@@IAEXPAU_iobuf@@W4_Initfl@12@@Z 00415390 f i read.obj
 0001:00014420       ?_Lock@?$basic_filebuf@DU?$char_traits@D@std@@@std@@UAEXXZ 00415420 f i read.obj
 0001:00014430       ?_Lrotate@?$_Tree@V?$_Tmap_traits@V?$basic_string@DU?$char_traits@D@std@@V?$allocator@D@2@@std@@PAVMaterial@@U?$less@V?$basic_string@DU?$char_traits@D@std@@V?$allocator@D@2@@std@@@2@V?$allocator@U?$pair@$$CBV?$basic_string@DU?$char_traits@D@std@@V?$allocator@D@2@@std@@PAVMaterial@@@std@@@2@$0A@@std@@@std@@IAEXPAU?$_Tree_node@U?$pair@$$CBV?$basic_string@DU?$char_traits@D@std@@V?$allocator@D@2@@std@@PAVMaterial@@@std@@PAX@2@@Z 00415430 f i read.obj
 0001:00014490       ?_Reset_back@?$basic_filebuf@DU?$char_traits@D@std@@@std@@AAEXXZ 00415490 f i read.obj
 0001:000144c0       ?_Rrotate@?$_Tree@V?$_Tmap_traits@V?$basic_string@DU?$char_traits@D@std@@V?$allocator@D@2@@std@@PAVMaterial@@U?$less@V?$basic_string@DU?$char_traits@D@std@@V?$allocator@D@2@@std@@@2@V?$allocator@U?$pair@$$CBV?$basic_string@DU?$char_traits@D@std@@V?$allocator@D@2@@std@@PAVMaterial@@@std@@@2@$0A@@std@@@std@@IAEXPAU?$_Tree_node@U?$pair@$$CBV?$basic_string@DU?$char_traits@D@std@@V?$allocator@D@2@@std@@PAVMaterial@@@std@@PAX@2@@Z 004154c0 f i read.obj
 0001:00014520       ?_Set_back@?$basic_filebuf@DU?$char_traits@D@std@@@std@@AAEXXZ 00415520 f i read.obj
 0001:00014560       ?_Unlock@?$basic_filebuf@DU?$char_traits@D@std@@@std@@UAEXXZ 00415560 f i read.obj
 0001:00014570       ?add@Scene@@QAEXPAVGeometry@@@Z 00415570 f i read.obj
 0001:000145d0       ?add@Scene@@QAEXPAVLight@@@Z 004155d0 f i read.obj
 0001:00014620       ?append@?$basic_string@DU?$char_traits@D@std@@V?$allocator@D@2@@std@@QAEAAV12@ID@Z 00415620 f i read.obj
 0001:000146b0       ?close@?$basic_filebuf@DU?$char_traits@D@std@@@std@@QAEPAV12@XZ 004156b0 f i read.obj
 0001:00014720       ?createChild@TransformNode@@QAEPAV1@ABVmat4f@@@Z 00415720 f i read.obj
 0001:000147e0       ?erase@?$_Tree@V?$_Tmap_traits@V?$basic_string@DU?$char_traits@D@std@@V?$allocator@D@2@@std@@PAVMaterial@@U?$less@V?$basic_string@DU?$char_traits@D@std@@V?$allocator@D@2@@std@@@2@V?$allocator@U?$pair@$$CBV?$basic_string@DU?$char_traits@D@std@@V?$allocator@D@2@@std@@PAVMaterial@@@std@@@2@$0A@@std@@@std@@QAE?AV?$_Tree_iterator@V?$_Tree_val@U?$_Tree_simple_types@U?$pair@$$CBV?$basic_string@DU?$char_traits@D@std@@V?$allocator@D@2@@std@@PAVMaterial@@@std@@@std@@@std@@@2@V?$_Tree_const_iterator@V?$_Tree_val@U?$_Tree_simple_types@U?$pair@$$CBV?$basic_string@DU?$char_traits@D@std@@V?$allocator@D@2@@std@@PAVMaterial@@@std@@@std@@@std@@@2@0@Z 004157e0 f i read.obj
 0001:000148d0       ?erase@?$_Tree@V?$_Tmap_traits@V?$basic_string@DU?$char_traits@D@std@@V?$allocator@D@2@@std@@PAVMaterial@@U?$less@V?$basic_string@DU?$char_traits@D@std@@V?$allocator@D@2@@std@@@2@V?$allocator@U?$pair@$$CBV?$basic_string@DU?$char_traits@D@std@@V?$allocator@D@2@@std@@PAVMaterial@@@std@@@2@$0A@@std@@@std@@QAE?AV?$_Tree_iterator@V?$_Tree_val@U?$_Tree_simple_types@U?$pair@$$CBV?$basic_string@DU?$char_traits@D@std@@V?$allocator@D@2@@std@@PAVMaterial@@@std@@@std@@@std@@@2@V?$_Tree_const_iterator@V?$_Tree_val@U?$_Tree_simple_types@U?$pair@$$CBV?$basic_string@DU?$char_traits@D@std@@V?$allocator@D@2@@std@@PAVMaterial@@@std@@@std@@@std@@@2@@Z 004158d0 f i read.obj
 0001:00014bc0       ?find@?$_Tree@V?$_Tmap_traits@V?$basic_string@DU?$char_traits@D@std@@V?$allocator@D@2@@std@@PAVMaterial@@U?$less@V?$basic_string@DU?$char_traits@D@std@@V?$allocator@D@2@@std@@@2@V?$allocator@U?$pair@$$CBV?$basic_string@DU?$char_traits@D@std@@V?$allocator@D@2@@std@@PAVMaterial@@@std@@@2@$0A@@std@@@std@@QBE?AV?$_Tree_const_iterator@V?$_Tree_val@U?$_Tree_simple_types@U?$pair@$$CBV?$basic_string@DU?$char_traits@D@std@@V?$allocator@D@2@@std@@PAVMaterial@@@std@@@std@@@std@@@2@ABV?$basic_string@DU?$char_traits@D@std@@V?$allocator@D@2@@2@@Z 00415bc0 f i read.obj
 0001:00014c20       ?find@?$_Tree@V?$_Tmap_traits@V?$basic_string@DU?$char_traits@D@std@@V?$allocator@D@2@@std@@PAVObj@@U?$less@V?$basic_string@DU?$char_traits@D@std@@V?$allocator@D@2@@std@@@2@V?$allocator@U?$pair@$$CBV?$basic_string@DU?$char_traits@D@std@@V?$allocator@D@2@@std@@PAVObj@@@std@@@2@$0A@@std@@@std@@QBE?AV?$_Tree_const_iterator@V?$_Tree_val@U?$_Tree_simple_types@U?$pair@$$CBV?$basic_string@DU?$char_traits@D@std@@V?$allocator@D@2@@std@@PAVObj@@@std@@@std@@@std@@@2@ABV?$basic_string@DU?$char_traits@D@std@@V?$allocator@D@2@@2@@Z 00415c20 f i read.obj
 0001:00015130       ?getMaterial@MaterialSceneObject@@UBEABVMaterial@@XZ 00416130 f i read.obj
 0001:00015140       ?hasBoundingBoxCapability@Box@@UBE_NXZ 00416140 f i read.obj
 0001:00015150       ?hasBoundingBoxCapability@Cone@@UBE_NXZ 00416150 f i read.obj
 0001:00015160       ?hasBoundingBoxCapability@Cylinder@@UBE_NXZ 00416160 f i read.obj
 0001:00015170       ?hasBoundingBoxCapability@Sphere@@UBE_NXZ 00416170 f i read.obj
 0001:00015180       ?hasBoundingBoxCapability@Square@@UBE_NXZ 00416180 f i read.obj
 0001:000151f0       ?imbue@?$basic_filebuf@DU?$char_traits@D@std@@@std@@MAEXABVlocale@2@@Z 004161f0 f i read.obj
 0001:000152d0       ?open@?$basic_filebuf@DU?$char_traits@D@std@@@std@@QAEPAV12@PBDHH@Z 004162d0 f i read.obj
 0001:000153b0       ?overflow@?$basic_filebuf@DU?$char_traits@D@std@@@std@@MAEHH@Z 004163b0 f i read.obj
 0001:000155c0       ?overflow@strstreambuf@std@@MAEHH@Z 004165c0 f i read.obj
 0001:00015770       ?pbackfail@?$basic_filebuf@DU?$char_traits@D@std@@@std@@MAEHH@Z 00416770 f i read.obj
 0001:00015800       ?pbackfail@strstreambuf@std@@MAEHH@Z 00416800 f i read.obj
 0001:00018b40       ?readScene@@YAPAVScene@@AAV?$basic_istream@DU?$char_traits@D@std@@@std@@@Z 00419b40 f   read.obj
 0001:00018da0       ?readScene@@YAPAVScene@@ABV?$basic_string@DU?$char_traits@D@std@@V?$allocator@D@2@@std@@@Z 00419da0 f   read.obj
 0001:00018ed0       ?rotate@mat4f@@SA?AV1@ABVvec3f@@N@Z 00419ed0 f i read.obj
 0001:000190c0       ?seekoff@?$basic_filebuf@DU?$char_traits@D@std@@@std@@MAE?AV?$fpos@U_Mbstatet@@@2@_JHH@Z 0041a0c0 f i read.obj
 0001:000191c0       ?seekoff@strstreambuf@std@@MAE?AV?$fpos@U_Mbstatet@@@2@_JHH@Z 0041a1c0 f i read.obj
 0001:00019320       ?seekpos@?$basic_filebuf@DU?$char_traits@D@std@@@std@@MAE?AV?$fpos@U_Mbstatet@@@2@V32@H@Z 0041a320 f i read.obj
 0001:00019400       ?seekpos@strstreambuf@std@@MAE?AV?$fpos@U_Mbstatet@@@2@V32@H@Z 0041a400 f i read.obj
 0001:000194f0       ?setMaterial@MaterialSceneObject@@UAEXPAVMaterial@@@Z 0041a4f0 f i read.obj
 0001:00019500       ?setbuf@?$basic_filebuf@DU?$char_traits@D@std@@@std@@MAEPAV?$basic_streambuf@DU?$char_traits@D@std@@@2@PAD_J@Z 0041a500 f i read.obj
 0001:00019550       ?size@?$vector@PAVObj@@V?$allocator@PAVObj@@@std@@@std@@QBEIXZ 0041a550 f i read.obj
 0001:00019560       ?str@ostrstream@std@@QAEPADXZ 0041a560 f i read.obj
 0001:000195a0       ?sync@?$basic_filebuf@DU?$char_traits@D@std@@@std@@MAEHXZ 0041a5a0 f i read.obj
 0001:00019640       ?uflow@?$basic_filebuf@DU?$char_traits@D@std@@@std@@MAEHXZ 0041a640 f i read.obj
 0001:000198a0       ?underflow@?$basic_filebuf@DU?$char_traits@D@std@@@std@@MAEHXZ 0041a8a0 f i read.obj
 0001:000198e0       ?underflow@strstreambuf@std@@MAEHXZ 0041a8e0 f i read.obj
 0001:00019ac0       ?inverse@mat3f@@QBE?AV1@XZ 0041aac0 f   vecmath.obj
 0001:00019ed0       ?inverse@mat4f@@QBE?AV1@XZ 0041aed0 f   vecmath.obj
 0001:0001a340       ??0Camera@@QAE@XZ          0041b340 f   camera.obj
 0001:0001a3e0       ?rayThrough@Camera@@QAEXNNAAVray@@@Z 0041b3e0 f   camera.obj
 0001:0001a500       ?setAspectRatio@Camera@@QAEXN@Z 0041b500 f   camera.obj
 0001:0001a6a0       ?setEye@Camera@@QAEXABVvec3f@@@Z 0041b6a0 f   camera.obj
 0001:0001a6d0       ?setFOV@Camera@@QAEXN@Z    0041b6d0 f   camera.obj
 0001:0001a890       ?setLook@Camera@@QAEXABVvec3f@@0@Z 0041b890 f   camera.obj
 0001:0001aad0       ?setLook@Camera@@QAEXNNNN@Z 0041bad0 f   camera.obj
 0001:0001ad70       ?update@Camera@@AAEXXZ     0041bd70 f   camera.obj
 0001:0001af00       ??0PointLight@@QAE@PAVScene@@ABVvec3f@@1@Z 0041bf00 f   light.obj
 0001:0001af70       ??_GPointLight@@UAEPAXI@Z  0041bf70 f i light.obj
 0001:0001af70       ??_EPointLight@@UAEPAXI@Z  0041bf70 f i light.obj
 0001:0001afa0       ?distanceAttenuation@DirectionalLight@@UBENABVvec3f@@@Z 0041bfa0 f   light.obj
 0001:0001afb0       ?distanceAttenuation@PointLight@@UBENABVvec3f@@@Z 0041bfb0 f   light.obj
 0001:0001b0a0       ?getColor@AmbientLight@@QBE?AVvec3f@@ABV2@@Z 0041c0a0 f   light.obj
 0001:0001b0c0       ?getColor@DirectionalLight@@UBE?AVvec3f@@ABV2@@Z 0041c0c0 f   light.obj
 0001:0001b0e0       ?getColor@PointLight@@UBE?AVvec3f@@ABV2@@Z 0041c0e0 f   light.obj
 0001:0001b100       ?getDirection@DirectionalLight@@UBE?AVvec3f@@ABV2@@Z 0041c100 f   light.obj
 0001:0001b130       ?getDirection@PointLight@@UBE?AVvec3f@@ABV2@@Z 0041c130 f   light.obj
 0001:0001b1c0       ?setDistanceAttenuation@PointLight@@QAEXNNN@Z 0041c1c0 f   light.obj
 0001:0001b1f0       ?shadowAttenuation@DirectionalLight@@UBE?AVvec3f@@ABV2@@Z 0041c1f0 f   light.obj
 0001:0001b4f0       ?shadowAttenuation@PointLight@@UBE?AVvec3f@@ABV2@@Z 0041c4f0 f   light.obj
 0001:0001b780       ?shadowAttenuation_@PointLight@@IBE?AVvec3f@@ABV2@0@Z 0041c780 f   light.obj
 0001:0001bac0       ?shade@Material@@UBE?AVvec3f@@PAVScene@@ABVray@@ABVisect@@@Z 0041cac0 f   material.obj
 0001:0001bff0       ?getMaterial@isect@@QBEABVMaterial@@XZ 0041cff0 f   ray.obj
 0001:0001c000       ??0Material@@QAE@ABV0@@Z   0041d000 f i scene.obj
 0001:0001c100       ??1Scene@@UAE@XZ           0041d100 f   scene.obj
 0001:0001c340       ??4BoundingBox@@QAEXABV0@@Z 0041d340 f   scene.obj
 0001:0001c390       ??4Material@@QAEAAV0@ABV0@@Z 0041d390 f i scene.obj
 0001:0001c490       ??4isect@@QAEAAV0@ABV0@@Z  0041d490 f i scene.obj
 0001:0001c530       ?hasBoundingBoxCapability@Geometry@@UBE_NXZ 0041d530 f   scene.obj
 0001:0001c540       ?initScene@Scene@@QAEXXZ   0041d540 f   scene.obj
 0001:0001c710       ?intersect@BoundingBox@@QBE_NABVray@@AAN1@Z 0041d710 f   scene.obj
 0001:0001c820       ?intersect@Geometry@@UBE_NABVray@@AAVisect@@@Z 0041d820 f   scene.obj
 0001:0001cb80       ?intersect@Scene@@QBE_NABVray@@AAVisect@@@Z 0041db80 f   scene.obj
 0001:0001cf00       ?intersectLocal@Geometry@@UBE_NABVray@@AAVisect@@@Z 0041df00 f   scene.obj
 0001:0001cf10       ?intersects@BoundingBox@@QBE_NABV1@@Z 0041df10 f   scene.obj
 0001:0001cfa0       ?intersects@BoundingBox@@QBE_NABVvec3f@@@Z 0041dfa0 f   scene.obj
 0001:0001d020       ?intersectLocal@Box@@UBE_NABVray@@AAVisect@@@Z 0041e020 f   Box.obj
 0001:0001d2f0       _printf                    0041e2f0 f i Box.obj
 0001:0001d320       ?intersectBody@Cone@@QBE_NABVray@@AAVisect@@@Z 0041e320 f   Cone.obj
 0001:0001d670       ?intersectCaps@Cone@@QBE_NABVray@@AAVisect@@@Z 0041e670 f   Cone.obj
 0001:0001d810       ?intersectLocal@Cone@@UBE_NABVray@@AAVisect@@@Z 0041e810 f   Cone.obj
 0001:0001d8e0       ?intersectBody@Cylinder@@QBE_NABVray@@AAVisect@@@Z 0041e8e0 f   Cylinder.obj
 0001:0001dbc0       ?intersectCaps@Cylinder@@QBE_NABVray@@AAVisect@@@Z 0041ebc0 f   Cylinder.obj
 0001:0001dd20       ?intersectLocal@Cylinder@@UBE_NABVray@@AAVisect@@@Z 0041ed20 f   Cylinder.obj
 0001:0001ddf0       ?intersectLocal@Sphere@@UBE_NABVray@@AAVisect@@@Z 0041edf0 f   Sphere.obj
 0001:0001dff0       ?intersectLocal@Square@@UBE_NABVray@@AAVisect@@@Z 0041eff0 f   Square.obj
 0001:0001e220       ??$_Uninitialized_copy_al_unchecked@PAVvec3f@@PAV1@V?$allocator@Vvec3f@@@std@@@std@@YAPAVvec3f@@PAV1@00AAU?$_Wrap_alloc@V?$allocator@Vvec3f@@@std@@@0@U_General_ptr_iterator_tag@0@U_Any_tag@0@@Z 0041f220 f i trimesh.obj
 0001:0001e260       ??$_Uninitialized_default_fill_n1@PAVvec3f@@IV?$allocator@Vvec3f@@@std@@@std@@YAPAVvec3f@@PAV1@IAAU?$_Wrap_alloc@V?$allocator@Vvec3f@@@std@@@0@U?$integral_constant@_N$0A@@0@@Z 0041f260 f i trimesh.obj
 0001:0001e290       ??$emplace_back@ABQAVMaterial@@@?$vector@PAVMaterial@@V?$allocator@PAVMaterial@@@std@@@std@@QAEXABQAVMaterial@@@Z 0041f290 f i trimesh.obj
 0001:0001e360       ??$emplace_back@ABQAVTrimeshFace@@@?$vector@PAVTrimeshFace@@V?$allocator@PAVTrimeshFace@@@std@@@std@@QAEXABQAVTrimeshFace@@@Z 0041f360 f i trimesh.obj
 0001:0001e430       ??$emplace_back@ABVvec3f@@@?$vector@Vvec3f@@V?$allocator@Vvec3f@@@std@@@std@@QAEXABVvec3f@@@Z 0041f430 f i trimesh.obj
 0001:0001e5a0       ??1Trimesh@@UAE@XZ         0041f5a0 f   trimesh.obj
 0001:0001e7f0       ??D@YA?AVMaterial@@NV0@@Z  0041f7f0 f i trimesh.obj
 0001:0001e9a0       ??YMaterial@@QAEAAV0@ABV0@@Z 0041f9a0 f i trimesh.obj
 0001:0001eb10       ??_GTrimeshFace@@UAEPAXI@Z 0041fb10 f i trimesh.obj
 0001:0001eb10       ??_ETrimeshFace@@UAEPAXI@Z 0041fb10 f i trimesh.obj
 0001:0001eb50       ?ComputeLocalBoundingBox@TrimeshFace@@UAE?AVBoundingBox@@XZ 0041fb50 f i trimesh.obj
 0001:0001ec70       ?_Change_array@?$vector@Vvec3f@@V?$allocator@Vvec3f@@@std@@@std@@AAEXQAVvec3f@@II@Z 0041fc70 f i trimesh.obj
 0001:0001ecc0       ?_Getal@?$_Vector_alloc@U?$_Vec_base_types@Vvec3f@@V?$allocator@Vvec3f@@@std@@@std@@@std@@QAEAAU?$_Wrap_alloc@V?$allocator@Vvec3f@@@std@@@2@XZ 0041fcc0 f i trimesh.obj
 0001:0001ecd0       ?_Xlength@?$vector@PAVMaterial@@V?$allocator@PAVMaterial@@@std@@@std@@CAXXZ 0041fcd0 f i trimesh.obj
 0001:0001ece0       ?_Xlength@?$vector@PAVTrimeshFace@@V?$allocator@PAVTrimeshFace@@@std@@@std@@CAXXZ 0041fce0 f i trimesh.obj
 0001:0001ecf0       ?_Xlength@?$vector@Vvec3f@@V?$allocator@Vvec3f@@@std@@@std@@CAXXZ 0041fcf0 f i trimesh.obj
 0001:0001ed00       ?addFace@Trimesh@@QAE_NHHH@Z 0041fd00 f   trimesh.obj
 0001:0001ee20       ?addMaterial@Trimesh@@QAEXPAVMaterial@@@Z 0041fe20 f   trimesh.obj
 0001:0001ee40       ?addNormal@Trimesh@@QAEXABVvec3f@@@Z 0041fe40 f   trimesh.obj
 0001:0001ee50       ?addVertex@Trimesh@@QAEXABVvec3f@@@Z 0041fe50 f   trimesh.obj
 0001:0001ee60       ?allocate@?$allocator@PAVMaterial@@@std@@QAEPAPAVMaterial@@I@Z 0041fe60 f i trimesh.obj
 0001:0001eed0       ?allocate@?$allocator@PAVTrimeshFace@@@std@@QAEPAPAVTrimeshFace@@I@Z 0041fed0 f i trimesh.obj
 0001:0001ef40       ?allocate@?$allocator@Vvec3f@@@std@@QAEPAVvec3f@@I@Z 0041ff40 f i trimesh.obj
 0001:0001efb0       ?deallocate@?$_Wrap_alloc@V?$allocator@Vvec3f@@@std@@@std@@QAEXPAVvec3f@@I@Z 0041ffb0 f i trimesh.obj
 0001:0001efd0       ?doubleCheck@Trimesh@@QAEPADXZ 0041ffd0 f   trimesh.obj
 0001:0001f070       ?generateNormals@Trimesh@@QAEXXZ 00420070 f   trimesh.obj
 0001:0001f300       ?hasBoundingBoxCapability@TrimeshFace@@UBE_NXZ 00420300 f i trimesh.obj
 0001:0001f310       ?intersectLocal@TrimeshFace@@UBE_NABVray@@AAVisect@@@Z 00420310 f   trimesh.obj
 0001:0001fa40       ??0VecCone@@QAE@ABVvec3f@@N@Z 00420a40 f   vecCone.obj
 0001:0001fe00       ?Generate@VecCone@@QBE?AVvec3f@@XZ 00420e00 f   vecCone.obj
 0001:0001ff40       ?visual@Fl@@SAHH@Z         00420f40 f   fltk:Fl_visual.obj
 0001:0001ffa0       ?option@Fl@@SA_NW4Fl_Option@1@@Z 00420fa0 f   fltk:Fl.obj
 0001:00020230       ?option@Fl@@SAXW4Fl_Option@1@_N@Z 00421230 f   fltk:Fl.obj
 0001:00020270       ?version@Fl@@SANXZ         00421270 f   fltk:Fl.obj
 0001:00020280       ?scrollbar_size@Fl@@SAHXZ  00421280 f   fltk:Fl.obj
 0001:00020290       ?scrollbar_size@Fl@@SAXH@Z 00421290 f   fltk:Fl.obj
 0001:000202a0       ?wait@Fl@@SAHXZ            004212a0 f   fltk:Fl.obj
 0001:000202f0       ?wait@Fl@@SANN@Z           004212f0 f   fltk:Fl.obj
 0001:00020320       ?check@Fl@@SAHXZ           00421320 f   fltk:Fl.obj
 0001:00020360       ?ready@Fl@@SAHXZ           00421360 f   fltk:Fl.obj
 0001:00020370       ?run@Fl@@SAHXZ             00421370 f   fltk:Fl.obj
 0001:000203a0       ?add_timeout@Fl@@SAXNP6AXPAX@Z0@Z 004213a0 f   fltk:Fl.obj
 0001:000203d0       ?repeat_timeout@Fl@@SAXNP6AXPAX@Z0@Z 004213d0 f   fltk:Fl.obj
 0001:00020580       ?has_timeout@Fl@@SAHP6AXPAX@Z0@Z 00421580 f   fltk:Fl.obj
 0001:000205e0       ?remove_timeout@Fl@@SAXP6AXPAX@Z0@Z 004215e0 f   fltk:Fl.obj
 0001:00020650       ?add_check@Fl@@SAXP6AXPAX@Z0@Z 00421650 f   fltk:Fl.obj
 0001:000206d0       ?has_check@Fl@@SAHP6AXPAX@Z0@Z 004216d0 f   fltk:Fl.obj
 0001:00020720       ?remove_check@Fl@@SAXP6AXPAX@Z0@Z 00421720 f   fltk:Fl.obj
 0001:000207a0       ?add_fd@Fl@@SAXHHP6AXHPAX@Z0@Z 004217a0 f   fltk:Fl.obj
 0001:00020a70       ?add_fd@Fl@@SAXHP6AXHPAX@Z0@Z 00421a70 f   fltk:Fl.obj
 0001:00020a90       ?remove_fd@Fl@@SAXHH@Z     00421a90 f   fltk:Fl.obj
 0001:00020d90       ?remove_fd@Fl@@SAXH@Z      00421d90 f   fltk:Fl.obj
 0001:00020db0       ?redraw@Fl@@SAXXZ          00421db0 f   fltk:Fl.obj
 0001:00020de0       ?flush@Fl@@SAXXZ           00421de0 f   fltk:Fl.obj
 0001:00020eb0       ?first_window@Fl@@SAPAVFl_Window@@XZ 00421eb0 f   fltk:Fl.obj
 0001:00020ee0       ?first_window@Fl@@SAXPAVFl_Window@@@Z 00421ee0 f   fltk:Fl.obj
 0001:00020f30       ?next_window@Fl@@SAPAVFl_Window@@PBV2@@Z 00421f30 f   fltk:Fl.obj
 0001:00020f70       ?get_mouse@Fl@@SAXAAH0@Z   00421f70 f   fltk:Fl.obj
 0001:00020fa0       ?event_inside@Fl@@SAHHHHH@Z 00421fa0 f   fltk:Fl.obj
 0001:00020ff0       ?event_inside@Fl@@SAHPBVFl_Widget@@@Z 00421ff0 f   fltk:Fl.obj
 0001:00021070       ?enable_im@Fl@@SAXXZ       00422070 f   fltk:Fl.obj
 0001:000210b0       ?disable_im@Fl@@SAXXZ      004220b0 f   fltk:Fl.obj
 0001:000210f0       ?handle@Fl@@SAHHPAVFl_Window@@@Z 004220f0 f   fltk:Fl.obj
 0001:00021130       ?handle_@Fl@@SAHHPAVFl_Window@@@Z 00422130 f   fltk:Fl.obj
 0001:00021810       ?belowmouse@Fl@@SAXPAVFl_Widget@@@Z 00422810 f   fltk:Fl.obj
 0001:000218b0       ?pushed@Fl@@SAXPAVFl_Widget@@@Z 004228b0 f   fltk:Fl.obj
 0001:000218c0       ?focus@Fl@@SAXPAVFl_Widget@@@Z 004228c0 f   fltk:Fl.obj
 0001:000219c0       ?add_handler@Fl@@SAXP6AHH@Z@Z 004229c0 f   fltk:Fl.obj
 0001:00021a00       ?remove_handler@Fl@@SAXP6AHH@Z@Z 00422a00 f   fltk:Fl.obj
 0001:00021a80       ?add_system_handler@Fl@@SAXP6AHPAX0@Z0@Z 00422a80 f   fltk:Fl.obj
 0001:00021ad0       ?remove_system_handler@Fl@@SAXP6AHPAX0@Z@Z 00422ad0 f   fltk:Fl.obj
 0001:00021b50       ?event_dispatch@Fl@@SAXP6AHHPAVFl_Window@@@Z@Z 00422b50 f   fltk:Fl.obj
 0001:00021b60       ?event_dispatch@Fl@@SAP6AHHPAVFl_Window@@@ZXZ 00422b60 f   fltk:Fl.obj
 0001:00021b70       ?copy@Fl@@SAXPBDHH0@Z      00422b70 f   fltk:Fl.obj
 0001:00021ca0       ?copy@Fl@@SAXPBDHH@Z       00422ca0 f   fltk:Fl.obj
 0001:00021cc0       ?paste@Fl@@SAXAAVFl_Widget@@HPBD@Z 00422cc0 f   fltk:Fl.obj
 0001:000229b0       ?paste@Fl@@SAXAAVFl_Widget@@H@Z 004239b0 f   fltk:Fl.obj
 0001:000229d0       ?add_clipboard_notify@Fl@@SAXP6AXHPAX@Z0@Z 004239d0 f   fltk:Fl.obj
 0001:00022a30       ?remove_clipboard_notify@Fl@@SAXP6AXHPAX@Z@Z 00423a30 f   fltk:Fl.obj
 0001:00022aa0       ?clipboard_contains@Fl@@SAHPBD@Z 00423aa0 f   fltk:Fl.obj
 0001:00022b50       ?selection_owner@Fl@@SAXPAVFl_Widget@@@Z 00423b50 f   fltk:Fl.obj
 0001:00022b60       ?selection@Fl@@SAXAAVFl_Widget@@PBDH@Z 00423b60 f   fltk:Fl.obj
 0001:00022b80       ?paste@Fl@@SAXAAVFl_Widget@@@Z 00423b80 f   fltk:Fl.obj
 0001:00022ba0       ?x@Fl@@SAHXZ               00423ba0 f   fltk:Fl.obj
 0001:00022be0       ?y@Fl@@SAHXZ               00423be0 f   fltk:Fl.obj
 0001:00022c20       ?w@Fl@@SAHXZ               00423c20 f   fltk:Fl.obj
 0001:00022c60       ?h@Fl@@SAHXZ               00423c60 f   fltk:Fl.obj
 0001:00022ca0       ?thread_message@Fl@@SAPAXXZ 00423ca0 f   fltk:Fl.obj
 0001:00022cc0       ?delete_widget@Fl@@SAXPAVFl_Widget@@@Z 00423cc0 f   fltk:Fl.obj
 0001:00022dc0       ?do_widget_deletion@Fl@@SAXXZ 00423dc0 f   fltk:Fl.obj
 0001:00022e40       ?watch_widget_pointer@Fl@@SAXAAPAVFl_Widget@@@Z 00423e40 f   fltk:Fl.obj
 0001:00022ee0       ?release_widget_pointer@Fl@@SAXAAPAVFl_Widget@@@Z 00423ee0 f   fltk:Fl.obj
 0001:00022f60       ?clear_widget_pointer@Fl@@SAXPBVFl_Widget@@@Z 00423f60 f   fltk:Fl.obj
 0001:00022fd0       ??0Fl_Widget_Tracker@@QAE@PAVFl_Widget@@@Z 00423fd0 f   fltk:Fl.obj
 0001:00023000       ??1Fl_Widget_Tracker@@QAE@XZ 00424000 f   fltk:Fl.obj
 0001:00023050       ?redraw@Fl_Widget@@QAEXXZ  00424050 f   fltk:Fl.obj
 0001:00023070       ?redraw_label@Fl_Widget@@QAEXXZ 00424070 f   fltk:Fl.obj
 0001:00023670       ?damage@Fl_Widget@@QAEXE@Z 00424670 f   fltk:Fl.obj
 0001:00023730       ?damage@Fl_Widget@@QAEXEHHHH@Z 00424730 f   fltk:Fl.obj
 0001:00023920       ?size_range_@Fl_Window@@AAEXXZ 00424920 f   fltk:Fl.obj
 0001:00023940       ?fullscreen_x@Fl_Window@@AAEXXZ 00424940 f   fltk:Fl.obj
 0001:000239b0       ?fullscreen_off_x@Fl_Window@@AAEXHHHH@Z 004249b0 f   fltk:Fl.obj
 0001:00023b90       ?flush@Fl_Window@@MAEXXZ   00424b90 f   fltk:Fl.obj
 0001:00023c00       ?handle@Fl_Window@@UAEHH@Z 00424c00 f   fltk:Fl.obj
 0001:00023d70       ?resize@Fl_Window@@UAEXHHHH@Z 00424d70 f   fltk:Fl.obj
 0001:00024050       ?label@Fl_Window@@QAEXPBD0@Z 00425050 f   fltk:Fl.obj
 0001:00024140       ?default_icons@Fl_Window@@SAXPAUHICON__@@0@Z 00425140 f   fltk:Fl.obj
 0001:00024160       ?icons@Fl_Window@@QAEXPAUHICON__@@0@Z 00425160 f   fltk:Fl.obj
 0001:000241c0       ?show@Fl_Window@@UAEXXZ    004251c0 f   fltk:Fl.obj
 0001:00024280       ?hide@Fl_Window@@UAEXXZ    00425280 f   fltk:Fl.obj
 0001:000246e0       ?make_current@Fl_Window@@QAEXXZ 004256e0 f   fltk:Fl.obj
 0001:00024740       ?decorated_w@Fl_Window@@QAEHXZ 00425740 f   fltk:Fl.obj
 0001:00024810       ?decorated_h@Fl_Window@@QAEHXZ 00425810 f   fltk:Fl.obj
 0001:000248e0       ?XRectangleRegion@@YAPAUHRGN__@@HHHH@Z 004258e0 f   fltk:Fl.obj
 0001:00024990       ?fake_X_wm@Fl_X@@SAHPBVFl_Window@@AAH1111@Z 00425990 f   fltk:Fl.obj
 0001:000250c0       ?make_fullscreen@Fl_X@@QAEXHHHH@Z 004260c0 f   fltk:Fl.obj
 0001:00025220       ?set_minmax@Fl_X@@QAEXPAUtagMINMAXINFO@@@Z 00426220 f   fltk:Fl.obj
 0001:00025310       ?set_default_icons@Fl_X@@SAXQAPBVFl_RGB_Image@@H@Z 00426310 f   fltk:Fl.obj
 0001:000253d0       ?set_default_icons@Fl_X@@SAXPAUHICON__@@0@Z 004263d0 f   fltk:Fl.obj
 0001:00025440       ?set_icons@Fl_X@@QAEXXZ    00426440 f   fltk:Fl.obj
 0001:000255e0       ?set_cursor@Fl_X@@QAEHW4Fl_Cursor@@@Z 004265e0 f   fltk:Fl.obj
 0001:00025770       ?set_cursor@Fl_X@@QAEHPBVFl_RGB_Image@@HH@Z 00426770 f   fltk:Fl.obj
 0001:000257f0       ?make@Fl_X@@SAPAV1@PAVFl_Window@@@Z 004267f0 f   fltk:Fl.obj
 0001:00026490       ?fl_release_dc@@YAXPAUHWND__@@PAUHDC__@@@Z 00427490 f   fltk:Fl.obj
 0001:00026530       ?fl_save_dc@@YAXPAUHWND__@@PAUHDC__@@@Z 00427530 f   fltk:Fl.obj
 0001:000265a0       ?fl_open_display@@YAXXZ    004275a0 f   fltk:Fl.obj
 0001:000265d0       ?fl_find@@YAPAVFl_Window@@PAUHWND__@@@Z 004275d0 f   fltk:Fl.obj
 0001:00026650       ?fl_GetDC@@YAPAUHDC__@@PAUHWND__@@@Z 00427650 f   fltk:Fl.obj
 0001:000266f0       ?fl_free_fonts@@YAXXZ      004276f0 f   fltk:Fl.obj
 0001:000267b0       ?fl_cleanup_dc_list@@YAXXZ 004277b0 f   fltk:Fl.obj
 0001:00026880       ?fl_clipboard_notify_change@@YAXXZ 00427880 f   fltk:Fl.obj
 0001:00026900       ?fl_clipboard_notify_empty@@YA_NXZ 00427900 f   fltk:Fl.obj
 0001:00026930       ?fl_trigger_clipboard_notify@@YAXH@Z 00427930 f   fltk:Fl.obj
 0001:00026970       ?fl_ready@@YAHXZ           00427970 f   fltk:Fl.obj
 0001:00026a50       ?fl_wait@@YAHN@Z           00427a50 f   fltk:Fl.obj
 0001:00026e60       ?fl_send_system_handlers@@YAHPAX@Z 00427e60 f   fltk:Fl.obj
 0001:00026ec0       ?fl_fix_focus@@YAXXZ       00427ec0 f   fltk:Fl.obj
 0001:000270a0       ?fl_throw_focus@@YAXPAVFl_Widget@@@Z 004280a0 f   fltk:Fl.obj
 0001:00027270       ?fl_clipboard_notify_retarget@@YAXPAUHWND__@@@Z 00428270 f   fltk:Fl.obj
 0001:000272d0       ?fl_update_clipboard@@YAXXZ 004282d0 f   fltk:Fl.obj
 0001:000273e0       ?fl_set_status@@YAXHHHH@Z  004283e0 f   fltk:Fl.obj
 0001:000273f0       ?fl_set_spot@@YAXHHHHHHPAVFl_Window@@@Z 004283f0 f   fltk:Fl.obj
 0001:00027550       ?fl_reset_spot@@YAXXZ      00428550 f   fltk:Fl.obj
 0001:00027560       ?print_window@Fl_Paged_Device@@QAEXPAVFl_Window@@HH@Z 00428560 f   fltk:Fl.obj
 0001:00027b90       ?fl_get_lcid_codepage@@YAIK@Z 00428b90 f   fltk:Fl.obj
 0001:00027bf0       ?fl_get_codepage@@YAXXZ    00428bf0 f   fltk:Fl.obj
 0001:000291b0       ?fl_filename_name@@YAPBDPBD@Z 0042a1b0 f   fltk:Fl.obj
 0001:000297b0       ?fl_xid_@@YAPAUHWND__@@PBVFl_Window@@@Z 0042a7b0 f   fltk:Fl.obj
 0001:000297e0       ??0Lf2CrlfConvert@@QAE@PBDH@Z 0042a7e0 f i fltk:Fl.obj
 0001:000299a0       ??1Fl_Win32_At_Exit@@QAE@XZ 0042a9a0 f i fltk:Fl.obj
 0001:00029a10       ??1Lf2CrlfConvert@@QAE@XZ  0042aa10 f i fltk:Fl.obj
 0001:00029a40       ??1NameList@@QAE@XZ        0042aa40 f i fltk:Fl.obj
 0001:00029aa0       ??_GFl_Device@@UAEPAXI@Z   0042aaa0 f i fltk:Fl.obj
 0001:00029aa0       ??_EFl_Device@@UAEPAXI@Z   0042aaa0 f i fltk:Fl.obj
 0001:00029ad0       ??_GFl_GDI_Graphics_Driver@@UAEPAXI@Z 0042aad0 f i fltk:Fl.obj
 0001:00029ad0       ??_EFl_GDI_Graphics_Driver@@UAEPAXI@Z 0042aad0 f i fltk:Fl.obj
 0001:00029b30       ??_GFl_Graphics_Driver@@UAEPAXI@Z 0042ab30 f i fltk:Fl.obj
 0001:00029b30       ??_EFl_Graphics_Driver@@UAEPAXI@Z 0042ab30 f i fltk:Fl.obj
 0001:00029b90       ??_GFl_Image@@UAEPAXI@Z    0042ab90 f i fltk:Fl.obj
 0001:00029b90       ??_EFl_Image@@UAEPAXI@Z    0042ab90 f i fltk:Fl.obj
 0001:00029bc0       ??_EFl_RGB_Image@@UAEPAXI@Z 0042abc0 f i fltk:Fl.obj
 0001:00029bc0       ??_GFl_RGB_Image@@UAEPAXI@Z 0042abc0 f i fltk:Fl.obj
 0001:00029bf0       ??_GFl_Surface_Device@@UAEPAXI@Z 0042abf0 f i fltk:Fl.obj
 0001:00029bf0       ??_EFl_Surface_Device@@UAEPAXI@Z 0042abf0 f i fltk:Fl.obj
 0001:00029c30       ?add_name@NameList@@QAEXPBD@Z 0042ac30 f i fltk:Fl.obj
 0001:00029cb0       ?class_name@Fl_Device@@UAEPBDXZ 0042acb0 f i fltk:Fl.obj
 0001:00029cc0       ?class_name@Fl_GDI_Graphics_Driver@@UAEPBDXZ 0042acc0 f i fltk:Fl.obj
 0001:00029cd0       ?class_name@Fl_Graphics_Driver@@UAEPBDXZ 0042acd0 f i fltk:Fl.obj
 0001:00029ce0       ?class_name@Fl_Surface_Device@@UAEPBDXZ 0042ace0 f i fltk:Fl.obj
 0001:00029cf0       ?color@Fl_Graphics_Driver@@MAEXEEE@Z 0042acf0 f i fltk:Fl.obj
 0001:00029d00       ?color@Fl_Graphics_Driver@@MAEXI@Z 0042ad00 f i fltk:Fl.obj
 0001:00029d20       ?descent@Fl_Graphics_Driver@@UAEHXZ 0042ad20 f i fltk:Fl.obj
 0001:00029d30       ?draw@Fl_Graphics_Driver@@MAEXHPBDHHH@Z 0042ad30 f i fltk:Fl.obj
 0001:00029d40       ?draw@Fl_Graphics_Driver@@MAEXPAVFl_Bitmap@@HHHHHH@Z 0042ad40 f i fltk:Fl.obj
 0001:00029d50       ?draw@Fl_Graphics_Driver@@MAEXPAVFl_Pixmap@@HHHHHH@Z 0042ad50 f i fltk:Fl.obj
 0001:00029d60       ?draw@Fl_Graphics_Driver@@MAEXPAVFl_RGB_Image@@HHHHHH@Z 0042ad60 f i fltk:Fl.obj
 0001:00029d70       ?draw@Fl_Graphics_Driver@@MAEXPBDHHH@Z 0042ad70 f i fltk:Fl.obj
 0001:00029d80       ?draw_image@Fl_Graphics_Driver@@MAEXP6AXPAXHHHPAE@Z0HHHHH@Z 0042ad80 f i fltk:Fl.obj
 0001:00029d90       ?draw_image@Fl_Graphics_Driver@@MAEXPBEHHHHHH@Z 0042ad90 f i fltk:Fl.obj
 0001:00029da0       ?draw_image_mono@Fl_Graphics_Driver@@MAEXP6AXPAXHHHPAE@Z0HHHHH@Z 0042ada0 f i fltk:Fl.obj
 0001:00029db0       ?draw_image_mono@Fl_Graphics_Driver@@MAEXPBEHHHHHH@Z 0042adb0 f i fltk:Fl.obj
 0001:00029dc0       ?font@Fl_Graphics_Driver@@UAEXHH@Z 0042adc0 f i fltk:Fl.obj
 0001:00029de0       ?height@Fl_Graphics_Driver@@UAEHXZ 0042ade0 f i fltk:Fl.obj
 0001:00029e00       ?rtl_draw@Fl_Graphics_Driver@@MAEXPBDHHH@Z 0042ae00 f i fltk:Fl.obj
 0001:00029e10       ?width@Fl_Graphics_Driver@@UAENI@Z 0042ae10 f i fltk:Fl.obj
 0001:00029e40       ?width@Fl_Graphics_Driver@@UAENPBDH@Z 0042ae40 f i fltk:Fl.obj
 0001:00029e50       ?fl_beep@@YAXH@Z           0042ae50 f   fltk:fl_ask.obj
 0001:00029ec0       ?fl_message@@YAXPBDZZ      0042aec0 f   fltk:fl_ask.obj
 0001:00029f20       ?fl_alert@@YAXPBDZZ        0042af20 f   fltk:fl_ask.obj
 0001:00029f80       ?fl_ask@@YAHPBDZZ          0042af80 f   fltk:fl_ask.obj
 0001:00029fd0       ?fl_choice@@YAHPBD000ZZ    0042afd0 f   fltk:fl_ask.obj
 0001:0002a020       ?fl_input@@YAPBDPBD0ZZ     0042b020 f   fltk:fl_ask.obj
 0001:0002a070       ?fl_password@@YAPBDPBD0ZZ  0042b070 f   fltk:fl_ask.obj
 0001:0002a0c0       ?fl_message_icon@@YAPAVFl_Widget@@XZ 0042b0c0 f   fltk:fl_ask.obj
 0001:0002a0d0       ?fl_message_hotspot@@YAXH@Z 0042b0d0 f   fltk:fl_ask.obj
 0001:0002a100       ?fl_message_hotspot@@YAHXZ 0042b100 f   fltk:fl_ask.obj
 0001:0002a110       ?fl_message_title@@YAXPBD@Z 0042b110 f   fltk:fl_ask.obj
 0001:0002a130       ?fl_message_title_default@@YAXPBD@Z 0042b130 f   fltk:fl_ask.obj
 0001:0002afb0       ??$__vcrt_va_start_verify_argument_type@PBD@@YAXXZ 0042bfb0 f i fltk:fl_ask.obj
 0001:0002afc0       ?default_atclose@Fl@@SAXPAVFl_Window@@PAX@Z 0042bfc0 f   fltk:Fl_Window.obj
 0001:0002aff0       ?window@Fl_Widget@@QBEPAVFl_Window@@XZ 0042bff0 f   fltk:Fl_Window.obj
 0001:0002b040       ?top_window@Fl_Widget@@QBEPAVFl_Window@@XZ 0042c040 f   fltk:Fl_Window.obj
 0001:0002b080       ?top_window_offset@Fl_Widget@@QBEPAVFl_Window@@AAH0@Z 0042c080 f   fltk:Fl_Window.obj
 0001:0002b100       ?_Fl_Window@Fl_Window@@AAEXXZ 0042c100 f   fltk:Fl_Window.obj
 0001:0002b1f0       ?free_icons@Fl_Window@@IAEXXZ 0042c1f0 f   fltk:Fl_Window.obj
 0001:0002b300       ??0Fl_Window@@QAE@HHPBD@Z  0042c300 f   fltk:Fl_Window.obj
 0001:0002b3a0       ??0Fl_Window@@QAE@HHHHPBD@Z 0042c3a0 f   fltk:Fl_Window.obj
 0001:0002b440       ??1Fl_Window@@UAE@XZ       0042c440 f   fltk:Fl_Window.obj
 0001:0002b530       ?label@Fl_Window@@QAEXPBD@Z 0042c530 f   fltk:Fl_Window.obj
 0001:0002b560       ?iconlabel@Fl_Window@@QAEXPBD@Z 0042c560 f   fltk:Fl_Window.obj
 0001:0002b590       ?copy_label@Fl_Window@@QAEXPBD@Z 0042c590 f   fltk:Fl_Window.obj
 0001:0002b5d0       ?default_xclass@Fl_Window@@SAXPBD@Z 0042c5d0 f   fltk:Fl_Window.obj
 0001:0002b610       ?default_xclass@Fl_Window@@SAPBDXZ 0042c610 f   fltk:Fl_Window.obj
 0001:0002b630       ?xclass@Fl_Window@@QBEPBDXZ 0042c630 f   fltk:Fl_Window.obj
 0001:0002b660       ?xclass@Fl_Window@@QAEXPBD@Z 0042c660 f   fltk:Fl_Window.obj
 0001:0002b6c0       ?default_icon@Fl_Window@@SAXPBVFl_RGB_Image@@@Z 0042c6c0 f   fltk:Fl_Window.obj
 0001:0002b6e0       ?default_icons@Fl_Window@@SAXQAPBVFl_RGB_Image@@H@Z 0042c6e0 f   fltk:Fl_Window.obj
 0001:0002b700       ?icon@Fl_Window@@QAEXPBVFl_RGB_Image@@@Z 0042c700 f   fltk:Fl_Window.obj
 0001:0002b720       ?icons@Fl_Window@@QAEXQAPBVFl_RGB_Image@@H@Z 0042c720 f   fltk:Fl_Window.obj
 0001:0002b7f0       ?icon@Fl_Window@@QBEPBXXZ  0042c7f0 f   fltk:Fl_Window.obj
 0001:0002b810       ?icon@Fl_Window@@QAEXPBX@Z 0042c810 f   fltk:Fl_Window.obj
 0001:0002b830       ?wait_for_expose@Fl_Window@@QAEXXZ 0042c830 f   fltk:Fl_Window.obj
 0001:0002b880       ?x_root@Fl_Window@@QBEHXZ  0042c880 f   fltk:Fl_Window.obj
 0001:0002b8c0       ?y_root@Fl_Window@@QBEHXZ  0042c8c0 f   fltk:Fl_Window.obj
 0001:0002b900       ?current@Fl_Window@@SAPAV1@XZ 0042c900 f   fltk:Fl_Window.obj
 0001:0002b910       ?default_callback@Fl_Window@@SAXPAV1@PAX@Z 0042c910 f   fltk:Fl_Window.obj
 0001:0002b930       ??_GFl_Window@@UAEPAXI@Z   0042c930 f i fltk:Fl_Window.obj
 0001:0002b930       ??_EFl_Window@@UAEPAXI@Z   0042c930 f i fltk:Fl_Window.obj
 0001:0002b970       ?as_gl_window@Fl_Widget@@UAEPAVFl_Gl_Window@@XZ 0042c970 f i fltk:Fl_Window.obj
 0001:0002b980       ?navigation@Fl_Group@@AAEHH@Z 0042c980 f   fltk:Fl_Group.obj
 0001:0002bb40       ?draw@Fl_Group@@MAEXXZ     0042cb40 f   fltk:Fl_Group.obj
 0001:0002bb80       ?draw_child@Fl_Group@@IBEXAAVFl_Widget@@@Z 0042cb80 f   fltk:Fl_Group.obj
 0001:0002bc30       ?draw_children@Fl_Group@@IAEXXZ 0042cc30 f   fltk:Fl_Group.obj
 0001:0002be10       ?draw_outside_label@Fl_Group@@IBEXABVFl_Widget@@@Z 0042ce10 f   fltk:Fl_Group.obj
 0001:0002c0a0       ?update_child@Fl_Group@@IBEXAAVFl_Widget@@@Z 0042d0a0 f   fltk:Fl_Group.obj
 0001:0002c160       ?sizes@Fl_Group@@IAEPAHXZ  0042d160 f   fltk:Fl_Group.obj
 0001:0002c4a0       ?handle@Fl_Group@@UAEHH@Z  0042d4a0 f   fltk:Fl_Group.obj
 0001:0002ce60       ?begin@Fl_Group@@QAEXXZ    0042de60 f   fltk:Fl_Group.obj
 0001:0002ce80       ?end@Fl_Group@@QAEXXZ      0042de80 f   fltk:Fl_Group.obj
 0001:0002cea0       ?current@Fl_Group@@SAPAV1@XZ 0042dea0 f   fltk:Fl_Group.obj
 0001:0002ceb0       ?current@Fl_Group@@SAXPAV1@@Z 0042deb0 f   fltk:Fl_Group.obj
 0001:0002cec0       ?find@Fl_Group@@QBEHPBVFl_Widget@@@Z 0042dec0 f   fltk:Fl_Group.obj
 0001:0002cf20       ?array@Fl_Group@@QBEPBQAVFl_Widget@@XZ 0042df20 f   fltk:Fl_Group.obj
 0001:0002cf50       ?resize@Fl_Group@@UAEXHHHH@Z 0042df50 f   fltk:Fl_Group.obj
 0001:0002d360       ??0Fl_Group@@QAE@HHHHPBD@Z 0042e360 f   fltk:Fl_Group.obj
 0001:0002d410       ??1Fl_Group@@UAE@XZ        0042e410 f   fltk:Fl_Group.obj
 0001:0002d460       ?add@Fl_Group@@QAEXAAVFl_Widget@@@Z 0042e460 f   fltk:Fl_Group.obj
 0001:0002d480       ?insert@Fl_Group@@QAEXAAVFl_Widget@@H@Z 0042e480 f   fltk:Fl_Group.obj
 0001:0002d620       ?remove@Fl_Group@@QAEXH@Z  0042e620 f   fltk:Fl_Group.obj
 0001:0002d720       ?remove@Fl_Group@@QAEXAAVFl_Widget@@@Z 0042e720 f   fltk:Fl_Group.obj
 0001:0002d760       ?clear@Fl_Group@@QAEXXZ    0042e760 f   fltk:Fl_Group.obj
 0001:0002d8f0       ?init_sizes@Fl_Group@@QAEXXZ 0042e8f0 f   fltk:Fl_Group.obj
 0001:0002d920       ??0Fl_Input_Choice@@QAE@HHHHPBD@Z 0042e920 f   fltk:Fl_Group.obj
 0001:0002dbd0       ??0Fl_Spinner@@QAE@HHHHPBD@Z 0042ebd0 f   fltk:Fl_Group.obj
 0001:0002e000       ??1Fl_Input@@UAE@XZ        0042f000 f i fltk:Fl_Group.obj
 0001:0002e020       ??1Fl_Repeat_Button@@UAE@XZ 0042f020 f i fltk:Fl_Group.obj
 0001:0002e040       ??1Fl_Spinner@@UAE@XZ      0042f040 f i fltk:Fl_Group.obj
 0001:0002e080       ??_EFl_Group@@UAEPAXI@Z    0042f080 f i fltk:Fl_Group.obj
 0001:0002e080       ??_GFl_Group@@UAEPAXI@Z    0042f080 f i fltk:Fl_Group.obj
 0001:0002e0b0       ??_EFl_Input_Choice@@UAEPAXI@Z 0042f0b0 f i fltk:Fl_Group.obj
 0001:0002e0b0       ??_GFl_Input_Choice@@UAEPAXI@Z 0042f0b0 f i fltk:Fl_Group.obj
 0001:0002e0e0       ??_GFl_Spinner@@UAEPAXI@Z  0042f0e0 f i fltk:Fl_Group.obj
 0001:0002e0e0       ??_EFl_Spinner@@UAEPAXI@Z  0042f0e0 f i fltk:Fl_Group.obj
 0001:0002e120       ??_EInputMenuButton@Fl_Input_Choice@@UAEPAXI@Z 0042f120 f i fltk:Fl_Group.obj
 0001:0002e120       ??_GInputMenuButton@Fl_Input_Choice@@UAEPAXI@Z 0042f120 f i fltk:Fl_Group.obj
 0001:0002e150       ?as_group@Fl_Widget@@UAEPAVFl_Group@@XZ 0042f150 f i fltk:Fl_Group.obj
 0001:0002e160       ?as_window@Fl_Widget@@UAEPAVFl_Window@@XZ 0042f160 f i fltk:Fl_Group.obj
 0001:0002e170       ?draw@InputMenuButton@Fl_Input_Choice@@EAEXXZ 0042f170 f i fltk:Fl_Group.obj
 0001:0002e270       ?draw_focus@Fl_Widget@@IAEXXZ 0042f270 f i fltk:Fl_Group.obj
 0001:0002e2d0       ?handle@Fl_Spinner@@UAEHH@Z 0042f2d0 f i fltk:Fl_Group.obj
 0001:0002e3a0       ?inp_cb@Fl_Input_Choice@@CAXPAVFl_Widget@@PAX@Z 0042f3a0 f i fltk:Fl_Group.obj
 0001:0002e4c0       ?menu_cb@Fl_Input_Choice@@CAXPAVFl_Widget@@PAX@Z 0042f4c0 f i fltk:Fl_Group.obj
 0001:0002e6c0       ?menu_x@Fl_Input_Choice@@AAEHXZ 0042f6c0 f i fltk:Fl_Group.obj
 0001:0002e710       ?resize@Fl_Input_Choice@@UAEXHHHH@Z 0042f710 f i fltk:Fl_Group.obj
 0001:0002e870       ?resize@Fl_Spinner@@UAEXHHHH@Z 0042f870 f i fltk:Fl_Group.obj
 0001:0002e960       ?sb_cb@Fl_Spinner@@CAXPAVFl_Widget@@PAV1@@Z 0042f960 f i fltk:Fl_Group.obj
 0001:0002eae0       ?update@Fl_Spinner@@AAEXXZ 0042fae0 f i fltk:Fl_Group.obj
 0001:0002ecc0       ?setonly@Fl_Menu_Item@@QAEXXZ 0042fcc0 f   fltk:Fl_Menu_.obj
 0001:0002ed70       ??0Fl_Menu_@@QAE@HHHHPBD@Z 0042fd70 f   fltk:Fl_Menu_.obj
 0001:0002ee20       ??1Fl_Menu_@@UAE@XZ        0042fe20 f   fltk:Fl_Menu_.obj
 0001:0002ee70       ?item_pathname@Fl_Menu_@@QBEHPADHPBUFl_Menu_Item@@@Z 0042fe70 f   fltk:Fl_Menu_.obj
 0001:0002f0c0       ?picked@Fl_Menu_@@QAEPBUFl_Menu_Item@@PBU2@@Z 004300c0 f   fltk:Fl_Menu_.obj
 0001:0002f1e0       ?find_item@Fl_Menu_@@QAEPBUFl_Menu_Item@@PBD@Z 004301e0 f   fltk:Fl_Menu_.obj
 0001:0002f220       ?find_item@Fl_Menu_@@QAEPBUFl_Menu_Item@@P6AXPAVFl_Widget@@PAX@Z@Z 00430220 f   fltk:Fl_Menu_.obj
 0001:0002f270       ?find_index@Fl_Menu_@@QBEHPBD@Z 00430270 f   fltk:Fl_Menu_.obj
 0001:0002f4a0       ?find_index@Fl_Menu_@@QBEHPBUFl_Menu_Item@@@Z 004304a0 f   fltk:Fl_Menu_.obj
 0001:0002f4f0       ?find_index@Fl_Menu_@@QBEHP6AXPAVFl_Widget@@PAX@Z@Z 004304f0 f   fltk:Fl_Menu_.obj
 0001:0002f540       ?menu@Fl_Menu_@@QAEXPBUFl_Menu_Item@@@Z 00430540 f   fltk:Fl_Menu_.obj
 0001:0002f570       ?copy@Fl_Menu_@@QAEXPBUFl_Menu_Item@@PAX@Z 00430570 f   fltk:Fl_Menu_.obj
 0001:0002f610       ?size@Fl_Menu_@@QBEHXZ     00430610 f   fltk:Fl_Menu_.obj
 0001:0002f640       ?clear@Fl_Menu_@@QAEXXZ    00430640 f   fltk:Fl_Menu_.obj
 0001:0002f700       ?clear_submenu@Fl_Menu_@@QAEHH@Z 00430700 f   fltk:Fl_Menu_.obj
 0001:0002f780       ?value@Fl_Menu_@@QAEHPBUFl_Menu_Item@@@Z 00430780 f   fltk:Fl_Menu_.obj
 0001:0002f7c0       ??_EFl_Menu_@@UAEPAXI@Z    004307c0 f i fltk:Fl_Menu_.obj
 0001:0002f7c0       ??_GFl_Menu_@@UAEPAXI@Z    004307c0 f i fltk:Fl_Menu_.obj
 0001:0002f7f0       ?draw@Fl_Menu_Bar@@MAEXXZ  004307f0 f   fltk:Fl_Menu_Bar.obj
 0001:0002f9a0       ?handle@Fl_Menu_Bar@@UAEHH@Z 004309a0 f   fltk:Fl_Menu_Bar.obj
 0001:0002fb10       ??0Fl_Menu_Bar@@QAE@HHHHPBD@Z 00430b10 f   fltk:Fl_Menu_Bar.obj
 0001:0002fb50       ??_GFl_Menu_Bar@@UAEPAXI@Z 00430b50 f i fltk:Fl_Menu_Bar.obj
 0001:0002fb50       ??_EFl_Menu_Bar@@UAEPAXI@Z 00430b50 f i fltk:Fl_Menu_Bar.obj
 0001:0002fb80       ??0Fl_Valuator@@IAE@HHHHPBD@Z 00430b80 f   fltk:Fl_Valuator.obj
 0001:0002fc30       ?softclamp@Fl_Valuator@@IAENN@Z 00430c30 f   fltk:Fl_Valuator.obj
 0001:0002fd50       ?handle_drag@Fl_Valuator@@IAEXN@Z 00430d50 f   fltk:Fl_Valuator.obj
 0001:0002fdc0       ?handle_release@Fl_Valuator@@IAEXXZ 00430dc0 f   fltk:Fl_Valuator.obj
 0001:0002fe20       ?value_damage@Fl_Valuator@@MAEXXZ 00430e20 f   fltk:Fl_Valuator.obj
 0001:0002fe40       ?step@Fl_Valuator@@QAEXN@Z 00430e40 f   fltk:Fl_Valuator.obj
 0001:0002ff30       ?precision@Fl_Valuator@@QAEXH@Z 00430f30 f   fltk:Fl_Valuator.obj
 0001:0002ff90       ?value@Fl_Valuator@@QAEHN@Z 00430f90 f   fltk:Fl_Valuator.obj
 0001:0002fff0       ?format@Fl_Valuator@@UAEHPAD@Z 00430ff0 f   fltk:Fl_Valuator.obj
 0001:00030140       ?round@Fl_Valuator@@QAENN@Z 00431140 f   fltk:Fl_Valuator.obj
 0001:000301c0       ?clamp@Fl_Valuator@@QAENN@Z 004311c0 f   fltk:Fl_Valuator.obj
 0001:00030280       ?increment@Fl_Valuator@@QAENNH@Z 00431280 f   fltk:Fl_Valuator.obj
 0001:00030350       ??_EFl_Valuator@@UAEPAXI@Z 00431350 f i fltk:Fl_Valuator.obj
 0001:00030350       ??_GFl_Valuator@@UAEPAXI@Z 00431350 f i fltk:Fl_Valuator.obj
 0001:00030390       ?draw@Fl_Value_Slider@@MAEXXZ 00431390 f   fltk:Fl_Value_Slider.obj
 0001:00030700       ?handle@Fl_Value_Slider@@UAEHH@Z 00431700 f   fltk:Fl_Value_Slider.obj
 0001:00030810       ??0Fl_Value_Slider@@QAE@HHHHPBD@Z 00431810 f   fltk:Fl_Value_Slider.obj
 0001:00030890       ??0Fl_Hor_Value_Slider@@QAE@HHHHPBD@Z 00431890 f   fltk:Fl_Value_Slider.obj
 0001:000308d0       ??_EFl_Hor_Value_Slider@@UAEPAXI@Z 004318d0 f i fltk:Fl_Value_Slider.obj
 0001:000308d0       ??_GFl_Hor_Value_Slider@@UAEPAXI@Z 004318d0 f i fltk:Fl_Value_Slider.obj
 0001:00030910       ??_EFl_Value_Slider@@UAEPAXI@Z 00431910 f i fltk:Fl_Value_Slider.obj
 0001:00030910       ??_GFl_Value_Slider@@UAEPAXI@Z 00431910 f i fltk:Fl_Value_Slider.obj
 0001:00030950       ?key_release_timeout@Fl_Button@@KAXPAX@Z 00431950 f   fltk:Fl_Button.obj
 0001:000309f0       ?simulate_key_action@Fl_Button@@IAEXXZ 004319f0 f   fltk:Fl_Button.obj
 0001:00030ad0       ?draw@Fl_Button@@MAEXXZ    00431ad0 f   fltk:Fl_Button.obj
 0001:00030c20       ?handle@Fl_Button@@UAEHH@Z 00431c20 f   fltk:Fl_Button.obj
 0001:000311d0       ??0Fl_Button@@QAE@HHHHPBD@Z 004321d0 f   fltk:Fl_Button.obj
 0001:00031240       ?value@Fl_Button@@QAEHH@Z  00432240 f   fltk:Fl_Button.obj
 0001:000312d0       ?setonly@Fl_Button@@QAEXXZ 004322d0 f   fltk:Fl_Button.obj
 0001:00031350       ??0Fl_Radio_Button@@QAE@HHHHPBD@Z 00432350 f   fltk:Fl_Button.obj
 0001:00031390       ??0Fl_Toggle_Button@@QAE@HHHHPBD@Z 00432390 f   fltk:Fl_Button.obj
 0001:000313d0       ??_GFl_Button@@UAEPAXI@Z   004323d0 f i fltk:Fl_Button.obj
 0001:000313d0       ??_EFl_Button@@UAEPAXI@Z   004323d0 f i fltk:Fl_Button.obj
 0001:00031400       ??_GFl_Radio_Button@@UAEPAXI@Z 00432400 f i fltk:Fl_Button.obj
 0001:00031400       ??_EFl_Radio_Button@@UAEPAXI@Z 00432400 f i fltk:Fl_Button.obj
 0001:00031430       ??_GFl_Toggle_Button@@UAEPAXI@Z 00432430 f i fltk:Fl_Button.obj
 0001:00031430       ??_EFl_Toggle_Button@@UAEPAXI@Z 00432430 f i fltk:Fl_Button.obj
 0001:00031460       ?draw@Fl_Light_Button@@MAEXXZ 00432460 f   fltk:Fl_Light_Button.obj
 0001:00031f90       ?handle@Fl_Light_Button@@UAEHH@Z 00432f90 f   fltk:Fl_Light_Button.obj
 0001:00031fd0       ??0Fl_Light_Button@@QAE@HHHHPBD@Z 00432fd0 f   fltk:Fl_Light_Button.obj
 0001:00032020       ??0Fl_Radio_Light_Button@@QAE@HHHHPBD@Z 00433020 f   fltk:Fl_Light_Button.obj
 0001:00032060       ??_GFl_Light_Button@@UAEPAXI@Z 00433060 f i fltk:Fl_Light_Button.obj
 0001:00032060       ??_EFl_Light_Button@@UAEPAXI@Z 00433060 f i fltk:Fl_Light_Button.obj
 0001:00032090       ??_EFl_Radio_Light_Button@@UAEPAXI@Z 00433090 f i fltk:Fl_Light_Button.obj
 0001:00032090       ??_GFl_Radio_Light_Button@@UAEPAXI@Z 00433090 f i fltk:Fl_Light_Button.obj
 0001:000320c0       ?fl_dir_chooser@@YAPADPBD0H@Z 004330c0 f   fltk:fl_file_dir.obj
 0001:00032260       ?fl_file_chooser@@YAPADPBD00H@Z 00433260 f   fltk:fl_file_dir.obj
 0001:000325a0       ?fl_file_chooser_callback@@YAXP6AXPBD@Z@Z 004335a0 f   fltk:fl_file_dir.obj
 0001:000325b0       ?fl_file_chooser_ok_label@@YAXPBD@Z 004335b0 f   fltk:fl_file_dir.obj
 0001:00032620       _fl_utf8bytes              00433620 f   fltk:fl_utf.obj
 0001:00032680       _fl_utf8decode             00433680 f   fltk:fl_utf.obj
 0001:00032970       _fl_utf8encode             00433970 f   fltk:fl_utf.obj
 0001:00032b00       _fl_utf8fwd                00433b00 f   fltk:fl_utf.obj
 0001:00032bb0       _fl_utf8back               00433bb0 f   fltk:fl_utf.obj
 0001:00032c50       _fl_ucs_to_Utf16           00433c50 f   fltk:fl_utf.obj
 0001:00032d70       _fl_utf8toUtf16            00433d70 f   fltk:fl_utf.obj
 0001:00032f10       _fl_utf8towc               00433f10 f   fltk:fl_utf.obj
 0001:00032f30       _fl_utf8fromwc             00433f30 f   fltk:fl_utf.obj
 0001:00033280       _fl_utf8toa                00434280 f   fltk:fl_utf.obj
 0001:000333a0       _fl_utf8froma              004343a0 f   fltk:fl_utf.obj
 0001:000334d0       _fl_utf8locale             004344d0 f   fltk:fl_utf.obj
 0001:00033510       _fl_utf8test               00434510 f   fltk:fl_utf.obj
 0001:00033590       _fl_wcwidth_               00434590 f   fltk:fl_utf.obj
 0001:000335b0       _fl_wcwidth                004345b0 f   fltk:fl_utf.obj
 0001:00033600       _fl_utf8to_mb              00434600 f   fltk:fl_utf.obj
 0001:00033780       _fl_utf8from_mb            00434780 f   fltk:fl_utf.obj
 0001:00033ab0       ?call_screen_init@Fl@@SAXXZ 00434ab0 f   fltk:screen_xywh.obj
 0001:00033ac0       ?screen_count@Fl@@SAHXZ    00434ac0 f   fltk:screen_xywh.obj
 0001:00033b00       ?screen_xywh@Fl@@SAXAAH000HH@Z 00434b00 f   fltk:screen_xywh.obj
 0001:00033b30       ?screen_xywh@Fl@@SAXAAH000H@Z 00434b30 f   fltk:screen_xywh.obj
 0001:00033bf0       ?screen_xywh@Fl@@SAXAAH000HHHH@Z 00434bf0 f   fltk:screen_xywh.obj
 0001:00033c30       ?screen_num@Fl@@SAHHH@Z    00434c30 f   fltk:screen_xywh.obj
 0001:00033cc0       ?screen_num@Fl@@SAHHHHH@Z  00434cc0 f   fltk:screen_xywh.obj
 0001:00033d70       ?screen_dpi@Fl@@SAXAAM0H@Z 00434d70 f   fltk:screen_xywh.obj
 0001:00033de0       ?screen_work_area@Fl@@SAXAAH000HH@Z 00434de0 f   fltk:screen_xywh.obj
 0001:00033e10       ?screen_work_area@Fl@@SAXAAH000H@Z 00434e10 f   fltk:screen_xywh.obj
 0001:000341b0       ?add_awake_handler_@Fl@@SAHP6AXPAX@Z0@Z 004351b0 f   fltk:Fl_lock.obj
 0001:00034290       ?get_awake_handler_@Fl@@SAHAAP6AXPAX@ZAAPAX@Z 00435290 f   fltk:Fl_lock.obj
 0001:00034320       ?lock@Fl@@SAHXZ            00435320 f   fltk:Fl_lock.obj
 0001:00034370       ?unlock@Fl@@SAXXZ          00435370 f   fltk:Fl_lock.obj
 0001:00034380       ?awake@Fl@@SAXPAX@Z        00435380 f   fltk:Fl_lock.obj
 0001:000343a0       ?awake@Fl@@SAHP6AXPAX@Z0@Z 004353a0 f   fltk:Fl_lock.obj
 0001:00034450       ?compose@Fl@@SAHAAH@Z      00435450 f   fltk:Fl_compose.obj
 0001:000344f0       ?compose_reset@Fl@@SAXXZ   004354f0 f   fltk:Fl_compose.obj
 0001:00034500       ?set_labeltype@Fl@@SAXW4Fl_Labeltype@@P6AXPBUFl_Label@@HHHHI@ZP6AX1AAH3@Z@Z 00435500 f   fltk:fl_labeltype.obj
 0001:00034520       ?draw@Fl_Label@@QBEXHHHHI@Z 00435520 f   fltk:fl_labeltype.obj
 0001:00034570       ?measure@Fl_Label@@QBEXAAH0@Z 00435570 f   fltk:fl_labeltype.obj
 0001:000345e0       ?draw_label@Fl_Widget@@IBEXXZ 004355e0 f   fltk:fl_labeltype.obj
 0001:000346b0       ?draw_label@Fl_Widget@@IBEXHHHH@Z 004356b0 f   fltk:fl_labeltype.obj
 0001:00034710       ?draw_label@Fl_Widget@@QBEXHHHHI@Z 00435710 f   fltk:fl_labeltype.obj
 0001:000347a0       ?fl_no_label@@YAXPBUFl_Label@@HHHHI@Z 004357a0 f   fltk:fl_labeltype.obj
 0001:000347b0       ?fl_normal_label@@YAXPBUFl_Label@@HHHHI@Z 004357b0 f   fltk:fl_labeltype.obj
 0001:00034840       ?fl_normal_measure@@YAXPBUFl_Label@@AAH1@Z 00435840 f   fltk:fl_labeltype.obj
 0001:000348e0       ?readqueue@Fl@@SAPAVFl_Widget@@XZ 004358e0 f   fltk:Fl_Widget.obj
 0001:00034930       ??0Fl_Widget@@IAE@HHHHPBD@Z 00435930 f   fltk:Fl_Widget.obj
 0001:00034a40       ?draw_focus@Fl_Widget@@IBEXW4Fl_Boxtype@@HHHH@Z 00435a40 f   fltk:Fl_Widget.obj
 0001:00034c70       ??1Fl_Widget@@UAE@XZ       00435c70 f   fltk:Fl_Widget.obj
 0001:00034d50       ?handle@Fl_Widget@@UAEHH@Z 00435d50 f   fltk:Fl_Widget.obj
 0001:00034d60       ?resize@Fl_Widget@@UAEXHHHH@Z 00435d60 f   fltk:Fl_Widget.obj
 0001:00034da0       ?damage_resize@Fl_Widget@@QAEHHHHH@Z 00435da0 f   fltk:Fl_Widget.obj
 0001:00034e30       ?label@Fl_Widget@@QAEXPBD@Z 00435e30 f   fltk:Fl_Widget.obj
 0001:00034ea0       ?copy_label@Fl_Widget@@QAEXPBD@Z 00435ea0 f   fltk:Fl_Widget.obj
 0001:00034f10       ?visible_r@Fl_Widget@@QBEHXZ 00435f10 f   fltk:Fl_Widget.obj
 0001:00034f60       ?show@Fl_Widget@@UAEXXZ    00435f60 f   fltk:Fl_Widget.obj
 0001:00035010       ?hide@Fl_Widget@@UAEXXZ    00436010 f   fltk:Fl_Widget.obj
 0001:000350b0       ?active_r@Fl_Widget@@QBEHXZ 004360b0 f   fltk:Fl_Widget.obj
 0001:00035100       ?activate@Fl_Widget@@QAEXXZ 00436100 f   fltk:Fl_Widget.obj
 0001:000351b0       ?deactivate@Fl_Widget@@QAEXXZ 004361b0 f   fltk:Fl_Widget.obj
 0001:00035220       ?take_focus@Fl_Widget@@QAEHXZ 00436220 f   fltk:Fl_Widget.obj
 0001:000352b0       ?default_callback@Fl_Widget@@SAXPAV1@PAX@Z 004362b0 f   fltk:Fl_Widget.obj
 0001:00035320       ?do_callback@Fl_Widget@@QAEXPAV1@PAX@Z 00436320 f   fltk:Fl_Widget.obj
 0001:000353e0       ?contains@Fl_Widget@@QBEHPBV1@@Z 004363e0 f   fltk:Fl_Widget.obj
 0001:000354d0       ??_GFl_Widget@@UAEPAXI@Z   004364d0 f i fltk:Fl_Widget.obj
 0001:000354d0       ??_EFl_Widget@@UAEPAXI@Z   004364d0 f i fltk:Fl_Widget.obj
 0001:00035500       ?draw_empty@Fl_Image@@IAEXHH@Z 00436500 f   fltk:Fl_Image.obj
 0001:00035610       ?labeltype@Fl_Image@@KAXPBUFl_Label@@HHHHI@Z 00436610 f   fltk:Fl_Image.obj
 0001:000356f0       ?measure@Fl_Image@@KAXPBUFl_Label@@AAH1@Z 004366f0 f   fltk:Fl_Image.obj
 0001:00035730       ??1Fl_Image@@UAE@XZ        00436730 f   fltk:Fl_Image.obj
 0001:00035750       ?copy@Fl_Image@@UAEPAV1@HH@Z 00436750 f   fltk:Fl_Image.obj
 0001:000357e0       ?color_average@Fl_Image@@UAEXIM@Z 004367e0 f   fltk:Fl_Image.obj
 0001:000357f0       ?desaturate@Fl_Image@@UAEXXZ 004367f0 f   fltk:Fl_Image.obj
 0001:00035800       ?label@Fl_Image@@UAEXPAVFl_Widget@@@Z 00436800 f   fltk:Fl_Image.obj
 0001:00035820       ?label@Fl_Image@@UAEXPAUFl_Menu_Item@@@Z 00436820 f   fltk:Fl_Image.obj
 0001:00035850       ?draw@Fl_Image@@UAEXHHHHHH@Z 00436850 f   fltk:Fl_Image.obj
 0001:00035870       ?uncache@Fl_Image@@UAEXXZ  00436870 f   fltk:Fl_Image.obj
 0001:00035880       ?RGB_scaling@Fl_Image@@SAXW4Fl_RGB_Scaling@@@Z 00436880 f   fltk:Fl_Image.obj
 0001:00035890       ?RGB_scaling@Fl_Image@@SA?AW4Fl_RGB_Scaling@@XZ 00436890 f   fltk:Fl_Image.obj
 0001:000358a0       ??0Fl_RGB_Image@@QAE@PBVFl_Pixmap@@I@Z 004368a0 f   fltk:Fl_Image.obj
 0001:000359e0       ??1Fl_RGB_Image@@UAE@XZ    004369e0 f   fltk:Fl_Image.obj
 0001:00035a50       ?copy@Fl_RGB_Image@@UAEPAVFl_Image@@HH@Z 00436a50 f   fltk:Fl_Image.obj
 0001:00036880       ?color_average@Fl_RGB_Image@@UAEXIM@Z 00437880 f   fltk:Fl_Image.obj
 0001:00036c40       ?desaturate@Fl_RGB_Image@@UAEXXZ 00437c40 f   fltk:Fl_Image.obj
 0001:00036e70       ?draw@Fl_RGB_Image@@UAEXHHHHHH@Z 00437e70 f   fltk:Fl_Image.obj
 0001:00036eb0       ?label@Fl_RGB_Image@@UAEXPAVFl_Widget@@@Z 00437eb0 f   fltk:Fl_Image.obj
 0001:00036ed0       ?label@Fl_RGB_Image@@UAEXPAUFl_Menu_Item@@@Z 00437ed0 f   fltk:Fl_Image.obj
 0001:00036f00       ?uncache@Fl_RGB_Image@@UAEXXZ 00437f00 f   fltk:Fl_Image.obj
 0001:00036f50       ?draw@Fl_GDI_Graphics_Driver@@UAEXPAVFl_RGB_Image@@HHHHHH@Z 00437f50 f   fltk:Fl_Image.obj
 0001:000375c0       ?tooltip@Fl_Widget@@QAEXPBD@Z 004385c0 f   fltk:Fl_Tooltip.obj
 0001:00037630       ?copy_tooltip@Fl_Widget@@QAEXPBD@Z 00438630 f   fltk:Fl_Tooltip.obj
 0001:000376c0       ?enter_area@Fl_Tooltip@@SAXPAVFl_Widget@@HHHHPBD@Z 004386c0 f   fltk:Fl_Tooltip.obj
 0001:00037870       ?current@Fl_Tooltip@@SAXPAVFl_Widget@@@Z 00438870 f   fltk:Fl_Tooltip.obj
 0001:000378c0       ?enter_@Fl_Tooltip@@CAXPAVFl_Widget@@@Z 004388c0 f   fltk:Fl_Tooltip.obj
 0001:00037950       ?exit_@Fl_Tooltip@@CAXPAVFl_Widget@@@Z 00438950 f   fltk:Fl_Tooltip.obj
 0001:00037a20       ?set_enter_exit_once_@Fl_Tooltip@@CAXXZ 00438a20 f   fltk:Fl_Tooltip.obj
 0001:00037a50       ?draw@Fl_TooltipBox@@UAEXXZ 00438a50 f   fltk:Fl_Tooltip.obj
 0001:00037b60       ?layout@Fl_TooltipBox@@QAEXXZ 00438b60 f   fltk:Fl_Tooltip.obj
 0001:00037e70       ??0Fl_TooltipBox@@QAE@XZ   00438e70 f i fltk:Fl_Tooltip.obj
 0001:00037f10       ??_GFl_TooltipBox@@UAEPAXI@Z 00438f10 f i fltk:Fl_Tooltip.obj
 0001:00037f10       ??_EFl_TooltipBox@@UAEPAXI@Z 00438f10 f i fltk:Fl_Tooltip.obj
 0001:00037f50       ?show@Fl_TooltipBox@@UAEXXZ 00438f50 f i fltk:Fl_Tooltip.obj
 0001:00037f70       ?fl_inactive@@YAII@Z       00438f70 f   fltk:fl_color.obj
 0001:00037fa0       ?fl_contrast@@YAIII@Z      00438fa0 f   fltk:fl_color.obj
 0001:00038090       ?fl_color_average@@YAIIIM@Z 00439090 f   fltk:fl_color.obj
 0001:000381e0       ?set_color@Fl@@SAXIEEE@Z   004391e0 f   fltk:fl_color.obj
 0001:00038210       ?set_color@Fl@@SAXII@Z     00439210 f   fltk:fl_color.obj
 0001:00038250       ?get_color@Fl@@SAII@Z      00439250 f   fltk:fl_color.obj
 0001:00038270       ?get_color@Fl@@SAXIAAE00@Z 00439270 f   fltk:fl_color.obj
 0001:000382c0       ?free_color@Fl@@SAXIH@Z    004392c0 f   fltk:fl_color.obj
 0001:000382e0       ?fl_brush@@YAPAUHBRUSH__@@XZ 004392e0 f   fltk:fl_color.obj
 0001:000382f0       ?fl_brush_action@@YAPAUHBRUSH__@@H@Z 004392f0 f   fltk:fl_color.obj
 0001:00038540       ?color@Fl_GDI_Graphics_Driver@@UAEXI@Z 00439540 f   fltk:fl_color.obj
 0001:00038630       ?color@Fl_GDI_Graphics_Driver@@UAEXEEE@Z 00439630 f   fltk:fl_color.obj
 0001:000386f0       ?fl_cleanup_pens@@YAXXZ    004396f0 f   fltk:fl_color.obj
 0001:00038740       ?fl_save_pen@@YAXXZ        00439740 f   fltk:fl_color.obj
 0001:00038780       ?fl_restore_pen@@YAXXZ     00439780 f   fltk:fl_color.obj
 0001:000388c0       ?fl_select_palette@@YAPAUHPALETTE__@@XZ 004398c0 f   fltk:fl_color.obj
 0001:00038a50       ?flush@Fl_Double_Window@@IAEXH@Z 00439a50 f   fltk:Fl_Double_Window.obj
 0001:00038c30       ?show@Fl_Double_Window@@UAEXXZ 00439c30 f   fltk:Fl_Double_Window.obj
 0001:00038c50       ?flush@Fl_Double_Window@@UAEXXZ 00439c50 f   fltk:Fl_Double_Window.obj
 0001:00038c70       ?resize@Fl_Double_Window@@UAEXHHHH@Z 00439c70 f   fltk:Fl_Double_Window.obj
 0001:00038d00       ?hide@Fl_Double_Window@@UAEXXZ 00439d00 f   fltk:Fl_Double_Window.obj
 0001:00038d40       ??1Fl_Double_Window@@UAE@XZ 00439d40 f   fltk:Fl_Double_Window.obj
 0001:00038d90       ??0Fl_Double_Window@@QAE@HHPBD@Z 00439d90 f   fltk:Fl_Double_Window.obj
 0001:00038dd0       ??0Fl_Double_Window@@QAE@HHHHPBD@Z 00439dd0 f   fltk:Fl_Double_Window.obj
 0001:00038e20       ??0Fl_Overlay_Window@@IAE@HHPBD@Z 00439e20 f   fltk:Fl_Double_Window.obj
 0001:00038e70       ??0Fl_Overlay_Window@@IAE@HHHHPBD@Z 00439e70 f   fltk:Fl_Double_Window.obj
 0001:00038ed0       ?fl_makeDC@@YAPAUHDC__@@PAUHBITMAP__@@@Z 00439ed0 f   fltk:Fl_Double_Window.obj
 0001:00038f30       ?fl_copy_offscreen@@YAXHHHHPAUHBITMAP__@@HH@Z 00439f30 f   fltk:Fl_Double_Window.obj
 0001:00038fc0       ?copy_offscreen@Fl_Graphics_Driver@@IAEXHHHHPAUHBITMAP__@@HH@Z 00439fc0 f   fltk:Fl_Double_Window.obj
 0001:000390f0       ?copy_offscreen_with_alpha@Fl_GDI_Graphics_Driver@@QAEXHHHHPAUHBITMAP__@@HH@Z 0043a0f0 f   fltk:Fl_Double_Window.obj
 0001:000391d0       ?copy_offscreen@Fl_GDI_Graphics_Driver@@QAEXHHHHPAUHBITMAP__@@HH@Z 0043a1d0 f   fltk:Fl_Double_Window.obj
 0001:00039250       ?fl_can_do_alpha_blending@@YADXZ 0043a250 f   fltk:Fl_Double_Window.obj
 0001:00039390       ??_GFl_Double_Window@@UAEPAXI@Z 0043a390 f i fltk:Fl_Double_Window.obj
 0001:00039390       ??_EFl_Double_Window@@UAEPAXI@Z 0043a390 f i fltk:Fl_Double_Window.obj
 0001:000393d0       ??_EFl_Overlay_Window@@UAEPAXI@Z 0043a3d0 f i fltk:Fl_Double_Window.obj
 0001:000393d0       ??_GFl_Overlay_Window@@UAEPAXI@Z 0043a3d0 f i fltk:Fl_Double_Window.obj
 0001:00039410       ?newUUID@Fl_Preferences@@SAPBDXZ 0043a410 f   fltk:Fl_Preferences.obj
 0001:000397c0       ??0Fl_Preferences@@QAE@W4Root@0@PBD1@Z 0043a7c0 f   fltk:Fl_Preferences.obj
 0001:000398d0       ??0Fl_Preferences@@QAE@PBD00@Z 0043a8d0 f   fltk:Fl_Preferences.obj
 0001:000399e0       ??0Fl_Preferences@@QAE@AAV0@PBD@Z 0043a9e0 f   fltk:Fl_Preferences.obj
 0001:00039a20       ??0Fl_Preferences@@QAE@PAV0@PBD@Z 0043aa20 f   fltk:Fl_Preferences.obj
 0001:00039bc0       ??0Fl_Preferences@@QAE@AAV0@H@Z 0043abc0 f   fltk:Fl_Preferences.obj
 0001:00039c30       ??0Fl_Preferences@@QAE@PAV0@H@Z 0043ac30 f   fltk:Fl_Preferences.obj
 0001:00039ca0       ??0Fl_Preferences@@QAE@ABV0@@Z 0043aca0 f   fltk:Fl_Preferences.obj
 0001:00039ce0       ??0Fl_Preferences@@QAE@PAX@Z 0043ace0 f   fltk:Fl_Preferences.obj
 0001:00039d20       ??1Fl_Preferences@@UAE@XZ  0043ad20 f   fltk:Fl_Preferences.obj
 0001:00039dd0       ?groups@Fl_Preferences@@QAEHXZ 0043add0 f   fltk:Fl_Preferences.obj
 0001:00039df0       ?group@Fl_Preferences@@QAEPBDH@Z 0043adf0 f   fltk:Fl_Preferences.obj
 0001:00039e10       ?groupExists@Fl_Preferences@@QAEDPBD@Z 0043ae10 f   fltk:Fl_Preferences.obj
 0001:00039e50       ?deleteGroup@Fl_Preferences@@QAEDPBD@Z 0043ae50 f   fltk:Fl_Preferences.obj
 0001:00039e90       ?deleteAllGroups@Fl_Preferences@@QAEDXZ 0043ae90 f   fltk:Fl_Preferences.obj
 0001:00039eb0       ?entries@Fl_Preferences@@QAEHXZ 0043aeb0 f   fltk:Fl_Preferences.obj
 0001:00039ed0       ?entry@Fl_Preferences@@QAEPBDH@Z 0043aed0 f   fltk:Fl_Preferences.obj
 0001:00039ef0       ?entryExists@Fl_Preferences@@QAEDPBD@Z 0043aef0 f   fltk:Fl_Preferences.obj
 0001:00039f30       ?deleteEntry@Fl_Preferences@@QAEDPBD@Z 0043af30 f   fltk:Fl_Preferences.obj
 0001:00039f50       ?deleteAllEntries@Fl_Preferences@@QAEDXZ 0043af50 f   fltk:Fl_Preferences.obj
 0001:00039f70       ?clear@Fl_Preferences@@QAEDXZ 0043af70 f   fltk:Fl_Preferences.obj
 0001:00039fa0       ?set@Fl_Preferences@@QAEDPBDH@Z 0043afa0 f   fltk:Fl_Preferences.obj
 0001:00039fe0       ?set@Fl_Preferences@@QAEDPBDM@Z 0043afe0 f   fltk:Fl_Preferences.obj
 0001:0003a030       ?set@Fl_Preferences@@QAEDPBDMH@Z 0043b030 f   fltk:Fl_Preferences.obj
 0001:0003a080       ?set@Fl_Preferences@@QAEDPBDN@Z 0043b080 f   fltk:Fl_Preferences.obj
 0001:0003a0d0       ?set@Fl_Preferences@@QAEDPBDNH@Z 0043b0d0 f   fltk:Fl_Preferences.obj
 0001:0003a120       ?set@Fl_Preferences@@QAEDPBD0@Z 0043b120 f   fltk:Fl_Preferences.obj
 0001:0003a360       ?set@Fl_Preferences@@QAEDPBDPBXH@Z 0043b360 f   fltk:Fl_Preferences.obj
 0001:0003a420       ?get@Fl_Preferences@@QAEDPBDAAHH@Z 0043b420 f   fltk:Fl_Preferences.obj
 0001:0003a480       ?get@Fl_Preferences@@QAEDPBDAAMM@Z 0043b480 f   fltk:Fl_Preferences.obj
 0001:0003a4f0       ?get@Fl_Preferences@@QAEDPBDAANN@Z 0043b4f0 f   fltk:Fl_Preferences.obj
 0001:0003a560       ?get@Fl_Preferences@@QAEDPBDAAPAD0@Z 0043b560 f   fltk:Fl_Preferences.obj
 0001:0003a600       ?get@Fl_Preferences@@QAEDPBDPAD0H@Z 0043b600 f   fltk:Fl_Preferences.obj
 0001:0003a6c0       ?get@Fl_Preferences@@QAEDPBDAAPAXPBXH@Z 0043b6c0 f   fltk:Fl_Preferences.obj
 0001:0003a740       ?get@Fl_Preferences@@QAEDPBDPAXPBXHH@Z 0043b740 f   fltk:Fl_Preferences.obj
 0001:0003a7f0       ?size@Fl_Preferences@@QAEHPBD@Z 0043b7f0 f   fltk:Fl_Preferences.obj
 0001:0003a840       ?getUserdataPath@Fl_Preferences@@QAEDPADH@Z 0043b840 f   fltk:Fl_Preferences.obj
 0001:0003a870       ?flush@Fl_Preferences@@QAEXXZ 0043b870 f   fltk:Fl_Preferences.obj
 0001:0003a8b0       ??0Name@Fl_Preferences@@QAE@I@Z 0043b8b0 f   fltk:Fl_Preferences.obj
 0001:0003a8f0       ??0Name@Fl_Preferences@@QAA@PBDZZ 0043b8f0 f   fltk:Fl_Preferences.obj
 0001:0003a940       ??1Name@Fl_Preferences@@QAE@XZ 0043b940 f   fltk:Fl_Preferences.obj
 0001:0003a970       ??4Fl_Preferences@@AAEAAV0@ABV0@@Z 0043b970 f   fltk:Fl_Preferences.obj
 0001:0003a9a0       ?createIndex@Node@Fl_Preferences@@AAEXXZ 0043b9a0 f   fltk:Fl_Preferences.obj
 0001:0003aa60       ?updateIndex@Node@Fl_Preferences@@AAEXXZ 0043ba60 f   fltk:Fl_Preferences.obj
 0001:0003aa80       ?deleteIndex@Node@Fl_Preferences@@AAEXXZ 0043ba80 f   fltk:Fl_Preferences.obj
 0001:0003aae0       ??0Node@Fl_Preferences@@QAE@PBD@Z 0043bae0 f   fltk:Fl_Preferences.obj
 0001:0003aba0       ??1Node@Fl_Preferences@@QAE@XZ 0043bba0 f   fltk:Fl_Preferences.obj
 0001:0003ac30       ?write@Node@Fl_Preferences@@QAEHPAU_iobuf@@@Z 0043bc30 f   fltk:Fl_Preferences.obj
 0001:0003ae00       ?name@Node@Fl_Preferences@@QAEPBDXZ 0043be00 f   fltk:Fl_Preferences.obj
 0001:0003ae60       ?find@Node@Fl_Preferences@@QAEPAV12@PBD@Z 0043be60 f   fltk:Fl_Preferences.obj
 0001:0003aff0       ?search@Node@Fl_Preferences@@QAEPAV12@PBDH@Z 0043bff0 f   fltk:Fl_Preferences.obj
 0001:0003b1c0       ?childNode@Node@Fl_Preferences@@QAEPAV12@H@Z 0043c1c0 f   fltk:Fl_Preferences.obj
 0001:0003b250       ?addChild@Node@Fl_Preferences@@QAEPAV12@PBD@Z 0043c250 f   fltk:Fl_Preferences.obj
 0001:0003b2d0       ?setParent@Node@Fl_Preferences@@QAEXPAV12@@Z 0043c2d0 f   fltk:Fl_Preferences.obj
 0001:0003b340       ?findRoot@Node@Fl_Preferences@@QAEPAVRootNode@2@XZ 0043c340 f   fltk:Fl_Preferences.obj
 0001:0003b3a0       ?remove@Node@Fl_Preferences@@QAEDXZ 0043c3a0 f   fltk:Fl_Preferences.obj
 0001:0003b540       ?dirty@Node@Fl_Preferences@@QAEDXZ 0043c540 f   fltk:Fl_Preferences.obj
 0001:0003b5a0       ?deleteAllChildren@Node@Fl_Preferences@@QAEXXZ 0043c5a0 f   fltk:Fl_Preferences.obj
 0001:0003b640       ?nChildren@Node@Fl_Preferences@@QAEHXZ 0043c640 f   fltk:Fl_Preferences.obj
 0001:0003b6a0       ?child@Node@Fl_Preferences@@QAEPBDH@Z 0043c6a0 f   fltk:Fl_Preferences.obj
 0001:0003b6e0       ?set@Node@Fl_Preferences@@QAEXPBD0@Z 0043c6e0 f   fltk:Fl_Preferences.obj
 0001:0003b890       ?set@Node@Fl_Preferences@@QAEXPBD@Z 0043c890 f   fltk:Fl_Preferences.obj
 0001:0003b980       ?add@Node@Fl_Preferences@@QAEXPBD@Z 0043c980 f   fltk:Fl_Preferences.obj
 0001:0003ba30       ?get@Node@Fl_Preferences@@QAEPBDPBD@Z 0043ca30 f   fltk:Fl_Preferences.obj
 0001:0003ba70       ?getEntry@Node@Fl_Preferences@@QAEHPBD@Z 0043ca70 f   fltk:Fl_Preferences.obj
 0001:0003bad0       ?deleteEntry@Node@Fl_Preferences@@QAEDPBD@Z 0043cad0 f   fltk:Fl_Preferences.obj
 0001:0003bb50       ?deleteAllEntries@Node@Fl_Preferences@@QAEXXZ 0043cb50 f   fltk:Fl_Preferences.obj
 0001:0003bc40       ??0RootNode@Fl_Preferences@@QAE@PAV1@W4Root@1@PBD2@Z 0043cc40 f   fltk:Fl_Preferences.obj
 0001:0003c0b0       ??0RootNode@Fl_Preferences@@QAE@PAV1@PBD11@Z 0043d0b0 f   fltk:Fl_Preferences.obj
 0001:0003c1f0       ??0RootNode@Fl_Preferences@@QAE@PAV1@@Z 0043d1f0 f   fltk:Fl_Preferences.obj
 0001:0003c230       ??1RootNode@Fl_Preferences@@QAE@XZ 0043d230 f   fltk:Fl_Preferences.obj
 0001:0003c350       ?read@RootNode@Fl_Preferences@@QAEHXZ 0043d350 f   fltk:Fl_Preferences.obj
 0001:0003c5c0       ?write@RootNode@Fl_Preferences@@QAEHXZ 0043d5c0 f   fltk:Fl_Preferences.obj
 0001:0003c670       ?getPath@RootNode@Fl_Preferences@@QAEDPADH@Z 0043d670 f   fltk:Fl_Preferences.obj
 0001:0003c720       ??0Fl_Plugin@@QAE@PBD0@Z   0043d720 f   fltk:Fl_Preferences.obj
 0001:0003c7b0       ??1Fl_Plugin@@UAE@XZ       0043d7b0 f   fltk:Fl_Preferences.obj
 0001:0003c810       ??0Fl_Plugin_Manager@@QAE@PBD@Z 0043d810 f   fltk:Fl_Preferences.obj
 0001:0003c8b0       ??1Fl_Plugin_Manager@@UAE@XZ 0043d8b0 f   fltk:Fl_Preferences.obj
 0001:0003c8d0       ?plugin@Fl_Plugin_Manager@@QAEPAVFl_Plugin@@H@Z 0043d8d0 f   fltk:Fl_Preferences.obj
 0001:0003c990       ?plugin@Fl_Plugin_Manager@@QAEPAVFl_Plugin@@PBD@Z 0043d990 f   fltk:Fl_Preferences.obj
 0001:0003ca60       ?addPlugin@Fl_Plugin_Manager@@QAEPAXPBDPAVFl_Plugin@@@Z 0043da60 f   fltk:Fl_Preferences.obj
 0001:0003cb10       ?removePlugin@Fl_Plugin_Manager@@SAXPAX@Z 0043db10 f   fltk:Fl_Preferences.obj
 0001:0003cb20       ?load@Fl_Plugin_Manager@@SAHPBD@Z 0043db20 f   fltk:Fl_Preferences.obj
 0001:0003cb50       ?loadAll@Fl_Plugin_Manager@@SAHPBD0@Z 0043db50 f   fltk:Fl_Preferences.obj
 0001:0003d080       ??_EFl_Plugin@@UAEPAXI@Z   0043e080 f i fltk:Fl_Preferences.obj
 0001:0003d080       ??_GFl_Plugin@@UAEPAXI@Z   0043e080 f i fltk:Fl_Preferences.obj
 0001:0003d0b0       ??_GFl_Plugin_Manager@@UAEPAXI@Z 0043e0b0 f i fltk:Fl_Preferences.obj
 0001:0003d0b0       ??_EFl_Plugin_Manager@@UAEPAXI@Z 0043e0b0 f i fltk:Fl_Preferences.obj
 0001:0003d0e0       ??_GFl_Preferences@@UAEPAXI@Z 0043e0e0 f i fltk:Fl_Preferences.obj
 0001:0003d0e0       ??_EFl_Preferences@@UAEPAXI@Z 0043e0e0 f i fltk:Fl_Preferences.obj
 0001:0003d110       ??0Fl_Graphics_Driver@@IAE@XZ 0043e110 f   fltk:Fl_Device.obj
 0001:0003d1d0       ?text_extents@Fl_Graphics_Driver@@UAEXPBDHAAH111@Z 0043e1d0 f   fltk:Fl_Device.obj
 0001:0003d240       ?set_current@Fl_Surface_Device@@UAEXXZ 0043e240 f   fltk:Fl_Device.obj
 0001:0003d260       ??0Fl_Display_Device@@QAE@PAVFl_Graphics_Driver@@@Z 0043e260 f   fltk:Fl_Device.obj
 0001:0003d2e0       ??1Fl_Surface_Device@@UAE@XZ 0043e2e0 f i fltk:Fl_Device.obj
 0001:0003d300       ??_GFl_Display_Device@@UAEPAXI@Z 0043e300 f i fltk:Fl_Device.obj
 0001:0003d300       ??_EFl_Display_Device@@UAEPAXI@Z 0043e300 f i fltk:Fl_Device.obj
 0001:0003d340       ?class_name@Fl_Display_Device@@UAEPBDXZ 0043e340 f i fltk:Fl_Device.obj
 0001:0003d350       ?rect@Fl_Graphics_Driver@@MAEXHHHH@Z 0043e350 f   fltk:fl_rect.obj
 0001:0003d400       ?rectf@Fl_Graphics_Driver@@MAEXHHHH@Z 0043e400 f   fltk:fl_rect.obj
 0001:0003d470       ?xyline@Fl_Graphics_Driver@@MAEXHHH@Z 0043e470 f   fltk:fl_rect.obj
 0001:0003d4b0       ?xyline@Fl_Graphics_Driver@@MAEXHHHH@Z 0043e4b0 f   fltk:fl_rect.obj
 0001:0003d520       ?xyline@Fl_Graphics_Driver@@MAEXHHHHH@Z 0043e520 f   fltk:fl_rect.obj
 0001:0003d5a0       ?yxline@Fl_Graphics_Driver@@MAEXHHH@Z 0043e5a0 f   fltk:fl_rect.obj
 0001:0003d600       ?yxline@Fl_Graphics_Driver@@MAEXHHHH@Z 0043e600 f   fltk:fl_rect.obj
 0001:0003d670       ?yxline@Fl_Graphics_Driver@@MAEXHHHHH@Z 0043e670 f   fltk:fl_rect.obj
 0001:0003d6f0       ?line@Fl_Graphics_Driver@@MAEXHHHH@Z 0043e6f0 f   fltk:fl_rect.obj
 0001:0003d750       ?line@Fl_Graphics_Driver@@MAEXHHHHHH@Z 0043e750 f   fltk:fl_rect.obj
 0001:0003d7d0       ?point@Fl_Graphics_Driver@@MAEXHH@Z 0043e7d0 f   fltk:fl_rect.obj
 0001:0003d810       ?loop@Fl_Graphics_Driver@@MAEXHHHHHH@Z 0043e810 f   fltk:fl_rect.obj
 0001:0003d880       ?loop@Fl_Graphics_Driver@@MAEXHHHHHHHH@Z 0043e880 f   fltk:fl_rect.obj
 0001:0003d900       ?polygon@Fl_Graphics_Driver@@MAEXHHHHHH@Z 0043e900 f   fltk:fl_rect.obj
 0001:0003d9b0       ?polygon@Fl_Graphics_Driver@@MAEXHHHHHHHH@Z 0043e9b0 f   fltk:fl_rect.obj
 0001:0003da70       ?push_clip@Fl_Graphics_Driver@@MAEXHHHH@Z 0043ea70 f   fltk:fl_rect.obj
 0001:0003db40       ?clip_box@Fl_Graphics_Driver@@MAEHHHHHAAH000@Z 0043eb40 f   fltk:fl_rect.obj
 0001:0003dd10       ?not_clipped@Fl_Graphics_Driver@@MAEHHHHH@Z 0043ed10 f   fltk:fl_rect.obj
 0001:0003de30       ?push_no_clip@Fl_Graphics_Driver@@MAEXXZ 0043ee30 f   fltk:fl_rect.obj
 0001:0003de90       ?pop_clip@Fl_Graphics_Driver@@MAEXXZ 0043ee90 f   fltk:fl_rect.obj
 0001:0003df00       ?clip_region@Fl_Graphics_Driver@@IAEPAUHRGN__@@XZ 0043ef00 f   fltk:fl_rect.obj
 0001:0003df20       ?clip_region@Fl_Graphics_Driver@@IAEXPAUHRGN__@@@Z 0043ef20 f   fltk:fl_rect.obj
 0001:0003df80       ?restore_clip@Fl_Graphics_Driver@@IAEXXZ 0043ef80 f   fltk:fl_rect.obj
 0001:0003dfd0       ?line_style@Fl_Graphics_Driver@@MAEXHHPAD@Z 0043efd0 f   fltk:fl_line_style.obj
 0001:0003e180       ?transformed_vertex0@Fl_Graphics_Driver@@AAEXHH@Z 0043f180 f   fltk:fl_vertex.obj
 0001:0003e290       ?fixloop@Fl_Graphics_Driver@@AAEXXZ 0043f290 f   fltk:fl_vertex.obj
 0001:0003e320       ?begin_points@Fl_Graphics_Driver@@MAEXXZ 0043f320 f   fltk:fl_vertex.obj
 0001:0003e350       ?begin_line@Fl_Graphics_Driver@@MAEXXZ 0043f350 f   fltk:fl_vertex.obj
 0001:0003e380       ?begin_loop@Fl_Graphics_Driver@@MAEXXZ 0043f380 f   fltk:fl_vertex.obj
 0001:0003e3b0       ?begin_polygon@Fl_Graphics_Driver@@MAEXXZ 0043f3b0 f   fltk:fl_vertex.obj
 0001:0003e3e0       ?vertex@Fl_Graphics_Driver@@MAEXNN@Z 0043f3e0 f   fltk:fl_vertex.obj
 0001:0003e460       ?circle@Fl_Graphics_Driver@@MAEXNNN@Z 0043f460 f   fltk:fl_vertex.obj
 0001:0003e6f0       ?end_points@Fl_Graphics_Driver@@MAEXXZ 0043f6f0 f   fltk:fl_vertex.obj
 0001:0003e760       ?end_line@Fl_Graphics_Driver@@MAEXXZ 0043f760 f   fltk:fl_vertex.obj
 0001:0003e7c0       ?end_loop@Fl_Graphics_Driver@@MAEXXZ 0043f7c0 f   fltk:fl_vertex.obj
 0001:0003e840       ?end_polygon@Fl_Graphics_Driver@@MAEXXZ 0043f840 f   fltk:fl_vertex.obj
 0001:0003e8c0       ?begin_complex_polygon@Fl_Graphics_Driver@@MAEXXZ 0043f8c0 f   fltk:fl_vertex.obj
 0001:0003e900       ?gap@Fl_Graphics_Driver@@MAEXXZ 0043f900 f   fltk:fl_vertex.obj
 0001:0003ea70       ?end_complex_polygon@Fl_Graphics_Driver@@MAEXXZ 0043fa70 f   fltk:fl_vertex.obj
 0001:0003eb00       ?transformed_vertex@Fl_Graphics_Driver@@MAEXNN@Z 0043fb00 f   fltk:fl_vertex.obj
 0001:0003eb50       ?push_matrix@Fl_Graphics_Driver@@IAEXXZ 0043fb50 f   fltk:fl_vertex.obj
 0001:0003ebb0       ?pop_matrix@Fl_Graphics_Driver@@IAEXXZ 0043fbb0 f   fltk:fl_vertex.obj
 0001:0003ec10       ?mult_matrix@Fl_Graphics_Driver@@IAEXNNNNNN@Z 0043fc10 f   fltk:fl_vertex.obj
 0001:0003ed60       ?rotate@Fl_Graphics_Driver@@IAEXN@Z 0043fd60 f   fltk:fl_vertex.obj
 0001:0003ef20       ?transform_x@Fl_Graphics_Driver@@IAENNN@Z 0043ff20 f   fltk:fl_vertex.obj
 0001:0003ef70       ?transform_y@Fl_Graphics_Driver@@IAENNN@Z 0043ff70 f   fltk:fl_vertex.obj
 0001:0003efc0       ?transform_dx@Fl_Graphics_Driver@@IAENNN@Z 0043ffc0 f   fltk:fl_vertex.obj
 0001:0003f000       ?transform_dy@Fl_Graphics_Driver@@IAENNN@Z 00440000 f   fltk:fl_vertex.obj
 0001:0003f040       ?curve@Fl_Graphics_Driver@@MAEXNNNNNNNN@Z 00440040 f   fltk:fl_curve.obj
 0001:0003f5d0       ?arc@Fl_Graphics_Driver@@MAEXNNNNN@Z 004405d0 f   fltk:fl_arc.obj
 0001:0003f970       ?arc@Fl_Graphics_Driver@@MAEXHHHHNN@Z 00440970 f   fltk:fl_arci.obj
 0001:0003fbb0       ?pie@Fl_Graphics_Driver@@MAEXHHHHNN@Z 00440bb0 f   fltk:fl_arci.obj
 0001:0003fe50       ?draw@Fl_GDI_Graphics_Driver@@UAEXPBDHHH@Z 00440e50 f   fltk:fl_font.obj
 0001:0003ff50       ?draw@Fl_GDI_Graphics_Driver@@UAEXHPBDHHH@Z 00440f50 f   fltk:fl_font.obj
 0001:000400a0       ?rtl_draw@Fl_GDI_Graphics_Driver@@UAEXPBDHHH@Z 004410a0 f   fltk:fl_font.obj
 0001:000401e0       ?font@Fl_GDI_Graphics_Driver@@UAEXHH@Z 004411e0 f   fltk:fl_font.obj
 0001:00040210       ?width@Fl_GDI_Graphics_Driver@@UAENPBDH@Z 00441210 f   fltk:fl_font.obj
 0001:000402c0       ?width@Fl_GDI_Graphics_Driver@@UAENI@Z 004412c0 f   fltk:fl_font.obj
 0001:00040510       ?text_extents@Fl_GDI_Graphics_Driver@@UAEXPBDHAAH111@Z 00441510 f   fltk:fl_font.obj
 0001:000409d0       ?height@Fl_GDI_Graphics_Driver@@UAEHXZ 004419d0 f   fltk:fl_font.obj
 0001:00040a10       ?descent@Fl_GDI_Graphics_Driver@@UAEHXZ 00441a10 f   fltk:fl_font.obj
 0001:00040a40       ?fl_width@@YANPBD@Z        00441a40 f   fltk:fl_font.obj
 0001:00040a90       ?fl_text_extents@@YAXPBDAAH111@Z 00441a90 f   fltk:fl_font.obj
 0001:00040b10       ?fl_draw@@YAXPBDHH@Z       00441b10 f   fltk:fl_font.obj
 0001:00040b50       ?fl_draw@@YAXHPBDHH@Z      00441b50 f   fltk:fl_font.obj
 0001:00040b90       ??0Fl_Font_Descriptor@@QAE@PBDH@Z 00441b90 f   fltk:fl_font.obj
 0001:00040d40       ??1Fl_Font_Descriptor@@QAE@XZ 00441d40 f   fltk:fl_font.obj
 0001:00041080       ?fl_draw@@YAXPBDHMM@Z      00442080 f   fltk:fl_font.obj
 0001:000410b0       ?copy_data@Fl_Pixmap@@AAEXXZ 004420b0 f   fltk:Fl_Pixmap.obj
 0001:00041390       ?delete_data@Fl_Pixmap@@AAEXXZ 00442390 f   fltk:Fl_Pixmap.obj
 0001:00041410       ?set_data@Fl_Pixmap@@AAEXPBQBD@Z 00442410 f   fltk:Fl_Pixmap.obj
 0001:00041490       ?prepare@Fl_Pixmap@@AAEHHHHHAAH00000@Z 00442490 f   fltk:Fl_Pixmap.obj
 0001:000416e0       ?measure@Fl_Pixmap@@IAEXXZ 004426e0 f   fltk:Fl_Pixmap.obj
 0001:00041750       ??1Fl_Pixmap@@UAE@XZ       00442750 f   fltk:Fl_Pixmap.obj
 0001:000417b0       ?copy@Fl_Pixmap@@UAEPAVFl_Image@@HH@Z 004427b0 f   fltk:Fl_Pixmap.obj
 0001:00041e60       ?color_average@Fl_Pixmap@@UAEXIM@Z 00442e60 f   fltk:Fl_Pixmap.obj
 0001:00042480       ?desaturate@Fl_Pixmap@@UAEXXZ 00443480 f   fltk:Fl_Pixmap.obj
 0001:000429a0       ?draw@Fl_Pixmap@@UAEXHHHHHH@Z 004439a0 f   fltk:Fl_Pixmap.obj
 0001:000429e0       ?label@Fl_Pixmap@@UAEXPAVFl_Widget@@@Z 004439e0 f   fltk:Fl_Pixmap.obj
 0001:00042a00       ?label@Fl_Pixmap@@UAEXPAUFl_Menu_Item@@@Z 00443a00 f   fltk:Fl_Pixmap.obj
 0001:00042a30       ?uncache@Fl_Pixmap@@UAEXXZ 00443a30 f   fltk:Fl_Pixmap.obj
 0001:00042a80       ?draw@Fl_GDI_Graphics_Driver@@UAEXPAVFl_Pixmap@@HHHHHH@Z 00443a80 f   fltk:Fl_Pixmap.obj
 0001:00042bc0       ?draw@Fl_GDI_Printer_Graphics_Driver@@UAEXPAVFl_Pixmap@@HHHHHH@Z 00443bc0 f   fltk:Fl_Pixmap.obj
 0001:00042e70       ??0Fl_Pixmap@@QAE@PBQAD@Z  00443e70 f i fltk:Fl_Pixmap.obj
 0001:00042f40       ??0Fl_Pixmap@@QAE@PBQBD@Z  00443f40 f i fltk:Fl_Pixmap.obj
 0001:00043010       ??_EFl_Pixmap@@UAEPAXI@Z   00444010 f i fltk:Fl_Pixmap.obj
 0001:00043010       ??_GFl_Pixmap@@UAEPAXI@Z   00444010 f i fltk:Fl_Pixmap.obj
 0001:00043040       ___local_stdio_scanf_options 00444040 f i fltk:Fl_Pixmap.obj
 0001:00043050       _sscanf                    00444050 f i fltk:Fl_Pixmap.obj
 0001:000430a0       ?start@Fl_Bitmap@@AAEHHHHHAAH00000@Z 004440a0 f   fltk:Fl_Bitmap.obj
 0001:00043250       ??1Fl_Bitmap@@UAE@XZ       00444250 f   fltk:Fl_Bitmap.obj
 0001:000432c0       ?copy@Fl_Bitmap@@UAEPAVFl_Image@@HH@Z 004442c0 f   fltk:Fl_Bitmap.obj
 0001:000436c0       ?draw@Fl_Bitmap@@UAEXHHHHHH@Z 004446c0 f   fltk:Fl_Bitmap.obj
 0001:00043700       ?label@Fl_Bitmap@@UAEXPAVFl_Widget@@@Z 00444700 f   fltk:Fl_Bitmap.obj
 0001:00043720       ?label@Fl_Bitmap@@UAEXPAUFl_Menu_Item@@@Z 00444720 f   fltk:Fl_Bitmap.obj
 0001:00043750       ?uncache@Fl_Bitmap@@UAEXXZ 00444750 f   fltk:Fl_Bitmap.obj
 0001:00043780       ?fl_create_bitmask@@YAPAUHBITMAP__@@HHPBE@Z 00444780 f   fltk:Fl_Bitmap.obj
 0001:00043a40       ?fl_create_alphamask@@YAPAUHBITMAP__@@HHHHPBE@Z 00444a40 f   fltk:Fl_Bitmap.obj
 0001:00043b80       ?fl_delete_bitmask@@YAXPAUHBITMAP__@@@Z 00444b80 f   fltk:Fl_Bitmap.obj
 0001:00043b90       ?draw@Fl_GDI_Graphics_Driver@@UAEXPAVFl_Bitmap@@HHHHHH@Z 00444b90 f   fltk:Fl_Bitmap.obj
 0001:00043c60       ?draw@Fl_GDI_Printer_Graphics_Driver@@UAEXPAVFl_Bitmap@@HHHHHH@Z 00444c60 f   fltk:Fl_Bitmap.obj
 0001:00044100       ??_EFl_Bitmap@@UAEPAXI@Z   00445100 f i fltk:Fl_Bitmap.obj
 0001:00044100       ??_GFl_Bitmap@@UAEPAXI@Z   00445100 f i fltk:Fl_Bitmap.obj
 0001:00044130       ?draw_image@Fl_GDI_Graphics_Driver@@UAEXPBEHHHHHH@Z 00445130 f   fltk:fl_draw_image.obj
 0001:000441e0       ?draw_image@Fl_GDI_Graphics_Driver@@UAEXP6AXPAXHHHPAE@Z0HHHHH@Z 004451e0 f   fltk:fl_draw_image.obj
 0001:000442a0       ?draw_image_mono@Fl_GDI_Graphics_Driver@@UAEXPBEHHHHHH@Z 004452a0 f   fltk:fl_draw_image.obj
 0001:00044330       ?draw_image_mono@Fl_GDI_Graphics_Driver@@UAEXP6AXPAXHHHPAE@Z0HHHHH@Z 00445330 f   fltk:fl_draw_image.obj
 0001:000443c0       ?fl_rectf@@YAXHHHHEEE@Z    004453c0 f   fltk:fl_draw_image.obj
 0001:00044f80       ?fl_read_image@@YAPAEPAEHHHHH@Z 00445f80 f   fltk:fl_read_image.obj
 0001:00045290       ?get_system_colors@Fl@@SAXXZ 00446290 f   fltk:Fl_get_system_colors.obj
 0001:00045310       ?foreground@Fl@@SAXEEE@Z   00446310 f   fltk:Fl_get_system_colors.obj
 0001:00045340       ?background@Fl@@SAXEEE@Z   00446340 f   fltk:Fl_get_system_colors.obj
 0001:000455d0       ?background2@Fl@@SAXEEE@Z  004465d0 f   fltk:Fl_get_system_colors.obj
 0001:00045620       ?scheme@Fl@@SAHPBD@Z       00446620 f   fltk:Fl_get_system_colors.obj
 0001:00045770       ?reload_scheme@Fl@@SAHXZ   00446770 f   fltk:Fl_get_system_colors.obj
 0001:00045e00       ?fl_parse_color@@YAHPBDAAE11@Z 00446e00 f   fltk:Fl_get_system_colors.obj
 0001:00046110       ?border@Fl_Window@@QAEXH@Z 00447110 f   fltk:Fl_Window_fullscreen.obj
 0001:000461a0       ?fullscreen@Fl_Window@@QAEXXZ 004471a0 f   fltk:Fl_Window_fullscreen.obj
 0001:00046250       ?fullscreen_off@Fl_Window@@QAEXXZ 00447250 f   fltk:Fl_Window_fullscreen.obj
 0001:000462c0       ?fullscreen_off@Fl_Window@@QAEXHHHH@Z 004472c0 f   fltk:Fl_Window_fullscreen.obj
 0001:00046360       ?fullscreen_screens@Fl_Window@@QAEXHHHH@Z 00447360 f   fltk:Fl_Window_fullscreen.obj
 0001:00046410       ?dnd@Fl@@SAHXZ             00447410 f   fltk:fl_dnd.obj
 0001:00046550       ??_EFLDataObject@@UAEPAXI@Z 00447550 f i fltk:fl_dnd.obj
 0001:00046550       ??_GFLDataObject@@UAEPAXI@Z 00447550 f i fltk:fl_dnd.obj
 0001:00046580       ??_EFLDropSource@@UAEPAXI@Z 00447580 f i fltk:fl_dnd.obj
 0001:00046580       ??_GFLDropSource@@UAEPAXI@Z 00447580 f i fltk:fl_dnd.obj
 0001:000465b0       ??_GFLDropTarget@@UAEPAXI@Z 004475b0 f i fltk:fl_dnd.obj
 0001:000465b0       ??_EFLDropTarget@@UAEPAXI@Z 004475b0 f i fltk:fl_dnd.obj
 0001:000465e0       ?AddRef@FLDataObject@@UAGKXZ 004475e0 f i fltk:fl_dnd.obj
 0001:00046610       ?AddRef@FLDropSource@@UAGKXZ 00447610 f i fltk:fl_dnd.obj
 0001:00046640       ?AddRef@FLDropTarget@@UAGKXZ 00447640 f i fltk:fl_dnd.obj
 0001:00046670       ?DAdvise@FLDataObject@@UAGJPAUtagFORMATETC@@KPAUIAdviseSink@@PAK@Z 00447670 f i fltk:fl_dnd.obj
 0001:00046680       ?DUnadvise@FLDataObject@@UAGJK@Z 00447680 f i fltk:fl_dnd.obj
 0001:00046690       ?DragEnter@FLDropTarget@@UAGJPAUIDataObject@@KU_POINTL@@PAK@Z 00447690 f i fltk:fl_dnd.obj
 0001:00046790       ?DragLeave@FLDropTarget@@UAGJXZ 00447790 f i fltk:fl_dnd.obj
 0001:00046810       ?DragOver@FLDropTarget@@UAGJKU_POINTL@@PAK@Z 00447810 f i fltk:fl_dnd.obj
 0001:00046920       ?Drop@FLDropTarget@@UAGJPAUIDataObject@@KU_POINTL@@PAK@Z 00447920 f i fltk:fl_dnd.obj
 0001:00046b20       ?EnumDAdvise@FLDataObject@@UAGJPAPAUIEnumSTATDATA@@@Z 00447b20 f i fltk:fl_dnd.obj
 0001:00046b30       ?EnumFormatEtc@FLDataObject@@UAGJKPAPAUIEnumFORMATETC@@@Z 00447b30 f i fltk:fl_dnd.obj
 0001:00046b40       ?GetCanonicalFormatEtc@FLDataObject@@UAGJPAUtagFORMATETC@@0@Z 00447b40 f i fltk:fl_dnd.obj
 0001:00046b50       ?GetData@FLDataObject@@UAGJPAUtagFORMATETC@@PAUtagSTGMEDIUM@@@Z 00447b50 f i fltk:fl_dnd.obj
 0001:00046c40       ?GetDataHere@FLDataObject@@UAGJPAUtagFORMATETC@@PAUtagSTGMEDIUM@@@Z 00447c40 f i fltk:fl_dnd.obj
 0001:00046c50       ?GiveFeedback@FLDropSource@@UAGJK@Z 00447c50 f i fltk:fl_dnd.obj
 0001:00046c60       ?QueryContinueDrag@FLDropSource@@UAGJHK@Z 00447c60 f i fltk:fl_dnd.obj
 0001:00046c90       ?QueryGetData@FLDataObject@@UAGJPAUtagFORMATETC@@@Z 00447c90 f i fltk:fl_dnd.obj
 0001:00046cd0       ?QueryInterface@FLDataObject@@UAGJABU_GUID@@PAPAX@Z 00447cd0 f i fltk:fl_dnd.obj
 0001:00046da0       ?QueryInterface@FLDropSource@@UAGJABU_GUID@@PAPAX@Z 00447da0 f i fltk:fl_dnd.obj
 0001:00046e70       ?QueryInterface@FLDropTarget@@UAGJABU_GUID@@PAPAX@Z 00447e70 f i fltk:fl_dnd.obj
 0001:00046f40       ?Release@FLDataObject@@UAGKXZ 00447f40 f i fltk:fl_dnd.obj
 0001:00046fa0       ?Release@FLDropSource@@UAGKXZ 00447fa0 f i fltk:fl_dnd.obj
 0001:00047000       ?Release@FLDropTarget@@UAGKXZ 00448000 f i fltk:fl_dnd.obj
 0001:00047060       ?SetData@FLDataObject@@UAGJPAUtagFORMATETC@@PAUtagSTGMEDIUM@@H@Z 00448060 f i fltk:fl_dnd.obj
 0001:00047070       ?fillCurrentDragData@FLDropTarget@@CADPAUIDataObject@@@Z 00448070 f i fltk:fl_dnd.obj
 0001:000474c0       _fl_utf8len                004484c0 f   fltk:fl_utf8.obj
 0001:00047530       _fl_utf8len1               00448530 f   fltk:fl_utf8.obj
 0001:000475a0       _fl_utf_nb_char            004485a0 f   fltk:fl_utf8.obj
 0001:00047610       _fl_nonspacing             00448610 f   fltk:fl_utf8.obj
 0001:00047630       _fl_utf2mbcs               00448630 f   fltk:fl_utf8.obj
 0001:00047710       _fl_utf8_to_locale         00448710 f   fltk:fl_utf8.obj
 0001:00047830       _fl_locale_to_utf8         00448830 f   fltk:fl_utf8.obj
 0001:00047940       _fl_utf_strncasecmp        00448940 f   fltk:fl_utf8.obj
 0001:000479f0       _fl_utf_strcasecmp         004489f0 f   fltk:fl_utf8.obj
 0001:00047a10       _fl_tolower                00448a10 f   fltk:fl_utf8.obj
 0001:00047a30       _fl_toupper                00448a30 f   fltk:fl_utf8.obj
 0001:00047a50       _fl_utf_tolower            00448a50 f   fltk:fl_utf8.obj
 0001:00047af0       _fl_utf_toupper            00448af0 f   fltk:fl_utf8.obj
 0001:00047b90       _fl_chmod                  00448b90 f   fltk:fl_utf8.obj
 0001:00047c20       _fl_access                 00448c20 f   fltk:fl_utf8.obj
 0001:00047cb0       _fl_stat                   00448cb0 f   fltk:fl_utf8.obj
 0001:00047d40       _fl_getcwd                 00448d40 f   fltk:fl_utf8.obj
 0001:00047df0       _fl_fopen                  00448df0 f   fltk:fl_utf8.obj
 0001:00047ef0       _fl_system                 00448ef0 f   fltk:fl_utf8.obj
 0001:00047f80       _fl_execvp                 00448f80 f   fltk:fl_utf8.obj
 0001:00048150       _fl_open                   00449150 f   fltk:fl_utf8.obj
 0001:00048290       _fl_unlink                 00449290 f   fltk:fl_utf8.obj
 0001:00048320       _fl_rmdir                  00449320 f   fltk:fl_utf8.obj
 0001:000483b0       _fl_getenv                 004493b0 f   fltk:fl_utf8.obj
 0001:000484c0       _fl_mkdir                  004494c0 f   fltk:fl_utf8.obj
 0001:00048550       _fl_rename                 00449550 f   fltk:fl_utf8.obj
 0001:00048650       _fl_make_path_for_file     00449650 f   fltk:fl_utf8.obj
 0001:000486d0       _fl_make_path              004496d0 f   fltk:fl_utf8.obj
 0001:00048830       ??$__vcrt_va_start_verify_argument_type@H@@YAXXZ 00449830 f i fltk:fl_utf8.obj
 0001:00048840       _fl_snprintf               00449840 f   fltk:vsnprintf.obj
 0001:00048880       _fl_vsnprintf              00449880 f   fltk:vsnprintf.obj
 0001:00049310       ?grab@Fl@@SAXPAVFl_Window@@@Z 0044a310 f   fltk:Fl_grab.obj
 0001:000493b0       ?test_shortcut@Fl@@SAHI@Z  0044a3b0 f   fltk:fl_shortcut.obj
 0001:000494d0       ?test_shortcut@Fl_Widget@@QAEHXZ 0044a4d0 f   fltk:fl_shortcut.obj
 0001:00049510       ?label_shortcut@Fl_Widget@@SAIPBD@Z 0044a510 f   fltk:fl_shortcut.obj
 0001:00049580       ?test_shortcut@Fl_Widget@@SAHPBD_N@Z 0044a580 f   fltk:fl_shortcut.obj
 0001:00049610       ?fl_old_shortcut@@YAIPBD@Z 0044a610 f   fltk:fl_shortcut.obj
 0001:00049760       ?fl_shortcut_label@@YAPBDI@Z 0044a760 f   fltk:fl_shortcut.obj
 0001:00049780       ?fl_shortcut_label@@YAPBDIPAPBD@Z 0044a780 f   fltk:fl_shortcut.obj
 0001:00049a20       ?draw@Fl_Box@@MAEXXZ       0044aa20 f   fltk:Fl_Box.obj
 0001:00049a40       ??0Fl_Box@@QAE@HHHHPBD@Z   0044aa40 f   fltk:Fl_Box.obj
 0001:00049a80       ??0Fl_Box@@QAE@W4Fl_Boxtype@@HHHHPBD@Z 0044aa80 f   fltk:Fl_Box.obj
 0001:00049ac0       ?handle@Fl_Box@@UAEHH@Z    0044aac0 f   fltk:Fl_Box.obj
 0001:00049af0       ??_EFl_Box@@UAEPAXI@Z      0044aaf0 f i fltk:Fl_Box.obj
 0001:00049af0       ??_GFl_Box@@UAEPAXI@Z      0044aaf0 f i fltk:Fl_Box.obj
 0001:00049b20       ?draw@Fl_Return_Button@@MAEXXZ 0044ab20 f   fltk:Fl_Return_Button.obj
 0001:00049cc0       ?handle@Fl_Return_Button@@UAEHH@Z 0044acc0 f   fltk:Fl_Return_Button.obj
 0001:00049d20       ??0Fl_Return_Button@@QAE@HHHHPBD@Z 0044ad20 f   fltk:Fl_Return_Button.obj
 0001:00049d60       ?fl_return_arrow@@YAHHHHH@Z 0044ad60 f   fltk:Fl_Return_Button.obj
 0001:00049f20       ??_EFl_Return_Button@@UAEPAXI@Z 0044af20 f i fltk:Fl_Return_Button.obj
 0001:00049f20       ??_GFl_Return_Button@@UAEPAXI@Z 0044af20 f i fltk:Fl_Return_Button.obj
 0001:00049f50       ?hotspot@Fl_Window@@QAEXHHH@Z 0044af50 f   fltk:Fl_Window_hotspot.obj
 0001:0004a160       ?hotspot@Fl_Window@@QAEXPBVFl_Widget@@H@Z 0044b160 f   fltk:Fl_Window_hotspot.obj
 0001:0004a1f0       ?expand@Fl_Input_@@ABEPBDPBDPAD@Z 0044b1f0 f   fltk:Fl_Input_.obj
 0001:0004a4b0       ?expandpos@Fl_Input_@@ABENPBD00PAH@Z 0044b4b0 f   fltk:Fl_Input_.obj
 0001:0004a630       ?minimal_update@Fl_Input_@@AAEXHH@Z 0044b630 f   fltk:Fl_Input_.obj
 0001:0004a660       ?minimal_update@Fl_Input_@@AAEXH@Z 0044b660 f   fltk:Fl_Input_.obj
 0001:0004a6d0       ?put_in_buffer@Fl_Input_@@AAEXH@Z 0044b6d0 f   fltk:Fl_Input_.obj
 0001:0004a850       ?setfont@Fl_Input_@@ABEXXZ 0044b850 f   fltk:Fl_Input_.obj
 0001:0004a8a0       ?word_start@Fl_Input_@@IBEHH@Z 0044b8a0 f   fltk:Fl_Input_.obj
 0001:0004a930       ?word_end@Fl_Input_@@IBEHH@Z 0044b930 f   fltk:Fl_Input_.obj
 0001:0004a9d0       ?line_start@Fl_Input_@@IBEHH@Z 0044b9d0 f   fltk:Fl_Input_.obj
 0001:0004ab20       ?line_end@Fl_Input_@@IBEHH@Z 0044bb20 f   fltk:Fl_Input_.obj
 0001:0004acb0       ?drawtext@Fl_Input_@@IAEXHHHH@Z 0044bcb0 f   fltk:Fl_Input_.obj
 0001:0004bfd0       ?up_down_position@Fl_Input_@@IAEHHH@Z 0044cfd0 f   fltk:Fl_Input_.obj
 0001:0004c170       ?handle_mouse@Fl_Input_@@IAEXHHHHH@Z 0044d170 f   fltk:Fl_Input_.obj
 0001:0004c8a0       ?handletext@Fl_Input_@@IAEHHHHHH@Z 0044d8a0 f   fltk:Fl_Input_.obj
 0001:0004cfb0       ?maybe_do_callback@Fl_Input_@@IAEXXZ 0044dfb0 f   fltk:Fl_Input_.obj
 0001:0004cff0       ?linesPerPage@Fl_Input_@@IAEHXZ 0044dff0 f   fltk:Fl_Input_.obj
 0001:0004d090       ?resize@Fl_Input_@@UAEXHHHH@Z 0044e090 f   fltk:Fl_Input_.obj
 0001:0004d0f0       ??0Fl_Input_@@QAE@HHHHPBD@Z 0044e0f0 f   fltk:Fl_Input_.obj
 0001:0004d220       ??1Fl_Input_@@UAE@XZ       0044e220 f   fltk:Fl_Input_.obj
 0001:0004d270       ?value@Fl_Input_@@QAEHPBD@Z 0044e270 f   fltk:Fl_Input_.obj
 0001:0004d2b0       ?value@Fl_Input_@@QAEHPBDH@Z 0044e2b0 f   fltk:Fl_Input_.obj
 0001:0004d2f0       ?static_value@Fl_Input_@@QAEHPBD@Z 0044e2f0 f   fltk:Fl_Input_.obj
 0001:0004d330       ?static_value@Fl_Input_@@QAEHPBDH@Z 0044e330 f   fltk:Fl_Input_.obj
 0001:0004d4c0       ?index@Fl_Input_@@QBEIH@Z  0044e4c0 f   fltk:Fl_Input_.obj
 0001:0004d500       ?position@Fl_Input_@@QAEHHH@Z 0044e500 f   fltk:Fl_Input_.obj
 0001:0004d810       ?replace@Fl_Input_@@QAEHHHPBDH@Z 0044e810 f   fltk:Fl_Input_.obj
 0001:0004de50       ?copy@Fl_Input_@@QAEHH@Z   0044ee50 f   fltk:Fl_Input_.obj
 0001:0004dee0       ?undo@Fl_Input_@@QAEHXZ    0044eee0 f   fltk:Fl_Input_.obj
 0001:0004e0e0       ?copy_cuts@Fl_Input_@@QAEHXZ 0044f0e0 f   fltk:Fl_Input_.obj
 0001:0004e270       ??_GFl_Input_@@UAEPAXI@Z   0044f270 f i fltk:Fl_Input_.obj
 0001:0004e270       ??_EFl_Input_@@UAEPAXI@Z   0044f270 f i fltk:Fl_Input_.obj
 0001:0004e2b0       ?handle_key@Fl_Input@@AAEHXZ 0044f2b0 f   fltk:Fl_Input.obj
 0001:0004edc0       ?shift_position@Fl_Input@@AAEHH@Z 0044fdc0 f   fltk:Fl_Input.obj
 0001:0004ee10       ?shift_up_down_position@Fl_Input@@AAEHH@Z 0044fe10 f   fltk:Fl_Input.obj
 0001:0004ee40       ?kf_lines_up@Fl_Input@@AAEHH@Z 0044fe40 f   fltk:Fl_Input.obj
 0001:0004eee0       ?kf_lines_down@Fl_Input@@AAEHH@Z 0044fee0 f   fltk:Fl_Input.obj
 0001:0004ef90       ?kf_page_up@Fl_Input@@AAEHXZ 0044ff90 f   fltk:Fl_Input.obj
 0001:0004efb0       ?kf_page_down@Fl_Input@@AAEHXZ 0044ffb0 f   fltk:Fl_Input.obj
 0001:0004efd0       ?kf_insert_toggle@Fl_Input@@AAEHXZ 0044ffd0 f   fltk:Fl_Input.obj
 0001:0004f010       ?kf_delete_word_right@Fl_Input@@AAEHXZ 00450010 f   fltk:Fl_Input.obj
 0001:0004f0c0       ?kf_delete_word_left@Fl_Input@@AAEHXZ 004500c0 f   fltk:Fl_Input.obj
 0001:0004f170       ?kf_delete_sol@Fl_Input@@AAEHXZ 00450170 f   fltk:Fl_Input.obj
 0001:0004f220       ?kf_delete_eol@Fl_Input@@AAEHXZ 00450220 f   fltk:Fl_Input.obj
 0001:0004f2d0       ?kf_delete_char_right@Fl_Input@@AAEHXZ 004502d0 f   fltk:Fl_Input.obj
 0001:0004f370       ?kf_delete_char_left@Fl_Input@@AAEHXZ 00450370 f   fltk:Fl_Input.obj
 0001:0004f410       ?kf_move_sol@Fl_Input@@AAEHXZ 00450410 f   fltk:Fl_Input.obj
 0001:0004f460       ?kf_move_eol@Fl_Input@@AAEHXZ 00450460 f   fltk:Fl_Input.obj
 0001:0004f4b0       ?kf_clear_eol@Fl_Input@@AAEHXZ 004504b0 f   fltk:Fl_Input.obj
 0001:0004f570       ?kf_move_char_left@Fl_Input@@AAEHXZ 00450570 f   fltk:Fl_Input.obj
 0001:0004f5e0       ?kf_move_char_right@Fl_Input@@AAEHXZ 004505e0 f   fltk:Fl_Input.obj
 0001:0004f650       ?kf_move_word_left@Fl_Input@@AAEHXZ 00450650 f   fltk:Fl_Input.obj
 0001:0004f680       ?kf_move_word_right@Fl_Input@@AAEHXZ 00450680 f   fltk:Fl_Input.obj
 0001:0004f6b0       ?kf_move_up_and_sol@Fl_Input@@AAEHXZ 004506b0 f   fltk:Fl_Input.obj
 0001:0004f780       ?kf_move_down_and_eol@Fl_Input@@AAEHXZ 00450780 f   fltk:Fl_Input.obj
 0001:0004f860       ?kf_top@Fl_Input@@AAEHXZ   00450860 f   fltk:Fl_Input.obj
 0001:0004f880       ?kf_bottom@Fl_Input@@AAEHXZ 00450880 f   fltk:Fl_Input.obj
 0001:0004f8b0       ?kf_select_all@Fl_Input@@AAEHXZ 004508b0 f   fltk:Fl_Input.obj
 0001:0004f8e0       ?kf_undo@Fl_Input@@AAEHXZ  004508e0 f   fltk:Fl_Input.obj
 0001:0004f920       ?kf_redo@Fl_Input@@AAEHXZ  00450920 f   fltk:Fl_Input.obj
 0001:0004f960       ?kf_copy@Fl_Input@@AAEHXZ  00450960 f   fltk:Fl_Input.obj
 0001:0004f980       ?kf_paste@Fl_Input@@AAEHXZ 00450980 f   fltk:Fl_Input.obj
 0001:0004f9d0       ?kf_copy_cut@Fl_Input@@AAEHXZ 004509d0 f   fltk:Fl_Input.obj
 0001:0004fa30       ?draw@Fl_Input@@MAEXXZ     00450a30 f   fltk:Fl_Input.obj
 0001:0004fb00       ?handle@Fl_Input@@UAEHH@Z  00450b00 f   fltk:Fl_Input.obj
 0001:000503c0       ??0Fl_Input@@QAE@HHHHPBD@Z 004513c0 f   fltk:Fl_Input.obj
 0001:00050400       ??0Fl_Float_Input@@QAE@HHHHPBD@Z 00451400 f   fltk:Fl_Input.obj
 0001:00050450       ??0Fl_Int_Input@@QAE@HHHHPBD@Z 00451450 f   fltk:Fl_Input.obj
 0001:000504a0       ??0Fl_Multiline_Input@@QAE@HHHHPBD@Z 004514a0 f   fltk:Fl_Input.obj
 0001:000504e0       ??0Fl_Output@@QAE@HHHHPBD@Z 004514e0 f   fltk:Fl_Input.obj
 0001:00050520       ??0Fl_Multiline_Output@@QAE@HHHHPBD@Z 00451520 f   fltk:Fl_Input.obj
 0001:00050560       ??0Fl_Secret_Input@@QAE@HHHHPBD@Z 00451560 f   fltk:Fl_Input.obj
 0001:000505b0       ?handle@Fl_Secret_Input@@UAEHH@Z 004515b0 f   fltk:Fl_Input.obj
 0001:000505e0       ??_EFl_Float_Input@@UAEPAXI@Z 004515e0 f i fltk:Fl_Input.obj
 0001:000505e0       ??_GFl_Float_Input@@UAEPAXI@Z 004515e0 f i fltk:Fl_Input.obj
 0001:00050620       ??_GFl_Input@@UAEPAXI@Z    00451620 f i fltk:Fl_Input.obj
 0001:00050620       ??_EFl_Input@@UAEPAXI@Z    00451620 f i fltk:Fl_Input.obj
 0001:00050660       ??_GFl_Int_Input@@UAEPAXI@Z 00451660 f i fltk:Fl_Input.obj
 0001:00050660       ??_EFl_Int_Input@@UAEPAXI@Z 00451660 f i fltk:Fl_Input.obj
 0001:000506a0       ??_GFl_Multiline_Input@@UAEPAXI@Z 004516a0 f i fltk:Fl_Input.obj
 0001:000506a0       ??_EFl_Multiline_Input@@UAEPAXI@Z 004516a0 f i fltk:Fl_Input.obj
 0001:000506e0       ??_GFl_Multiline_Output@@UAEPAXI@Z 004516e0 f i fltk:Fl_Input.obj
 0001:000506e0       ??_EFl_Multiline_Output@@UAEPAXI@Z 004516e0 f i fltk:Fl_Input.obj
 0001:00050720       ??_GFl_Output@@UAEPAXI@Z   00451720 f i fltk:Fl_Input.obj
 0001:00050720       ??_EFl_Output@@UAEPAXI@Z   00451720 f i fltk:Fl_Input.obj
 0001:00050760       ??_EFl_Secret_Input@@UAEPAXI@Z 00451760 f i fltk:Fl_Input.obj
 0001:00050760       ??_GFl_Secret_Input@@UAEPAXI@Z 00451760 f i fltk:Fl_Input.obj
 0001:000507a0       ?fl_height@@YAHHH@Z        004517a0 f   fltk:fl_draw.obj
 0001:00050870       ?fl_measure@@YAXPBDAAH1H@Z 00451870 f   fltk:fl_draw.obj
 0001:00050be0       ?fl_draw@@YAXPBDHHHHIPAVFl_Image@@H@Z 00451be0 f   fltk:fl_draw.obj
 0001:00050cc0       ?fl_draw@@YAXPBDHHHHIP6AX0HHH@ZPAVFl_Image@@H@Z 00451cc0 f   fltk:fl_draw.obj
 0001:00051cb0       ?fl_expand_text@@YAPBDPBDPADHNAAHAANHH@Z 00452cb0 f   fltk:fl_draw.obj
 0001:000520c0       ?fl_draw@@YAXPBDHHH@Z      004530c0 f i fltk:fl_draw.obj
 0001:000520f0       ?shape_bitmap_@Fl_Window@@AAEXPAVFl_Bitmap@@@Z 004530f0 f   fltk:Fl_Window_shape.obj
 0001:00052110       ?shape_alpha_@Fl_Window@@AAEXPAVFl_RGB_Image@@H@Z 00453110 f   fltk:Fl_Window_shape.obj
 0001:00052330       ?shape_pixmap_@Fl_Window@@AAEXPAVFl_Pixmap@@@Z 00453330 f   fltk:Fl_Window_shape.obj
 0001:000523f0       ?shape@Fl_Window@@QAEXPBVFl_Image@@@Z 004533f0 f   fltk:Fl_Window_shape.obj
 0001:00052400       ?draw@Fl_Window@@MAEXXZ    00453400 f   fltk:Fl_Window_shape.obj
 0001:00052860       ?get_boxtype@Fl@@SAP6AXHHHHI@ZW4Fl_Boxtype@@@Z 00453860 f   fltk:fl_boxtype.obj
 0001:00052870       ?set_boxtype@Fl@@SAXW4Fl_Boxtype@@P6AXHHHHI@ZEEEE@Z 00453870 f   fltk:fl_boxtype.obj
 0001:000528d0       ?set_boxtype@Fl@@SAXW4Fl_Boxtype@@0@Z 004538d0 f   fltk:fl_boxtype.obj
 0001:00052900       ?box_dx@Fl@@SAHW4Fl_Boxtype@@@Z 00453900 f   fltk:fl_boxtype.obj
 0001:00052910       ?box_dy@Fl@@SAHW4Fl_Boxtype@@@Z 00453910 f   fltk:fl_boxtype.obj
 0001:00052920       ?box_dw@Fl@@SAHW4Fl_Boxtype@@@Z 00453920 f   fltk:fl_boxtype.obj
 0001:00052930       ?box_dh@Fl@@SAHW4Fl_Boxtype@@@Z 00453930 f   fltk:fl_boxtype.obj
 0001:00052940       ?draw_box_active@Fl@@SAHXZ 00453940 f   fltk:fl_boxtype.obj
 0001:00052950       ?draw_box@Fl_Widget@@IBEXXZ 00453950 f   fltk:fl_boxtype.obj
 0001:000529b0       ?draw_box@Fl_Widget@@IBEXW4Fl_Boxtype@@I@Z 004539b0 f   fltk:fl_boxtype.obj
 0001:000529f0       ?draw_box@Fl_Widget@@IBEXW4Fl_Boxtype@@HHHHI@Z 004539f0 f   fltk:fl_boxtype.obj
 0001:00052a40       ?draw_backdrop@Fl_Widget@@IBEXXZ 00453a40 f   fltk:fl_boxtype.obj
 0001:00052b20       ?fl_frame@@YAXPBDHHHH@Z    00453b20 f   fltk:fl_boxtype.obj
 0001:00052d20       ?fl_frame2@@YAXPBDHHHH@Z   00453d20 f   fltk:fl_boxtype.obj
 0001:00052f20       ?fl_draw_box@@YAXW4Fl_Boxtype@@HHHHI@Z 00453f20 f   fltk:fl_boxtype.obj
 0001:00052f60       ?fl_gray_ramp@@YAPBEXZ     00453f60 f   fltk:fl_boxtype.obj
 0001:00052f90       ?fl_no_box@@YAXHHHHI@Z     00453f90 f   fltk:fl_boxtype.obj
 0001:00052fa0       ?fl_thin_down_frame@@YAXHHHHI@Z 00453fa0 f   fltk:fl_boxtype.obj
 0001:00052fd0       ?fl_thin_down_box@@YAXHHHHI@Z 00453fd0 f   fltk:fl_boxtype.obj
 0001:00053060       ?fl_thin_up_frame@@YAXHHHHI@Z 00454060 f   fltk:fl_boxtype.obj
 0001:00053090       ?fl_thin_up_box@@YAXHHHHI@Z 00454090 f   fltk:fl_boxtype.obj
 0001:00053120       ?fl_up_frame@@YAXHHHHI@Z   00454120 f   fltk:fl_boxtype.obj
 0001:00053150       ?fl_up_box@@YAXHHHHI@Z     00454150 f   fltk:fl_boxtype.obj
 0001:000531e0       ?fl_down_frame@@YAXHHHHI@Z 004541e0 f   fltk:fl_boxtype.obj
 0001:00053210       ?fl_down_box@@YAXHHHHI@Z   00454210 f   fltk:fl_boxtype.obj
 0001:00053280       ?fl_engraved_frame@@YAXHHHHI@Z 00454280 f   fltk:fl_boxtype.obj
 0001:000532b0       ?fl_engraved_box@@YAXHHHHI@Z 004542b0 f   fltk:fl_boxtype.obj
 0001:00053340       ?fl_embossed_frame@@YAXHHHHI@Z 00454340 f   fltk:fl_boxtype.obj
 0001:00053370       ?fl_embossed_box@@YAXHHHHI@Z 00454370 f   fltk:fl_boxtype.obj
 0001:00053400       ?fl_rectbound@@YAXHHHHI@Z  00454400 f   fltk:fl_boxtype.obj
 0001:000534d0       ?fl_border_frame@@YAXHHHHI@Z 004544d0 f   fltk:fl_boxtype.obj
 0001:00053540       ?fl_internal_boxtype@@YAXW4Fl_Boxtype@@P6AXHHHHI@Z@Z 00454540 f   fltk:fl_boxtype.obj
 0001:00053570       ?fl_rectf@@YAXHHHHI@Z      00454570 f i fltk:fl_boxtype.obj
 0001:000535b0       ?draw@Fl_Menu_Button@@MAEXXZ 004545b0 f   fltk:Fl_Menu_Button.obj
 0001:00053810       ?handle@Fl_Menu_Button@@UAEHH@Z 00454810 f   fltk:Fl_Menu_Button.obj
 0001:00053a20       ?popup@Fl_Menu_Button@@QAEPBUFl_Menu_Item@@XZ 00454a20 f   fltk:Fl_Menu_Button.obj
 0001:00053b90       ??0Fl_Menu_Button@@QAE@HHHHPBD@Z 00454b90 f   fltk:Fl_Menu_Button.obj
 0001:00053bd0       ??_EFl_Menu_Button@@UAEPAXI@Z 00454bd0 f i fltk:Fl_Menu_Button.obj
 0001:00053bd0       ??_GFl_Menu_Button@@UAEPAXI@Z 00454bd0 f i fltk:Fl_Menu_Button.obj
 0001:00053c00       ?repeat_callback@Fl_Repeat_Button@@CAXPAX@Z 00454c00 f   fltk:Fl_Repeat_Button.obj
 0001:00053c50       ?handle@Fl_Repeat_Button@@UAEHH@Z 00454c50 f   fltk:Fl_Repeat_Button.obj
 0001:00053d80       ??0Fl_Repeat_Button@@QAE@HHHHPBD@Z 00454d80 f   fltk:Fl_Repeat_Button.obj
 0001:00053dc0       ??_EFl_Repeat_Button@@UAEPAXI@Z 00454dc0 f i fltk:Fl_Repeat_Button.obj
 0001:00053dc0       ??_GFl_Repeat_Button@@UAEPAXI@Z 00454dc0 f i fltk:Fl_Repeat_Button.obj
 0001:00053df0       ?next@Fl_Menu_Item@@QBEPBU1@H@Z 00454df0 f   fltk:Fl_Menu.obj
 0001:00053e90       ?measure@Fl_Menu_Item@@QBEHPAHPBVFl_Menu_@@@Z 00454e90 f   fltk:Fl_Menu.obj
 0001:00053fb0       ?draw@Fl_Menu_Item@@QBEXHHHHPBVFl_Menu_@@H@Z 00454fb0 f   fltk:Fl_Menu.obj
 0001:000548b0       ?popup@Fl_Menu_Item@@QBEPBU1@HHPBDPBU1@PBVFl_Menu_@@@Z 004558b0 f   fltk:Fl_Menu.obj
 0001:00054900       ?pulldown@Fl_Menu_Item@@QBEPBU1@HHHHPBU1@PBVFl_Menu_@@0H@Z 00455900 f   fltk:Fl_Menu.obj
 0001:000553e0       ?test_shortcut@Fl_Menu_Item@@QBEPBU1@XZ 004563e0 f   fltk:Fl_Menu.obj
 0001:000554a0       ?find_shortcut@Fl_Menu_Item@@QBEPBU1@PAH_N@Z 004564a0 f   fltk:Fl_Menu.obj
 0001:00055550       ?size@Fl_Menu_Item@@QBEHXZ 00456550 f   fltk:Fl_Menu.obj
 0001:00055620       ?draw@menutitle@@EAEXXZ    00456620 f   fltk:Fl_Menu.obj
 0001:00055670       ??0menutitle@@QAE@HHHHPBUFl_Menu_Item@@@Z 00456670 f   fltk:Fl_Menu.obj
 0001:00055750       ?draw@menuwindow@@EAEXXZ   00456750 f   fltk:Fl_Menu.obj
 0001:000558d0       ?drawentry@menuwindow@@AAEXPBUFl_Menu_Item@@HH@Z 004568d0 f   fltk:Fl_Menu.obj
 0001:00055d40       ?handle@menuwindow@@UAEHH@Z 00456d40 f   fltk:Fl_Menu.obj
 0001:000563b0       ??0menuwindow@@QAE@PBUFl_Menu_Item@@HHHH00HHH@Z 004573b0 f   fltk:Fl_Menu.obj
 0001:00056bd0       ??1menuwindow@@UAE@XZ      00457bd0 f   fltk:Fl_Menu.obj
 0001:00056c60       ?set_selected@menuwindow@@QAEXH@Z 00457c60 f   fltk:Fl_Menu.obj
 0001:00056ca0       ?find_selected@menuwindow@@QAEHHH@Z 00457ca0 f   fltk:Fl_Menu.obj
 0001:00056e30       ?titlex@menuwindow@@QAEHH@Z 00457e30 f   fltk:Fl_Menu.obj
 0001:00056eb0       ?autoscroll@menuwindow@@QAEXH@Z 00457eb0 f   fltk:Fl_Menu.obj
 0001:00056fa0       ?position@menuwindow@@QAEXHH@Z 00457fa0 f   fltk:Fl_Menu.obj
 0001:00057030       ?is_inside@menuwindow@@QAEHHH@Z 00458030 f   fltk:Fl_Menu.obj
 0001:000570c0       ?is_inside@menustate@@QAEHHH@Z 004580c0 f   fltk:Fl_Menu.obj
 0001:00057320       ??_Emenutitle@@UAEPAXI@Z   00458320 f i fltk:Fl_Menu.obj
 0001:00057320       ??_Gmenutitle@@UAEPAXI@Z   00458320 f i fltk:Fl_Menu.obj
 0001:00057360       ??_Emenuwindow@@UAEPAXI@Z  00458360 f i fltk:Fl_Menu.obj
 0001:00057360       ??_Gmenuwindow@@UAEPAXI@Z  00458360 f i fltk:Fl_Menu.obj
 0001:000573a0       ?insert@Fl_Menu_Item@@QAEHHPBDHP6AXPAVFl_Widget@@PAX@Z2H@Z 004583a0 f   fltk:Fl_Menu_add.obj
 0001:00057800       ?add@Fl_Menu_Item@@QAEHPBDHP6AXPAVFl_Widget@@PAX@Z2H@Z 00458800 f   fltk:Fl_Menu_add.obj
 0001:00057830       ?insert@Fl_Menu_@@QAEHHPBDHP6AXPAVFl_Widget@@PAX@Z2H@Z 00458830 f   fltk:Fl_Menu_add.obj
 0001:00057a40       ?add@Fl_Menu_@@QAEHPBDHP6AXPAVFl_Widget@@PAX@Z2H@Z 00458a40 f   fltk:Fl_Menu_add.obj
 0001:00057a70       ?add@Fl_Menu_@@QAEHPBD@Z   00458a70 f   fltk:Fl_Menu_add.obj
 0001:00057ba0       ?replace@Fl_Menu_@@QAEXHPBD@Z 00458ba0 f   fltk:Fl_Menu_add.obj
 0001:00057c30       ?remove@Fl_Menu_@@QAEXH@Z  00458c30 f   fltk:Fl_Menu_add.obj
 0001:00057ec0       _fl_strlcat                00458ec0 f   fltk:flstring.obj
 0001:00057f40       _fl_strlcpy                00458f40 f   fltk:flstring.obj
 0001:00057f90       _fl_ascii_strcasecmp       00458f90 f   fltk:flstring.obj
 0001:000580f0       ?_Fl_Slider@Fl_Slider@@AAEXXZ 004590f0 f   fltk:Fl_Slider.obj
 0001:00058120       ?draw_bg@Fl_Slider@@AAEXHHHH@Z 00459120 f   fltk:Fl_Slider.obj
 0001:00058210       ?draw@Fl_Slider@@IAEXHHHH@Z 00459210 f   fltk:Fl_Slider.obj
 0001:00058ab0       ?handle@Fl_Slider@@IAEHHHHHH@Z 00459ab0 f   fltk:Fl_Slider.obj
 0001:000595b0       ?draw@Fl_Slider@@MAEXXZ    0045a5b0 f   fltk:Fl_Slider.obj
 0001:00059680       ?handle@Fl_Slider@@UAEHH@Z 0045a680 f   fltk:Fl_Slider.obj
 0001:00059760       ??0Fl_Slider@@QAE@HHHHPBD@Z 0045a760 f   fltk:Fl_Slider.obj
 0001:000597e0       ??0Fl_Slider@@QAE@EHHHHPBD@Z 0045a7e0 f   fltk:Fl_Slider.obj
 0001:00059890       ?scrollvalue@Fl_Slider@@QAEHHHHH@Z 0045a890 f   fltk:Fl_Slider.obj
 0001:00059960       ?bounds@Fl_Slider@@QAEXNN@Z 0045a960 f   fltk:Fl_Slider.obj
 0001:000599d0       ?slider_size@Fl_Slider@@QAEXN@Z 0045a9d0 f   fltk:Fl_Slider.obj
 0001:00059a50       ??0Fl_Fill_Slider@@QAE@HHHHPBD@Z 0045aa50 f   fltk:Fl_Slider.obj
 0001:00059a90       ??0Fl_Hor_Slider@@QAE@HHHHPBD@Z 0045aa90 f   fltk:Fl_Slider.obj
 0001:00059ad0       ??0Fl_Hor_Fill_Slider@@QAE@HHHHPBD@Z 0045aad0 f   fltk:Fl_Slider.obj
 0001:00059b10       ??0Fl_Hor_Nice_Slider@@QAE@HHHHPBD@Z 0045ab10 f   fltk:Fl_Slider.obj
 0001:00059b60       ??0Fl_Nice_Slider@@QAE@HHHHPBD@Z 0045ab60 f   fltk:Fl_Slider.obj
 0001:00059bb0       ??1Fl_Valuator@@UAE@XZ     0045abb0 f i fltk:Fl_Slider.obj
 0001:00059bd0       ??_GFl_Fill_Slider@@UAEPAXI@Z 0045abd0 f i fltk:Fl_Slider.obj
 0001:00059bd0       ??_EFl_Fill_Slider@@UAEPAXI@Z 0045abd0 f i fltk:Fl_Slider.obj
 0001:00059c10       ??_GFl_Hor_Fill_Slider@@UAEPAXI@Z 0045ac10 f i fltk:Fl_Slider.obj
 0001:00059c10       ??_EFl_Hor_Fill_Slider@@UAEPAXI@Z 0045ac10 f i fltk:Fl_Slider.obj
 0001:00059c50       ??_GFl_Hor_Nice_Slider@@UAEPAXI@Z 0045ac50 f i fltk:Fl_Slider.obj
 0001:00059c50       ??_EFl_Hor_Nice_Slider@@UAEPAXI@Z 0045ac50 f i fltk:Fl_Slider.obj
 0001:00059c90       ??_EFl_Hor_Slider@@UAEPAXI@Z 0045ac90 f i fltk:Fl_Slider.obj
 0001:00059c90       ??_GFl_Hor_Slider@@UAEPAXI@Z 0045ac90 f i fltk:Fl_Slider.obj
 0001:00059cd0       ??_GFl_Nice_Slider@@UAEPAXI@Z 0045acd0 f i fltk:Fl_Slider.obj
 0001:00059cd0       ??_EFl_Nice_Slider@@UAEPAXI@Z 0045acd0 f i fltk:Fl_Slider.obj
 0001:00059d10       ??_GFl_Slider@@UAEPAXI@Z   0045ad10 f i fltk:Fl_Slider.obj
 0001:00059d10       ??_EFl_Slider@@UAEPAXI@Z   0045ad10 f i fltk:Fl_Slider.obj
 0001:00059d50       ?fl_filename_absolute@@YAHPADHPBD@Z 0045ad50 f   fltk:filename_absolute.obj
 0001:0005a020       ?fl_filename_relative@@YAHPADHPBD@Z 0045b020 f   fltk:filename_absolute.obj
 0001:0005a090       ?fl_filename_relative@@YAHPADHPBD1@Z 0045b090 f   fltk:filename_absolute.obj
 0001:0005a670       ??0Fl_File_Chooser@@QAE@PBD0H0@Z 0045b670 f   fltk:Fl_File_Chooser.obj
 0001:0005baf0       ?cb_window@Fl_File_Chooser@@CAXPAVFl_Double_Window@@PAX@Z 0045caf0 f   fltk:Fl_File_Chooser.obj
 0001:0005bb20       ?cb_showChoice@Fl_File_Chooser@@CAXPAVFl_Choice@@PAX@Z 0045cb20 f   fltk:Fl_File_Chooser.obj
 0001:0005bb50       ?cb_favoritesButton@Fl_File_Chooser@@CAXPAVFl_Menu_Button@@PAX@Z 0045cb50 f   fltk:Fl_File_Chooser.obj
 0001:0005bb80       ?cb_newButton@Fl_File_Chooser@@CAXPAVFl_Button@@PAX@Z 0045cb80 f   fltk:Fl_File_Chooser.obj
 0001:0005bbb0       ?cb_@Fl_File_Chooser@@CAXPAVFl_Tile@@PAX@Z 0045cbb0 f   fltk:Fl_File_Chooser.obj
 0001:0005bbe0       ?cb_fileList@Fl_File_Chooser@@CAXPAVFl_File_Browser@@PAX@Z 0045cbe0 f   fltk:Fl_File_Chooser.obj
 0001:0005bc10       ?cb_previewButton@Fl_File_Chooser@@CAXPAVFl_Check_Button@@PAX@Z 0045cc10 f   fltk:Fl_File_Chooser.obj
 0001:0005bc60       ?cb_showHiddenButton@Fl_File_Chooser@@CAXPAVFl_Check_Button@@PAX@Z 0045cc60 f   fltk:Fl_File_Chooser.obj
 0001:0005bcb0       ?cb_fileName@Fl_File_Chooser@@CAXPAVFl_File_Input@@PAX@Z 0045ccb0 f   fltk:Fl_File_Chooser.obj
 0001:0005bce0       ?cb_okButton@Fl_File_Chooser@@CAXPAVFl_Return_Button@@PAX@Z 0045cce0 f   fltk:Fl_File_Chooser.obj
 0001:0005bd50       ?cb_cancelButton@Fl_File_Chooser@@CAXPAVFl_Button@@PAX@Z 0045cd50 f   fltk:Fl_File_Chooser.obj
 0001:0005bd90       ?cb_favList@Fl_File_Chooser@@CAXPAVFl_File_Browser@@PAX@Z 0045cd90 f   fltk:Fl_File_Chooser.obj
 0001:0005bdc0       ?cb_favUpButton@Fl_File_Chooser@@CAXPAVFl_Button@@PAX@Z 0045cdc0 f   fltk:Fl_File_Chooser.obj
 0001:0005be00       ?cb_favDeleteButton@Fl_File_Chooser@@CAXPAVFl_Button@@PAX@Z 0045ce00 f   fltk:Fl_File_Chooser.obj
 0001:0005be40       ?cb_favDownButton@Fl_File_Chooser@@CAXPAVFl_Button@@PAX@Z 0045ce40 f   fltk:Fl_File_Chooser.obj
 0001:0005be80       ?cb_favCancelButton@Fl_File_Chooser@@CAXPAVFl_Button@@PAX@Z 0045ce80 f   fltk:Fl_File_Chooser.obj
 0001:0005bec0       ?cb_favOkButton@Fl_File_Chooser@@CAXPAVFl_Return_Button@@PAX@Z 0045cec0 f   fltk:Fl_File_Chooser.obj
 0001:0005bf00       ??1Fl_File_Chooser@@QAE@XZ 0045cf00 f   fltk:Fl_File_Chooser.obj
 0001:0005bfe0       ?callback@Fl_File_Chooser@@QAEXP6AXPAV1@PAX@Z1@Z 0045cfe0 f   fltk:Fl_File_Chooser.obj
 0001:0005c000       ?color@Fl_File_Chooser@@QAEXI@Z 0045d000 f   fltk:Fl_File_Chooser.obj
 0001:0005c030       ?color@Fl_File_Chooser@@QAEIXZ 0045d030 f   fltk:Fl_File_Chooser.obj
 0001:0005c050       ?directory@Fl_File_Chooser@@QAEPADXZ 0045d050 f   fltk:Fl_File_Chooser.obj
 0001:0005c070       ?filter@Fl_File_Chooser@@QAEPBDXZ 0045d070 f   fltk:Fl_File_Chooser.obj
 0001:0005c0a0       ?filter_value@Fl_File_Chooser@@QAEHXZ 0045d0a0 f   fltk:Fl_File_Chooser.obj
 0001:0005c0f0       ?filter_value@Fl_File_Chooser@@QAEXH@Z 0045d0f0 f   fltk:Fl_File_Chooser.obj
 0001:0005c120       ?hide@Fl_File_Chooser@@QAEXXZ 0045d120 f   fltk:Fl_File_Chooser.obj
 0001:0005c150       ?iconsize@Fl_File_Chooser@@QAEXE@Z 0045d150 f   fltk:Fl_File_Chooser.obj
 0001:0005c180       ?iconsize@Fl_File_Chooser@@QAEEXZ 0045d180 f   fltk:Fl_File_Chooser.obj
 0001:0005c1b0       ?label@Fl_File_Chooser@@QAEXPBD@Z 0045d1b0 f   fltk:Fl_File_Chooser.obj
 0001:0005c1d0       ?label@Fl_File_Chooser@@QAEPBDXZ 0045d1d0 f   fltk:Fl_File_Chooser.obj
 0001:0005c1f0       ?ok_label@Fl_File_Chooser@@QAEXPBD@Z 0045d1f0 f   fltk:Fl_File_Chooser.obj
 0001:0005c2b0       ?ok_label@Fl_File_Chooser@@QAEPBDXZ 0045d2b0 f   fltk:Fl_File_Chooser.obj
 0001:0005c2d0       ?shown@Fl_File_Chooser@@QAEHXZ 0045d2d0 f   fltk:Fl_File_Chooser.obj
 0001:0005c300       ?textcolor@Fl_File_Chooser@@QAEXI@Z 0045d300 f   fltk:Fl_File_Chooser.obj
 0001:0005c330       ?textcolor@Fl_File_Chooser@@QAEIXZ 0045d330 f   fltk:Fl_File_Chooser.obj
 0001:0005c360       ?textfont@Fl_File_Chooser@@QAEXH@Z 0045d360 f   fltk:Fl_File_Chooser.obj
 0001:0005c390       ?textfont@Fl_File_Chooser@@QAEHXZ 0045d390 f   fltk:Fl_File_Chooser.obj
 0001:0005c3c0       ?textsize@Fl_File_Chooser@@QAEXH@Z 0045d3c0 f   fltk:Fl_File_Chooser.obj
 0001:0005c400       ?textsize@Fl_File_Chooser@@QAEHXZ 0045d400 f   fltk:Fl_File_Chooser.obj
 0001:0005c430       ?type@Fl_File_Chooser@@QAEXH@Z 0045d430 f   fltk:Fl_File_Chooser.obj
 0001:0005c4e0       ?type@Fl_File_Chooser@@QAEHXZ 0045d4e0 f   fltk:Fl_File_Chooser.obj
 0001:0005c500       ?user_data@Fl_File_Chooser@@QBEPAXXZ 0045d500 f   fltk:Fl_File_Chooser.obj
 0001:0005c520       ?user_data@Fl_File_Chooser@@QAEXPAX@Z 0045d520 f   fltk:Fl_File_Chooser.obj
 0001:0005c540       ?visible@Fl_File_Chooser@@QAEHXZ 0045d540 f   fltk:Fl_File_Chooser.obj
 0001:0005c580       ?add_extra@Fl_File_Chooser@@QAEPAVFl_Widget@@PAV2@@Z 0045d580 f   fltk:Fl_File_Chooser.obj
 0001:0005c7b0       ??0Fl_Bitmap@@QAE@PBEHH@Z  0045d7b0 f i fltk:Fl_File_Chooser.obj
 0001:0005c840       ?cb_cancelButton_i@Fl_File_Chooser@@AAEXPAVFl_Button@@PAX@Z 0045d840 f i fltk:Fl_File_Chooser.obj
 0001:0005c8a0       ?cb_window_i@Fl_File_Chooser@@AAEXPAVFl_Double_Window@@PAX@Z 0045d8a0 f i fltk:Fl_File_Chooser.obj
 0001:0005c900       ?favoritesButtonCB@Fl_File_Chooser@@AAEXXZ 0045d900 f   fltk:Fl_File_Chooser2.obj
 0001:0005cb30       ?favoritesCB@Fl_File_Chooser@@AAEXPAVFl_Widget@@@Z 0045db30 f   fltk:Fl_File_Chooser2.obj
 0001:0005d240       ?fileListCB@Fl_File_Chooser@@AAEXXZ 0045e240 f   fltk:Fl_File_Chooser2.obj
 0001:0005d6a0       ?fileNameCB@Fl_File_Chooser@@AAEXXZ 0045e6a0 f   fltk:Fl_File_Chooser2.obj
 0001:0005e0a0       ?newdir@Fl_File_Chooser@@AAEXXZ 0045f0a0 f   fltk:Fl_File_Chooser2.obj
 0001:0005e1d0       ?previewCB@Fl_File_Chooser@@CAXPAV1@@Z 0045f1d0 f   fltk:Fl_File_Chooser2.obj
 0001:0005e1e0       ?showChoiceCB@Fl_File_Chooser@@AAEXXZ 0045f1e0 f   fltk:Fl_File_Chooser2.obj
 0001:0005e410       ?update_favorites@Fl_File_Chooser@@AAEXXZ 0045f410 f   fltk:Fl_File_Chooser2.obj
 0001:0005e670       ?update_preview@Fl_File_Chooser@@AAEXXZ 0045f670 f   fltk:Fl_File_Chooser2.obj
 0001:0005ef30       ?count@Fl_File_Chooser@@QAEHXZ 0045ff30 f   fltk:Fl_File_Chooser2.obj
 0001:0005f020       ?directory@Fl_File_Chooser@@QAEXPBD@Z 00460020 f   fltk:Fl_File_Chooser2.obj
 0001:0005f2e0       ?filter@Fl_File_Chooser@@QAEXPBD@Z 004602e0 f   fltk:Fl_File_Chooser2.obj
 0001:0005f4c0       ?preview@Fl_File_Chooser@@QAEXH@Z 004604c0 f   fltk:Fl_File_Chooser2.obj
 0001:0005f710       ?showHidden@Fl_File_Chooser@@AAEXH@Z 00460710 f   fltk:Fl_File_Chooser2.obj
 0001:0005f760       ?remove_hidden_files@Fl_File_Chooser@@AAEXXZ 00460760 f   fltk:Fl_File_Chooser2.obj
 0001:0005f800       ?rescan@Fl_File_Chooser@@QAEXXZ 00460800 f   fltk:Fl_File_Chooser2.obj
 0001:0005f910       ?rescan_keep_filename@Fl_File_Chooser@@QAEXXZ 00460910 f   fltk:Fl_File_Chooser2.obj
 0001:0005fb30       ?show@Fl_File_Chooser@@QAEXXZ 00460b30 f   fltk:Fl_File_Chooser2.obj
 0001:0005fbc0       ?value@Fl_File_Chooser@@QAEPBDH@Z 00460bc0 f   fltk:Fl_File_Chooser2.obj
 0001:0005fd10       ?value@Fl_File_Chooser@@QAEXPBD@Z 00460d10 f   fltk:Fl_File_Chooser2.obj
 0001:000601a0       ?fl_draw_pixmap@@YAHPBQADHHI@Z 004611a0 f   fltk:fl_draw_pixmap.obj
 0001:000601c0       ?fl_draw_pixmap@@YAHPBQBDHHI@Z 004611c0 f   fltk:fl_draw_pixmap.obj
 0001:00060380       ?fl_measure_pixmap@@YAHPBQADAAH1@Z 00461380 f   fltk:fl_draw_pixmap.obj
 0001:000603a0       ?fl_measure_pixmap@@YAHPBQBDAAH1@Z 004613a0 f   fltk:fl_draw_pixmap.obj
 0001:00060550       ?fl_convert_pixmap@@YAHPBQBDPAEI@Z 00461550 f   fltk:fl_draw_pixmap.obj
 0001:00060b40       ?show@Fl_Menu_Window@@UAEXXZ 00461b40 f   fltk:Fl_Menu_Window.obj
 0001:00060b60       ?erase@Fl_Menu_Window@@QAEXXZ 00461b60 f   fltk:Fl_Menu_Window.obj
 0001:00060b70       ?flush@Fl_Menu_Window@@UAEXXZ 00461b70 f   fltk:Fl_Menu_Window.obj
 0001:00060bb0       ?hide@Fl_Menu_Window@@UAEXXZ 00461bb0 f   fltk:Fl_Menu_Window.obj
 0001:00060bd0       ??1Fl_Menu_Window@@UAE@XZ  00461bd0 f   fltk:Fl_Menu_Window.obj
 0001:00060c20       ??0Fl_Menu_Window@@QAE@HHPBD@Z 00461c20 f   fltk:Fl_Menu_Window.obj
 0001:00060c60       ??0Fl_Menu_Window@@QAE@HHHHPBD@Z 00461c60 f   fltk:Fl_Menu_Window.obj
 0001:00060ca0       ??_EFl_Menu_Window@@UAEPAXI@Z 00461ca0 f i fltk:Fl_Menu_Window.obj
 0001:00060ca0       ??_GFl_Menu_Window@@UAEPAXI@Z 00461ca0 f i fltk:Fl_Menu_Window.obj
 0001:00060ce0       ?show@Fl_Overlay_Window@@UAEXXZ 00461ce0 f   fltk:Fl_Overlay_Window.obj
 0001:00060d30       ?flush@Fl_Overlay_Window@@UAEXXZ 00461d30 f   fltk:Fl_Overlay_Window.obj
 0001:00060db0       ?hide@Fl_Overlay_Window@@UAEXXZ 00461db0 f   fltk:Fl_Overlay_Window.obj
 0001:00060dd0       ?resize@Fl_Overlay_Window@@UAEXHHHH@Z 00461dd0 f   fltk:Fl_Overlay_Window.obj
 0001:00060e50       ??1Fl_Overlay_Window@@UAE@XZ 00461e50 f   fltk:Fl_Overlay_Window.obj
 0001:00060ea0       ?can_do_overlay@Fl_Overlay_Window@@QAEHXZ 00461ea0 f   fltk:Fl_Overlay_Window.obj
 0001:00060eb0       ?redraw_overlay@Fl_Overlay_Window@@QAEXXZ 00461eb0 f   fltk:Fl_Overlay_Window.obj
 0001:00060ef0       ?fl_filename_match@@YAHPBD0@Z 00461ef0 f   fltk:filename_match.obj
 0001:00061380       _fl_casenumericsort        00462380 f   fltk:numericsort.obj
 0001:000613a0       _fl_numericsort            004623a0 f   fltk:numericsort.obj
 0001:00061600       _fl_alphasort              00462600 f   fltk:filename_list.obj
 0001:00061620       _fl_casealphasort          00462620 f   fltk:filename_list.obj
 0001:00061640       ?fl_filename_list@@YAHPBDPAPAPAUdirent@@P6AHPAPAU1@2@Z@Z 00462640 f   fltk:filename_list.obj
 0001:00061660       ?fl_filename_free_list@@YAXPAPAPAUdirent@@H@Z 00462660 f   fltk:filename_list.obj
 0001:000616d0       ?fl_define_FL_PLASTIC_UP_BOX@@YA?AW4Fl_Boxtype@@XZ 004626d0 f   fltk:fl_plastic.obj
 0001:00063a30       ?fl_define_FL_GTK_UP_BOX@@YA?AW4Fl_Boxtype@@XZ 00464a30 f   fltk:fl_gtk.obj
 0001:00065210       ?fl_pie@@YAXHHHHNN@Z       00466210 f i fltk:fl_gtk.obj
 0001:00065260       ?fl_define_FL_GLEAM_UP_BOX@@YA?AW4Fl_Boxtype@@XZ 00466260 f   fltk:fl_gleam.obj
 0001:00065c50       ??0Fl_Tiled_Image@@QAE@PAVFl_Image@@HH@Z 00466c50 f   fltk:Fl_Tiled_Image.obj
 0001:00065cc0       ??1Fl_Tiled_Image@@UAE@XZ  00466cc0 f   fltk:Fl_Tiled_Image.obj
 0001:00065d20       ?copy@Fl_Tiled_Image@@UAEPAVFl_Image@@HH@Z 00466d20 f   fltk:Fl_Tiled_Image.obj
 0001:00065dd0       ?color_average@Fl_Tiled_Image@@UAEXIM@Z 00466dd0 f   fltk:Fl_Tiled_Image.obj
 0001:00065e50       ?desaturate@Fl_Tiled_Image@@UAEXXZ 00466e50 f   fltk:Fl_Tiled_Image.obj
 0001:00065ec0       ?draw@Fl_Tiled_Image@@UAEXHHHHHH@Z 00466ec0 f   fltk:Fl_Tiled_Image.obj
 0001:00066060       ??_GFl_Tiled_Image@@UAEPAXI@Z 00467060 f i fltk:Fl_Tiled_Image.obj
 0001:00066060       ??_EFl_Tiled_Image@@UAEPAXI@Z 00467060 f i fltk:Fl_Tiled_Image.obj
 0001:00066090       ?fl_define_FL_ROUND_UP_BOX@@YA?AW4Fl_Boxtype@@XZ 00467090 f   fltk:fl_round_box.obj
 0001:000665b0       ?fl_round_down_box@@YAXHHHHI@Z 004675b0 f   fltk:fl_round_box.obj
 0001:00066790       ?fl_round_up_box@@YAXHHHHI@Z 00467790 f   fltk:fl_round_box.obj
 0001:00066970       _XUtf8Tolower              00467970 f   fltk:case.obj
 0001:00066b20       _XUtf8Toupper              00467b20 f   fltk:case.obj
 0001:00066be0       _XUtf8IsNonSpacing         00467be0 f   fltk:is_spacing.obj
 0001:00066d70       ?cursor@Fl_Window@@QAEXW4Fl_Cursor@@@Z 00467d70 f   fltk:fl_cursor.obj
 0001:00066e10       ?cursor@Fl_Window@@QAEXPBVFl_RGB_Image@@HH@Z 00467e10 f   fltk:fl_cursor.obj
 0001:00066ea0       ?default_cursor@Fl_Window@@QAEXW4Fl_Cursor@@@Z 00467ea0 f   fltk:fl_cursor.obj
 0001:00066ed0       ?cursor@Fl_Window@@QAEXW4Fl_Cursor@@II@Z 00467ed0 f   fltk:fl_cursor.obj
 0001:00066ef0       ?default_cursor@Fl_Window@@QAEXW4Fl_Cursor@@II@Z 00467ef0 f   fltk:fl_cursor.obj
 0001:00066f10       ?fl_cursor@@YAXW4Fl_Cursor@@@Z 00467f10 f   fltk:fl_cursor.obj
 0001:00066f30       ?fl_cursor@@YAXW4Fl_Cursor@@II@Z 00467f30 f   fltk:fl_cursor.obj
 0001:00067180       ?fl_draw_symbol@@YAHPBDHHHHI@Z 00468180 f   fltk:fl_symbols.obj
 0001:00067730       ?fl_add_symbol@@YAHPBDP6AXI@ZH@Z 00468730 f   fltk:fl_symbols.obj
 0001:0006dc00       ?draw@Fl_Choice@@MAEXXZ    0046ec00 f   fltk:Fl_Choice.obj
 0001:0006e3a0       ?handle@Fl_Choice@@UAEHH@Z 0046f3a0 f   fltk:Fl_Choice.obj
 0001:0006e640       ??0Fl_Choice@@QAE@HHHHPBD@Z 0046f640 f   fltk:Fl_Choice.obj
 0001:0006e6a0       ?value@Fl_Choice@@QAEHH@Z  0046f6a0 f   fltk:Fl_Choice.obj
 0001:0006e710       ?value@Fl_Choice@@QAEHPBUFl_Menu_Item@@@Z 0046f710 f   fltk:Fl_Choice.obj
 0001:0006e740       ??_GFl_Choice@@UAEPAXI@Z   0046f740 f i fltk:Fl_Choice.obj
 0001:0006e740       ??_EFl_Choice@@UAEPAXI@Z   0046f740 f i fltk:Fl_Choice.obj
 0001:0006e770       ?handle@Fl_Tile@@UAEHH@Z   0046f770 f   fltk:Fl_Tile.obj
 0001:0006ec50       ??0Fl_Tile@@QAE@HHHHPBD@Z  0046fc50 f   fltk:Fl_Tile.obj
 0001:0006ec90       ?resize@Fl_Tile@@UAEXHHHH@Z 0046fc90 f   fltk:Fl_Tile.obj
 0001:0006ef10       ?position@Fl_Tile@@QAEXHHHH@Z 0046ff10 f   fltk:Fl_Tile.obj
 0001:0006f130       ??_GFl_Tile@@UAEPAXI@Z     00470130 f i fltk:Fl_Tile.obj
 0001:0006f130       ??_EFl_Tile@@UAEPAXI@Z     00470130 f i fltk:Fl_Tile.obj
 0001:0006f160       ?update_top@Fl_Browser_@@AAEXXZ 00470160 f   fltk:Fl_Browser_.obj
 0001:0006f390       ?item_quick_height@Fl_Browser_@@MBEHPAX@Z 00470390 f   fltk:Fl_Browser_.obj
 0001:0006f3b0       ?full_width@Fl_Browser_@@MBEHXZ 004703b0 f   fltk:Fl_Browser_.obj
 0001:0006f3d0       ?full_height@Fl_Browser_@@MBEHXZ 004703d0 f   fltk:Fl_Browser_.obj
 0001:0006f430       ?incr_height@Fl_Browser_@@MBEHXZ 00470430 f   fltk:Fl_Browser_.obj
 0001:0006f460       ?item_select@Fl_Browser_@@MAEXPAXH@Z 00470460 f   fltk:Fl_Browser_.obj
 0001:0006f470       ?item_selected@Fl_Browser_@@MBEHPAX@Z 00470470 f   fltk:Fl_Browser_.obj
 0001:0006f4a0       ?new_list@Fl_Browser_@@IAEXXZ 004704a0 f   fltk:Fl_Browser_.obj
 0001:0006f520       ?deleting@Fl_Browser_@@IAEXPAX@Z 00470520 f   fltk:Fl_Browser_.obj
 0001:0006f620       ?replacing@Fl_Browser_@@IAEXPAX0@Z 00470620 f   fltk:Fl_Browser_.obj
 0001:0006f6a0       ?swapping@Fl_Browser_@@IAEXPAX0@Z 004706a0 f   fltk:Fl_Browser_.obj
 0001:0006f740       ?inserting@Fl_Browser_@@IAEXPAX0@Z 00470740 f   fltk:Fl_Browser_.obj
 0001:0006f790       ?displayed@Fl_Browser_@@IBEHPAX@Z 00470790 f   fltk:Fl_Browser_.obj
 0001:0006f820       ?redraw_line@Fl_Browser_@@IAEXPAX@Z 00470820 f   fltk:Fl_Browser_.obj
 0001:0006f8a0       ?bbox@Fl_Browser_@@IBEXAAH000@Z 004708a0 f   fltk:Fl_Browser_.obj
 0001:0006fa40       ?leftedge@Fl_Browser_@@IBEHXZ 00470a40 f   fltk:Fl_Browser_.obj
 0001:0006fa70       ?find_item@Fl_Browser_@@IAEPAXH@Z 00470a70 f   fltk:Fl_Browser_.obj
 0001:0006fb20       ?draw@Fl_Browser_@@MAEXXZ  00470b20 f   fltk:Fl_Browser_.obj
 0001:000709f0       ??0Fl_Browser_@@IAE@HHHHPBD@Z 004719f0 f   fltk:Fl_Browser_.obj
 0001:00070bb0       ?handle@Fl_Browser_@@UAEHH@Z 00471bb0 f   fltk:Fl_Browser_.obj
 0001:00071ef0       ?resize@Fl_Browser_@@UAEXHHHH@Z 00472ef0 f   fltk:Fl_Browser_.obj
 0001:00072000       ?select@Fl_Browser_@@QAEHPAXHH@Z 00473000 f   fltk:Fl_Browser_.obj
 0001:000721c0       ?select_only@Fl_Browser_@@QAEHPAXH@Z 004731c0 f   fltk:Fl_Browser_.obj
 0001:00072340       ?deselect@Fl_Browser_@@QAEHH@Z 00473340 f   fltk:Fl_Browser_.obj
 0001:00072410       ?position@Fl_Browser_@@QAEXH@Z 00473410 f   fltk:Fl_Browser_.obj
 0001:00072460       ?hposition@Fl_Browser_@@QAEXH@Z 00473460 f   fltk:Fl_Browser_.obj
 0001:000724b0       ?display@Fl_Browser_@@QAEXPAX@Z 004734b0 f   fltk:Fl_Browser_.obj
 0001:000726b0       ?sort@Fl_Browser_@@QAEXH@Z 004736b0 f   fltk:Fl_Browser_.obj
 0001:000728c0       ??_EFl_Browser_@@UAEPAXI@Z 004738c0 f i fltk:Fl_Browser_.obj
 0001:000728c0       ??_GFl_Browser_@@UAEPAXI@Z 004738c0 f i fltk:Fl_Browser_.obj
 0001:00072910       ?item_at@Fl_Browser_@@MBEPAXH@Z 00473910 f i fltk:Fl_Browser_.obj
 0001:00072920       ?item_last@Fl_Browser_@@MBEPAXXZ 00473920 f i fltk:Fl_Browser_.obj
 0001:00072930       ?item_swap@Fl_Browser_@@MAEXPAX0@Z 00473930 f i fltk:Fl_Browser_.obj
 0001:00072940       ?item_text@Fl_Browser_@@MBEPBDPAX@Z 00473940 f i fltk:Fl_Browser_.obj
 0001:00072950       ?full_height@Fl_File_Browser@@EBEHXZ 00473950 f   fltk:Fl_File_Browser.obj
 0001:000729b0       ?item_height@Fl_File_Browser@@EBEHPAX@Z 004739b0 f   fltk:Fl_File_Browser.obj
 0001:00072a90       ?item_width@Fl_File_Browser@@EBEHPAX@Z 00473a90 f   fltk:Fl_File_Browser.obj
 0001:00072ea0       ?item_draw@Fl_File_Browser@@EBEXPAXHHHH@Z 00473ea0 f   fltk:Fl_File_Browser.obj
 0001:00073500       ??0Fl_File_Browser@@QAE@HHHHPBD@Z 00474500 f   fltk:Fl_File_Browser.obj
 0001:00073580       ?filter@Fl_File_Browser@@QAEXPBD@Z 00474580 f   fltk:Fl_File_Browser.obj
 0001:000735b0       ?load@Fl_File_Browser@@QAEHPBDP6AHPAPAUdirent@@1@Z@Z 004745b0 f   fltk:Fl_File_Browser.obj
 0001:000739c0       ??1Fl_Browser@@UAE@XZ      004749c0 f i fltk:Fl_File_Browser.obj
 0001:00073a30       ??_EFl_Browser@@UAEPAXI@Z  00474a30 f i fltk:Fl_File_Browser.obj
 0001:00073a30       ??_GFl_Browser@@UAEPAXI@Z  00474a30 f i fltk:Fl_File_Browser.obj
 0001:00073a70       ??_GFl_File_Browser@@UAEPAXI@Z 00474a70 f i fltk:Fl_File_Browser.obj
 0001:00073a70       ??_EFl_File_Browser@@UAEPAXI@Z 00474a70 f i fltk:Fl_File_Browser.obj
 0001:00073ab0       ?hide@Fl_Browser@@UAEXXZ   00474ab0 f i fltk:Fl_File_Browser.obj
 0001:00073ad0       ?incr_height@Fl_File_Browser@@EBEHXZ 00474ad0 f i fltk:Fl_File_Browser.obj
 0001:00073af0       ?item_at@Fl_Browser@@MBEPAXH@Z 00474af0 f i fltk:Fl_File_Browser.obj
 0001:00073b10       ?item_swap@Fl_Browser@@MAEXPAX0@Z 00474b10 f i fltk:Fl_File_Browser.obj
 0001:00073b30       ?show@Fl_Browser@@UAEXXZ   00474b30 f i fltk:Fl_File_Browser.obj
 0001:00073b50       ??0Fl_Check_Button@@QAE@HHHHPBD@Z 00474b50 f   fltk:Fl_Check_Button.obj
 0001:00073ba0       ??_GFl_Check_Button@@UAEPAXI@Z 00474ba0 f i fltk:Fl_Check_Button.obj
 0001:00073ba0       ??_EFl_Check_Button@@UAEPAXI@Z 00474ba0 f i fltk:Fl_Check_Button.obj
 0001:00073bd0       ?draw_buttons@Fl_File_Input@@AAEXXZ 00474bd0 f   fltk:Fl_File_Input.obj
 0001:00073f50       ?handle_button@Fl_File_Input@@AAEHH@Z 00474f50 f   fltk:Fl_File_Input.obj
 0001:00074200       ?update_buttons@Fl_File_Input@@AAEXXZ 00475200 f   fltk:Fl_File_Input.obj
 0001:00074340       ??0Fl_File_Input@@QAE@HHHHPBD@Z 00475340 f   fltk:Fl_File_Input.obj
 0001:000743c0       ?handle@Fl_File_Input@@UAEHH@Z 004753c0 f   fltk:Fl_File_Input.obj
 0001:00074570       ?draw@Fl_File_Input@@MAEXXZ 00475570 f   fltk:Fl_File_Input.obj
 0001:000746e0       ?value@Fl_File_Input@@QAEHPBD@Z 004756e0 f   fltk:Fl_File_Input.obj
 0001:00074710       ?value@Fl_File_Input@@QAEHPBDH@Z 00475710 f   fltk:Fl_File_Input.obj
 0001:00074740       ??_GFl_File_Input@@UAEPAXI@Z 00475740 f i fltk:Fl_File_Input.obj
 0001:00074740       ??_EFl_File_Input@@UAEPAXI@Z 00475740 f i fltk:Fl_File_Input.obj
 0001:00074780       ?item_first@Fl_Browser@@MBEPAXXZ 00475780 f   fltk:Fl_Browser.obj
 0001:000747a0       ?item_next@Fl_Browser@@MBEPAXPAX@Z 004757a0 f   fltk:Fl_Browser.obj
 0001:000747c0       ?item_prev@Fl_Browser@@MBEPAXPAX@Z 004757c0 f   fltk:Fl_Browser.obj
 0001:000747e0       ?item_last@Fl_Browser@@MBEPAXXZ 004757e0 f   fltk:Fl_Browser.obj
 0001:00074800       ?item_selected@Fl_Browser@@MBEHPAX@Z 00475800 f   fltk:Fl_Browser.obj
 0001:00074820       ?item_select@Fl_Browser@@MAEXPAXH@Z 00475820 f   fltk:Fl_Browser.obj
 0001:00074860       ?item_height@Fl_Browser@@MBEHPAX@Z 00475860 f   fltk:Fl_Browser.obj
 0001:00074c10       ?item_width@Fl_Browser@@MBEHPAX@Z 00475c10 f   fltk:Fl_Browser.obj
 0001:00074f10       ?item_draw@Fl_Browser@@MBEXPAXHHHH@Z 00475f10 f   fltk:Fl_Browser.obj
 0001:000754d0       ?full_height@Fl_Browser@@MBEHXZ 004764d0 f   fltk:Fl_Browser.obj
 0001:000754f0       ?incr_height@Fl_Browser@@MBEHXZ 004764f0 f   fltk:Fl_Browser.obj
 0001:00075510       ?item_text@Fl_Browser@@MBEPBDPAX@Z 00476510 f   fltk:Fl_Browser.obj
 0001:00075530       ?find_line@Fl_Browser@@IBEPAUFL_BLINE@@H@Z 00476530 f   fltk:Fl_Browser.obj
 0001:00075660       ?_remove@Fl_Browser@@IAEPAUFL_BLINE@@H@Z 00476660 f   fltk:Fl_Browser.obj
 0001:00075740       ?insert@Fl_Browser@@IAEXHPAUFL_BLINE@@@Z 00476740 f   fltk:Fl_Browser.obj
 0001:000758c0       ?lineno@Fl_Browser@@IBEHPAX@Z 004768c0 f   fltk:Fl_Browser.obj
 0001:00075a10       ?swap@Fl_Browser@@IAEXPAUFL_BLINE@@0@Z 00476a10 f   fltk:Fl_Browser.obj
 0001:00075bf0       ?remove@Fl_Browser@@QAEXH@Z 00476bf0 f   fltk:Fl_Browser.obj
 0001:00075c30       ?add@Fl_Browser@@QAEXPBDPAX@Z 00476c30 f   fltk:Fl_Browser.obj
 0001:00075c60       ?insert@Fl_Browser@@QAEXHPBDPAX@Z 00476c60 f   fltk:Fl_Browser.obj
 0001:00075ce0       ?move@Fl_Browser@@QAEXHH@Z 00476ce0 f   fltk:Fl_Browser.obj
 0001:00075d20       ?swap@Fl_Browser@@QAEXHH@Z 00476d20 f   fltk:Fl_Browser.obj
 0001:00075d90       ?clear@Fl_Browser@@QAEXXZ  00476d90 f   fltk:Fl_Browser.obj
 0001:00075e10       ?topline@Fl_Browser@@QBEHXZ 00476e10 f   fltk:Fl_Browser.obj
 0001:00075e40       ?lineposition@Fl_Browser@@QAEXHW4Fl_Line_Position@1@@Z 00476e40 f   fltk:Fl_Browser.obj
 0001:00075f70       ?select@Fl_Browser@@QAEHHH@Z 00476f70 f   fltk:Fl_Browser.obj
 0001:00075fb0       ?selected@Fl_Browser@@QBEHH@Z 00476fb0 f   fltk:Fl_Browser.obj
 0001:00075ff0       ?show@Fl_Browser@@QAEXH@Z  00476ff0 f   fltk:Fl_Browser.obj
 0001:00076070       ?hide@Fl_Browser@@QAEXH@Z  00477070 f   fltk:Fl_Browser.obj
 0001:000760f0       ?visible@Fl_Browser@@QBEHH@Z 004770f0 f   fltk:Fl_Browser.obj
 0001:00076140       ?value@Fl_Browser@@QBEHXZ  00477140 f   fltk:Fl_Browser.obj
 0001:00076170       ?text@Fl_Browser@@QBEPBDH@Z 00477170 f   fltk:Fl_Browser.obj
 0001:000761b0       ?text@Fl_Browser@@QAEXHPBD@Z 004771b0 f   fltk:Fl_Browser.obj
 0001:000762f0       ?data@Fl_Browser@@QBEPAXH@Z 004772f0 f   fltk:Fl_Browser.obj
 0001:00076330       ?data@Fl_Browser@@QAEXHPAX@Z 00477330 f   fltk:Fl_Browser.obj
 0001:00076370       ??0Fl_Browser@@QAE@HHHHPBD@Z 00477370 f   fltk:Fl_Browser.obj
 0001:00076420       ?icon@Fl_Browser@@QAEXHPAVFl_Image@@@Z 00477420 f   fltk:Fl_Browser.obj
 0001:00076540       ?icon@Fl_Browser@@QBEPAVFl_Image@@H@Z 00477540 f   fltk:Fl_Browser.obj
 0001:00076580       ?remove_icon@Fl_Browser@@QAEXH@Z 00477580 f   fltk:Fl_Browser.obj
 0001:000765a0       ?display@Fl_Browser@@QAEXHH@Z 004775a0 f   fltk:Fl_Browser.obj
 0001:000765f0       ??0Fl_Hold_Browser@@QAE@HHHHPBD@Z 004775f0 f   fltk:Fl_Browser.obj
 0001:00076630       ??0Fl_Multi_Browser@@QAE@HHHHPBD@Z 00477630 f   fltk:Fl_Browser.obj
 0001:00076670       ??0Fl_Select_Browser@@QAE@HHHHPBD@Z 00477670 f   fltk:Fl_Browser.obj
 0001:000766b0       ??_GFl_Hold_Browser@@UAEPAXI@Z 004776b0 f i fltk:Fl_Browser.obj
 0001:000766b0       ??_EFl_Hold_Browser@@UAEPAXI@Z 004776b0 f i fltk:Fl_Browser.obj
 0001:000766f0       ??_EFl_Multi_Browser@@UAEPAXI@Z 004776f0 f i fltk:Fl_Browser.obj
 0001:000766f0       ??_GFl_Multi_Browser@@UAEPAXI@Z 004776f0 f i fltk:Fl_Browser.obj
 0001:00076730       ??_EFl_Select_Browser@@UAEPAXI@Z 00477730 f i fltk:Fl_Browser.obj
 0001:00076730       ??_GFl_Select_Browser@@UAEPAXI@Z 00477730 f i fltk:Fl_Browser.obj
 0001:00076770       ??0Fl_File_Icon@@QAE@PBDHHPAF@Z 00477770 f   fltk:Fl_File_Icon.obj
 0001:00076810       ??1Fl_File_Icon@@QAE@XZ    00477810 f   fltk:Fl_File_Icon.obj
 0001:00076890       ?add@Fl_File_Icon@@QAEPAFF@Z 00477890 f   fltk:Fl_File_Icon.obj
 0001:00076960       ?draw@Fl_File_Icon@@QAEXHHHHIH@Z 00477960 f   fltk:Fl_File_Icon.obj
 0001:00077180       ?label@Fl_File_Icon@@QAEXPAVFl_Widget@@@Z 00478180 f   fltk:Fl_File_Icon.obj
 0001:000771b0       ?labeltype@Fl_File_Icon@@SAXPBUFl_Label@@HHHHI@Z 004781b0 f   fltk:Fl_File_Icon.obj
 0001:000771f0       ?find@Fl_File_Icon@@SAPAV1@PBDH@Z 004781f0 f   fltk:Fl_File_Icon.obj
 0001:000772c0       ?fl_filename_expand@@YAHPADHPBD@Z 004782c0 f   fltk:filename_expand.obj
 0001:00077560       ?fl_filename_isdir@@YAHPBD@Z 00478560 f   fltk:filename_isdir.obj
 0001:00077780       ?_fl_filename_isdir_quick@@YAHPBD@Z 00478780 f   fltk:filename_isdir.obj
 0001:000777f0       ?compare@Fl_Shared_Image@@KAHPAPAV1@0@Z 004787f0 f   fltk:Fl_Shared_Image.obj
 0001:000778d0       ??0Fl_Shared_Image@@IAE@XZ 004788d0 f   fltk:Fl_Shared_Image.obj
 0001:00077960       ??0Fl_Shared_Image@@IAE@PBDPAVFl_Image@@@Z 00478960 f   fltk:Fl_Shared_Image.obj
 0001:00077a90       ??1Fl_Shared_Image@@MAE@XZ 00478a90 f   fltk:Fl_Shared_Image.obj
 0001:00077b10       ?add@Fl_Shared_Image@@IAEXXZ 00478b10 f   fltk:Fl_Shared_Image.obj
 0001:00077bf0       ?update@Fl_Shared_Image@@IAEXXZ 00478bf0 f   fltk:Fl_Shared_Image.obj
 0001:00077c70       ?release@Fl_Shared_Image@@QAEXXZ 00478c70 f   fltk:Fl_Shared_Image.obj
 0001:00077d80       ?reload@Fl_Shared_Image@@QAEXXZ 00478d80 f   fltk:Fl_Shared_Image.obj
 0001:000780a0       ?copy@Fl_Shared_Image@@UAEPAVFl_Image@@HH@Z 004790a0 f   fltk:Fl_Shared_Image.obj
 0001:000781b0       ?color_average@Fl_Shared_Image@@UAEXIM@Z 004791b0 f   fltk:Fl_Shared_Image.obj
 0001:00078200       ?desaturate@Fl_Shared_Image@@UAEXXZ 00479200 f   fltk:Fl_Shared_Image.obj
 0001:00078240       ?draw@Fl_Shared_Image@@UAEXHHHHHH@Z 00479240 f   fltk:Fl_Shared_Image.obj
 0001:000782b0       ?uncache@Fl_Shared_Image@@UAEXXZ 004792b0 f   fltk:Fl_Shared_Image.obj
 0001:000782e0       ?find@Fl_Shared_Image@@SAPAV1@PBDHH@Z 004792e0 f   fltk:Fl_Shared_Image.obj
 0001:00078430       ?get@Fl_Shared_Image@@SAPAV1@PBDHH@Z 00479430 f   fltk:Fl_Shared_Image.obj
 0001:00078580       ?images@Fl_Shared_Image@@SAPAPAV1@XZ 00479580 f   fltk:Fl_Shared_Image.obj
 0001:00078590       ?num_images@Fl_Shared_Image@@SAHXZ 00479590 f   fltk:Fl_Shared_Image.obj
 0001:000785a0       ?add_handler@Fl_Shared_Image@@SAXP6APAVFl_Image@@PBDPAEH@Z@Z 004795a0 f   fltk:Fl_Shared_Image.obj
 0001:00078690       ?remove_handler@Fl_Shared_Image@@SAXP6APAVFl_Image@@PBDPAEH@Z@Z 00479690 f   fltk:Fl_Shared_Image.obj
 0001:00078720       ??_EFl_Shared_Image@@MAEPAXI@Z 00479720 f i fltk:Fl_Shared_Image.obj
 0001:00078720       ??_GFl_Shared_Image@@MAEPAXI@Z 00479720 f i fltk:Fl_Shared_Image.obj
 0001:00078750       ?show@Fl_Single_Window@@UAEXXZ 00479750 f   fltk:Fl_Single_Window.obj
 0001:00078770       ?flush@Fl_Single_Window@@UAEXXZ 00479770 f   fltk:Fl_Single_Window.obj
 0001:00078790       ??0Fl_Single_Window@@QAE@HHPBD@Z 00479790 f   fltk:Fl_Single_Window.obj
 0001:000787c0       ??0Fl_Single_Window@@QAE@HHHHPBD@Z 004797c0 f   fltk:Fl_Single_Window.obj
 0001:00078800       ??_EFl_Single_Window@@UAEPAXI@Z 00479800 f i fltk:Fl_Single_Window.obj
 0001:00078800       ??_GFl_Single_Window@@UAEPAXI@Z 00479800 f i fltk:Fl_Single_Window.obj
 0001:00078840       _fl_scandir                00479840 f   fltk:scandir.obj
 0001:00078dc0       ?timeout_cb@Fl_Scrollbar@@CAXPAX@Z 00479dc0 f   fltk:Fl_Scrollbar.obj
 0001:00078e00       ?increment_cb@Fl_Scrollbar@@AAEXXZ 00479e00 f   fltk:Fl_Scrollbar.obj
 0001:00079010       ?draw@Fl_Scrollbar@@MAEXXZ 0047a010 f   fltk:Fl_Scrollbar.obj
 0001:000797c0       ??0Fl_Scrollbar@@QAE@HHHHPBD@Z 0047a7c0 f   fltk:Fl_Scrollbar.obj
 0001:00079850       ??1Fl_Scrollbar@@UAE@XZ    0047a850 f   fltk:Fl_Scrollbar.obj
 0001:000798c0       ?handle@Fl_Scrollbar@@UAEHH@Z 0047a8c0 f   fltk:Fl_Scrollbar.obj
 0001:0007a200       ??_GFl_Scrollbar@@UAEPAXI@Z 0047b200 f i fltk:Fl_Scrollbar.obj
 0001:0007a200       ??_EFl_Scrollbar@@UAEPAXI@Z 0047b200 f i fltk:Fl_Scrollbar.obj
 0001:0007a240       ??0Fl_XBM_Image@@QAE@PBD@Z 0047b240 f   fltk:Fl_XBM_Image.obj
 0001:0007a640       ??_EFl_XBM_Image@@UAEPAXI@Z 0047b640 f i fltk:Fl_XBM_Image.obj
 0001:0007a640       ??_GFl_XBM_Image@@UAEPAXI@Z 0047b640 f i fltk:Fl_XBM_Image.obj
 0001:0007a670       ??0Fl_XPM_Image@@QAE@PBD@Z 0047b670 f   fltk:Fl_XPM_Image.obj
 0001:0007ae10       ??_GFl_XPM_Image@@UAEPAXI@Z 0047be10 f i fltk:Fl_XPM_Image.obj
 0001:0007ae10       ??_EFl_XPM_Image@@UAEPAXI@Z 0047be10 f i fltk:Fl_XPM_Image.obj
 0001:0007ae40       ?draw_overlay@Fl_Gl_Window@@EAEXXZ 0047be40 f   fltkgl:Fl_Gl_Window.obj
 0001:0007ae50       ?init@Fl_Gl_Window@@AAEXXZ 0047be50 f   fltkgl:Fl_Gl_Window.obj
 0001:0007aec0       ?can_do@Fl_Gl_Window@@CAHHPBH@Z 0047bec0 f   fltkgl:Fl_Gl_Window.obj
 0001:0007aef0       ?mode@Fl_Gl_Window@@AAEHHPBH@Z 0047bef0 f   fltkgl:Fl_Gl_Window.obj
 0001:0007afe0       ?gl_plugin_linkage@Fl_Gl_Window@@CAHXZ 0047bfe0 f   fltkgl:Fl_Gl_Window.obj
 0001:0007aff0       ?show@Fl_Gl_Window@@UAEXXZ 0047bff0 f   fltkgl:Fl_Gl_Window.obj
 0001:0007b0e0       ?flush@Fl_Gl_Window@@UAEXXZ 0047c0e0 f   fltkgl:Fl_Gl_Window.obj
 0001:0007b680       ?hide@Fl_Gl_Window@@UAEXXZ 0047c680 f   fltkgl:Fl_Gl_Window.obj
 0001:0007b6e0       ?resize@Fl_Gl_Window@@UAEXHHHH@Z 0047c6e0 f   fltkgl:Fl_Gl_Window.obj
 0001:0007b760       ?handle@Fl_Gl_Window@@UAEHH@Z 0047c760 f   fltkgl:Fl_Gl_Window.obj
 0001:0007b780       ?invalidate@Fl_Gl_Window@@QAEXXZ 0047c780 f   fltkgl:Fl_Gl_Window.obj
 0001:0007b800       ?context@Fl_Gl_Window@@QAEXPAXH@Z 0047c800 f   fltkgl:Fl_Gl_Window.obj
 0001:0007b880       ?make_current@Fl_Gl_Window@@QAEXXZ 0047c880 f   fltkgl:Fl_Gl_Window.obj
 0001:0007b9e0       ?swap_buffers@Fl_Gl_Window@@QAEXXZ 0047c9e0 f   fltkgl:Fl_Gl_Window.obj
 0001:0007ba20       ?ortho@Fl_Gl_Window@@QAEXXZ 0047ca20 f   fltkgl:Fl_Gl_Window.obj
 0001:0007bb30       ??1Fl_Gl_Window@@UAE@XZ    0047cb30 f   fltkgl:Fl_Gl_Window.obj
 0001:0007bb80       ?draw@Fl_Gl_Window@@MAEXXZ 0047cb80 f   fltkgl:Fl_Gl_Window.obj
 0001:0007bba0       ?find@Fl_Gl_Choice@@SAPAV1@HPBH@Z 0047cba0 f   fltkgl:Fl_Gl_Choice.obj
 0001:0007be10       ?fl_create_gl_context@@YAPAUHGLRC__@@PAVFl_Window@@PBVFl_Gl_Choice@@H@Z 0047ce10 f   fltkgl:Fl_Gl_Choice.obj
 0001:0007bf10       ?fl_set_gl_context@@YAXPAVFl_Window@@PAUHGLRC__@@@Z 0047cf10 f   fltkgl:Fl_Gl_Choice.obj
 0001:0007bf60       ?fl_no_gl_context@@YAXXZ   0047cf60 f   fltkgl:Fl_Gl_Choice.obj
 0001:0007bf90       ?fl_delete_gl_context@@YAXPAUHGLRC__@@@Z 0047cf90 f   fltkgl:Fl_Gl_Choice.obj
 0001:0007c210       ??_EFl_Device_Plugin@@UAEPAXI@Z 0047d210 f i fltkgl:Fl_Gl_Device_Plugin.obj
 0001:0007c210       ??_GFl_Device_Plugin@@UAEPAXI@Z 0047d210 f i fltkgl:Fl_Gl_Device_Plugin.obj
 0001:0007c240       ??_EFl_Gl_Device_Plugin@@UAEPAXI@Z 0047d240 f i fltkgl:Fl_Gl_Device_Plugin.obj
 0001:0007c240       ??_GFl_Gl_Device_Plugin@@UAEPAXI@Z 0047d240 f i fltkgl:Fl_Gl_Device_Plugin.obj
 0001:0007c270       ?klass@Fl_Device_Plugin@@UAEPBDXZ 0047d270 f i fltkgl:Fl_Gl_Device_Plugin.obj
 0001:0007c280       ?name@Fl_Gl_Device_Plugin@@UAEPBDXZ 0047d280 f i fltkgl:Fl_Gl_Device_Plugin.obj
 0001:0007c290       ?print@Fl_Gl_Device_Plugin@@UAEHPAVFl_Widget@@HHH@Z 0047d290 f i fltkgl:Fl_Gl_Device_Plugin.obj
 0001:0007c2e0       ?gl_color@@YAXI@Z          0047d2e0 f   fltkgl:gl_draw.obj
 0001:0007c3a0       ?gl_rect@@YAXHHHH@Z        0047d3a0 f   fltkgl:gl_draw.obj
 0001:0007c450       ?gl_font@@YAXHH@Z          0047d450 f   fltkgl:gl_draw.obj
 0001:0007c4c0       ?gl_height@@YAHXZ          0047d4c0 f   fltkgl:gl_draw.obj
 0001:0007c4e0       ?gl_descent@@YAHXZ         0047d4e0 f   fltkgl:gl_draw.obj
 0001:0007c500       ?gl_width@@YANPBD@Z        0047d500 f   fltkgl:gl_draw.obj
 0001:0007c520       ?gl_width@@YANPBDH@Z       0047d520 f   fltkgl:gl_draw.obj
 0001:0007c550       ?gl_width@@YANE@Z          0047d550 f   fltkgl:gl_draw.obj
 0001:0007c570       ?gl_draw@@YAXPBD@Z         0047d570 f   fltkgl:gl_draw.obj
 0001:0007c590       ?gl_draw@@YAXPBDH@Z        0047d590 f   fltkgl:gl_draw.obj
 0001:0007c680       ?gl_draw@@YAXPBDHH@Z       0047d680 f   fltkgl:gl_draw.obj
 0001:0007c6b0       ?gl_draw@@YAXPBDMM@Z       0047d6b0 f   fltkgl:gl_draw.obj
 0001:0007c6f0       ?gl_draw@@YAXPBDHHH@Z      0047d6f0 f   fltkgl:gl_draw.obj
 0001:0007c720       ?gl_draw@@YAXPBDHMM@Z      0047d720 f   fltkgl:gl_draw.obj
 0001:0007c760       ?gl_draw@@YAXPBDHHHHI@Z    0047d760 f   fltkgl:gl_draw.obj
 0001:0007c7a0       ?gl_measure@@YAXPBDAAH1@Z  0047d7a0 f   fltkgl:gl_draw.obj
 0001:0007c7c0       ?gl_draw_image@@YAXPBEHHHHHH@Z 0047d7c0 f   fltkgl:gl_draw.obj
 0001:0007c830       ?gl_remove_displaylist_fonts@@YAXXZ 0047d830 f   fltkgl:gl_draw.obj
 0001:0007ca06       _glClear@4                 0047da06 f   opengl32:OPENGL32.dll
 0001:0007ca0c       _glClearColor@16           0047da0c f   opengl32:OPENGL32.dll
 0001:0007ca12       _glDisable@4               0047da12 f   opengl32:OPENGL32.dll
 0001:0007ca18       _glDrawBuffer@4            0047da18 f   opengl32:OPENGL32.dll
 0001:0007ca1e       _glDrawPixels@20           0047da1e f   opengl32:OPENGL32.dll
 0001:0007ca24       _glFlush@0                 0047da24 f   opengl32:OPENGL32.dll
 0001:0007ca2a       _glPixelStorei@8           0047da2a f   opengl32:OPENGL32.dll
 0001:0007ca30       _glRasterPos2i@8           0047da30 f   opengl32:OPENGL32.dll
 0001:0007ca36       _wglRealizeLayerPalette@12 0047da36 f   opengl32:OPENGL32.dll
 0001:0007ca3c       _wglSwapLayerBuffers@8     0047da3c f   opengl32:OPENGL32.dll
 0001:0007ca42       _glCopyPixels@20           0047da42 f   opengl32:OPENGL32.dll
 0001:0007ca48       _glGetIntegerv@8           0047da48 f   opengl32:OPENGL32.dll
 0001:0007ca4e       _glLoadIdentity@0          0047da4e f   opengl32:OPENGL32.dll
 0001:0007ca54       _glOrtho@48                0047da54 f   opengl32:OPENGL32.dll
 0001:0007ca5a       _glReadBuffer@4            0047da5a f   opengl32:OPENGL32.dll
 0001:0007ca60       _glViewport@16             0047da60 f   opengl32:OPENGL32.dll
 0001:0007ca66       _wglCreateContext@4        0047da66 f   opengl32:OPENGL32.dll
 0001:0007ca6c       _wglCreateLayerContext@8   0047da6c f   opengl32:OPENGL32.dll
 0001:0007ca72       _wglDeleteContext@4        0047da72 f   opengl32:OPENGL32.dll
 0001:0007ca78       _wglMakeCurrent@8          0047da78 f   opengl32:OPENGL32.dll
 0001:0007ca7e       _wglShareLists@8           0047da7e f   opengl32:OPENGL32.dll
 0001:0007ca84       _glPopClientAttrib@0       0047da84 f   opengl32:OPENGL32.dll
 0001:0007ca8a       _glPushClientAttrib@4      0047da8a f   opengl32:OPENGL32.dll
 0001:0007ca90       _glReadPixels@28           0047da90 f   opengl32:OPENGL32.dll
 0001:0007ca96       _wglUseFontBitmapsW@16     0047da96 f   opengl32:OPENGL32.dll
 0001:0007ca9c       _glBegin@4                 0047da9c f   opengl32:OPENGL32.dll
 0001:0007caa2       _glCallLists@12            0047daa2 f   opengl32:OPENGL32.dll
 0001:0007caa8       _glColor3ub@12             0047daa8 f   opengl32:OPENGL32.dll
 0001:0007caae       _glDeleteLists@8           0047daae f   opengl32:OPENGL32.dll
 0001:0007cab4       _glEnd@0                   0047dab4 f   opengl32:OPENGL32.dll
 0001:0007caba       _glGenLists@4              0047daba f   opengl32:OPENGL32.dll
 0001:0007cac0       _glIndexi@4                0047dac0 f   opengl32:OPENGL32.dll
 0001:0007cac6       _glListBase@4              0047dac6 f   opengl32:OPENGL32.dll
 0001:0007cacc       _glRasterPos2f@8           0047dacc f   opengl32:OPENGL32.dll
 0001:0007cad2       _glVertex2i@8              0047dad2 f   opengl32:OPENGL32.dll
 0001:0007cad8       _GetModuleHandleA@4        0047dad8 f   kernel32:KERNEL32.dll
 0001:0007cade       _GetProcAddress@8          0047dade f   kernel32:KERNEL32.dll
 0001:0007cae4       _GlobalAlloc@8             0047dae4 f   kernel32:KERNEL32.dll
 0001:0007caea       _GlobalLock@4              0047daea f   kernel32:KERNEL32.dll
 0001:0007caf0       _GlobalUnlock@4            0047daf0 f   kernel32:KERNEL32.dll
 0001:0007caf6       _LoadLibraryA@4            0047daf6 f   kernel32:KERNEL32.dll
 0001:0007cafc       _GetLocaleInfoA@16         0047dafc f   kernel32:KERNEL32.dll
 0001:0007cb02       _GetLastError@0            0047db02 f   kernel32:KERNEL32.dll
 0001:0007cb08       _MultiByteToWideChar@24    0047db08 f   kernel32:KERNEL32.dll
 0001:0007cb0e       _WideCharToMultiByte@32    0047db0e f   kernel32:KERNEL32.dll
 0001:0007cb14       _GetACP@0                  0047db14 f   kernel32:KERNEL32.dll
 0001:0007cb1a       _InitializeCriticalSection@4 0047db1a f   kernel32:KERNEL32.dll
 0001:0007cb20       _EnterCriticalSection@4    0047db20 f   kernel32:KERNEL32.dll
 0001:0007cb26       _LeaveCriticalSection@4    0047db26 f   kernel32:KERNEL32.dll
 0001:0007cb2c       _GetCurrentThreadId@0      0047db2c f   kernel32:KERNEL32.dll
 0001:0007cb32       _GetComputerNameA@8        0047db32 f   kernel32:KERNEL32.dll
 0001:0007cb38       _GetLogicalDrives@0        0047db38 f   kernel32:KERNEL32.dll
 0001:0007cb3e       _FindClose@4               0047db3e f   kernel32:KERNEL32.dll
 0001:0007cb44       _FindFirstFileW@8          0047db44 f   kernel32:KERNEL32.dll
 0001:0007cb4a       _FindNextFileW@8           0047db4a f   kernel32:KERNEL32.dll
 0001:0007cb50       _GetFileAttributesA@4      0047db50 f   kernel32:KERNEL32.dll
 0001:0007cb56       _GetKeyboardLayout@4       0047db56 f   user32:USER32.dll
 0001:0007cb5c       _RegisterWindowMessageW@4  0047db5c f   user32:USER32.dll
 0001:0007cb62       _TranslateMessage@4        0047db62 f   user32:USER32.dll
 0001:0007cb68       _DispatchMessageW@4        0047db68 f   user32:USER32.dll
 0001:0007cb6e       _PeekMessageA@20           0047db6e f   user32:USER32.dll
 0001:0007cb74       _PeekMessageW@20           0047db74 f   user32:USER32.dll
 0001:0007cb7a       _SendMessageA@16           0047db7a f   user32:USER32.dll
 0001:0007cb80       _PostMessageA@16           0047db80 f   user32:USER32.dll
 0001:0007cb86       _DefWindowProcA@16         0047db86 f   user32:USER32.dll
 0001:0007cb8c       _DefWindowProcW@16         0047db8c f   user32:USER32.dll
 0001:0007cb92       _RegisterClassExA@4        0047db92 f   user32:USER32.dll
 0001:0007cb98       _RegisterClassExW@4        0047db98 f   user32:USER32.dll
 0001:0007cb9e       _CreateWindowExA@48        0047db9e f   user32:USER32.dll
 0001:0007cba4       _CreateWindowExW@48        0047dba4 f   user32:USER32.dll
 0001:0007cbaa       _IsWindow@4                0047dbaa f   user32:USER32.dll
 0001:0007cbb0       _DestroyWindow@4           0047dbb0 f   user32:USER32.dll
 0001:0007cbb6       _ShowWindow@8              0047dbb6 f   user32:USER32.dll
 0001:0007cbbc       _OpenIcon@4                0047dbbc f   user32:USER32.dll
 0001:0007cbc2       _SetWindowPos@28           0047dbc2 f   user32:USER32.dll
 0001:0007cbc8       _IsIconic@4                0047dbc8 f   user32:USER32.dll
 0001:0007cbce       _BringWindowToTop@4        0047dbce f   user32:USER32.dll
 0001:0007cbd4       _OpenClipboard@4           0047dbd4 f   user32:USER32.dll
 0001:0007cbda       _CloseClipboard@0          0047dbda f   user32:USER32.dll
 0001:0007cbe0       _GetClipboardOwner@0       0047dbe0 f   user32:USER32.dll
 0001:0007cbe6       _SetClipboardViewer@4      0047dbe6 f   user32:USER32.dll
 0001:0007cbec       _ChangeClipboardChain@8    0047dbec f   user32:USER32.dll
 0001:0007cbf2       _SetClipboardData@8        0047dbf2 f   user32:USER32.dll
 0001:0007cbf8       _GetClipboardData@4        0047dbf8 f   user32:USER32.dll
 0001:0007cbfe       _EmptyClipboard@0          0047dbfe f   user32:USER32.dll
 0001:0007cc04       _IsClipboardFormatAvailable@4 0047dc04 f   user32:USER32.dll
 0001:0007cc0a       _SetFocus@4                0047dc0a f   user32:USER32.dll
 0001:0007cc10       _GetKeyState@4             0047dc10 f   user32:USER32.dll
 0001:0007cc16       _GetAsyncKeyState@4        0047dc16 f   user32:USER32.dll
 0001:0007cc1c       _SetCapture@4              0047dc1c f   user32:USER32.dll
 0001:0007cc22       _ReleaseCapture@0          0047dc22 f   user32:USER32.dll
 0001:0007cc28       _MsgWaitForMultipleObjects@20 0047dc28 f   user32:USER32.dll
 0001:0007cc2e       _SetTimer@16               0047dc2e f   user32:USER32.dll
 0001:0007cc34       _KillTimer@8               0047dc34 f   user32:USER32.dll
 0001:0007cc3a       _GetSystemMetrics@4        0047dc3a f   user32:USER32.dll
 0001:0007cc40       _GetForegroundWindow@0     0047dc40 f   user32:USER32.dll
 0001:0007cc46       _GetDC@4                   0047dc46 f   user32:USER32.dll
 0001:0007cc4c       _ReleaseDC@8               0047dc4c f   user32:USER32.dll
 0001:0007cc52       _GetUpdateRgn@12           0047dc52 f   user32:USER32.dll
 0001:0007cc58       _InvalidateRect@12         0047dc58 f   user32:USER32.dll
 0001:0007cc5e       _ValidateRgn@8             0047dc5e f   user32:USER32.dll
 0001:0007cc64       _SetWindowTextW@8          0047dc64 f   user32:USER32.dll
 0001:0007cc6a       _GetWindowRect@8           0047dc6a f   user32:USER32.dll
 0001:0007cc70       _AdjustWindowRectEx@16     0047dc70 f   user32:USER32.dll
 0001:0007cc76       _SetCursor@4               0047dc76 f   user32:USER32.dll
 0001:0007cc7c       _GetCursorPos@4            0047dc7c f   user32:USER32.dll
 0001:0007cc82       _ClientToScreen@8          0047dc82 f   user32:USER32.dll
 0001:0007cc88       _MapWindowPoints@16        0047dc88 f   user32:USER32.dll
 0001:0007cc8e       _GetWindowLongA@8          0047dc8e f   user32:USER32.dll
 0001:0007cc94       _SetWindowLongA@12         0047dc94 f   user32:USER32.dll
 0001:0007cc9a       _GetParent@4               0047dc9a f   user32:USER32.dll
 0001:0007cca0       _GetWindow@8               0047dca0 f   user32:USER32.dll
 0001:0007cca6       _LoadCursorA@8             0047dca6 f   user32:USER32.dll
 0001:0007ccac       _LoadIconA@8               0047dcac f   user32:USER32.dll
 0001:0007ccb2       _DestroyIcon@4             0047dcb2 f   user32:USER32.dll
 0001:0007ccb8       _CreateIconIndirect@4      0047dcb8 f   user32:USER32.dll
 0001:0007ccbe       _CopyIcon@4                0047dcbe f   user32:USER32.dll
 0001:0007ccc4       _SystemParametersInfoA@16  0047dcc4 f   user32:USER32.dll
 0001:0007ccca       _MessageBeep@4             0047dcca f   user32:USER32.dll
 0001:0007ccd0       _PostThreadMessageA@16     0047dcd0 f   user32:USER32.dll
 0001:0007ccd6       _FillRect@12               0047dcd6 f   user32:USER32.dll
 0001:0007ccdc       _GetSysColor@4             0047dcdc f   user32:USER32.dll
 0001:0007cce2       _MessageBoxA@16            0047dce2 f   user32:USER32.dll
 0001:0007cce8       _SetForegroundWindow@4     0047dce8 f   user32:USER32.dll
 0001:0007ccee       _WindowFromPoint@8         0047dcee f   user32:USER32.dll
 0001:0007ccf4       _SetActiveWindow@4         0047dcf4 f   user32:USER32.dll
 0001:0007ccfa       _SetWindowRgn@12           0047dcfa f   user32:USER32.dll
 0001:0007cd00       _SetRect@20                0047dd00 f   user32:USER32.dll
 0001:0007cd06       _GetDCEx@12                0047dd06 f   user32:USER32.dll
 0001:0007cd0c       _GetDeviceCaps@8           0047dd0c f   gdi32:GDI32.dll
 0001:0007cd12       _CombineRgn@16             0047dd12 f   gdi32:GDI32.dll
 0001:0007cd18       _CreateBitmap@20           0047dd18 f   gdi32:GDI32.dll
 0001:0007cd1e       _CreateCompatibleBitmap@12 0047dd1e f   gdi32:GDI32.dll
 0001:0007cd24       _CreateRectRgn@16          0047dd24 f   gdi32:GDI32.dll
 0001:0007cd2a       _DeleteDC@4                0047dd2a f   gdi32:GDI32.dll
 0001:0007cd30       _DeleteObject@4            0047dd30 f   gdi32:GDI32.dll
 0001:0007cd36       _RestoreDC@8               0047dd36 f   gdi32:GDI32.dll
 0001:0007cd3c       _SaveDC@4                  0047dd3c f   gdi32:GDI32.dll
 0001:0007cd42       _SetBkMode@8               0047dd42 f   gdi32:GDI32.dll
 0001:0007cd48       _SetDIBitsToDevice@48      0047dd48 f   gdi32:GDI32.dll
 0001:0007cd4e       _SetTextAlign@8            0047dd4e f   gdi32:GDI32.dll
 0001:0007cd54       _UpdateColors@4            0047dd54 f   gdi32:GDI32.dll
 0001:0007cd5a       _GetEnhMetaFileHeader@12   0047dd5a f   gdi32:GDI32.dll
 0001:0007cd60       _PlayEnhMetaFile@12        0047dd60 f   gdi32:GDI32.dll
 0001:0007cd66       _CreateDIBSection@24       0047dd66 f   gdi32:GDI32.dll
 0001:0007cd6c       _CreatePolygonRgn@12       0047dd6c f   gdi32:GDI32.dll
 0001:0007cd72       _LPtoDP@12                 0047dd72 f   gdi32:GDI32.dll
 0001:0007cd78       _GdiFlush@0                0047dd78 f   gdi32:GDI32.dll
 0001:0007cd7e       _CreateDCA@16              0047dd7e f   gdi32:GDI32.dll
 0001:0007cd84       _BitBlt@36                 0047dd84 f   gdi32:GDI32.dll
 0001:0007cd8a       _CreateCompatibleDC@4      0047dd8a f   gdi32:GDI32.dll
 0001:0007cd90       _SelectObject@8            0047dd90 f   gdi32:GDI32.dll
 0001:0007cd96       _CreatePalette@4           0047dd96 f   gdi32:GDI32.dll
 0001:0007cd9c       _CreatePen@12              0047dd9c f   gdi32:GDI32.dll
 0001:0007cda2       _CreateSolidBrush@4        0047dda2 f   gdi32:GDI32.dll
 0001:0007cda8       _GetStockObject@4          0047dda8 f   gdi32:GDI32.dll
 0001:0007cdae       _RealizePalette@4          0047ddae f   gdi32:GDI32.dll
 0001:0007cdb4       _SelectPalette@12          0047ddb4 f   gdi32:GDI32.dll
 0001:0007cdba       _SetPixel@16               0047ddba f   gdi32:GDI32.dll
 0001:0007cdc0       _EqualRgn@8                0047ddc0 f   gdi32:GDI32.dll
 0001:0007cdc6       _GetRgnBox@8               0047ddc6 f   gdi32:GDI32.dll
 0001:0007cdcc       _LineTo@12                 0047ddcc f   gdi32:GDI32.dll
 0001:0007cdd2       _RectInRegion@8            0047ddd2 f   gdi32:GDI32.dll
 0001:0007cdd8       _SelectClipRgn@8           0047ddd8 f   gdi32:GDI32.dll
 0001:0007cdde       _MoveToEx@16               0047ddde f   gdi32:GDI32.dll
 0001:0007cde4       _DPtoLP@12                 0047dde4 f   gdi32:GDI32.dll
 0001:0007cdea       _Polygon@12                0047ddea f   gdi32:GDI32.dll
 0001:0007cdf0       _ExtCreatePen@20           0047ddf0 f   gdi32:GDI32.dll
 0001:0007cdf6       _Arc@36                    0047ddf6 f   gdi32:GDI32.dll
 0001:0007cdfc       _Pie@36                    0047ddfc f   gdi32:GDI32.dll
 0001:0007ce02       _PolyPolygon@16            0047de02 f   gdi32:GDI32.dll
 0001:0007ce08       _Polyline@12               0047de08 f   gdi32:GDI32.dll
 0001:0007ce0e       _CreateFontA@56            0047de0e f   gdi32:GDI32.dll
 0001:0007ce14       _GetGlyphOutlineW@28       0047de14 f   gdi32:GDI32.dll
 0001:0007ce1a       _GetTextExtentPoint32W@16  0047de1a f   gdi32:GDI32.dll
 0001:0007ce20       _GetCharacterPlacementW@24 0047de20 f   gdi32:GDI32.dll
 0001:0007ce26       _SetTextColor@8            0047de26 f   gdi32:GDI32.dll
 0001:0007ce2c       _GetTextMetricsA@8         0047de2c f   gdi32:GDI32.dll
 0001:0007ce32       _TextOutW@20               0047de32 f   gdi32:GDI32.dll
 0001:0007ce38       _StretchDIBits@52          0047de38 f   gdi32:GDI32.dll
 0001:0007ce3e       _GetDIBits@28              0047de3e f   gdi32:GDI32.dll
 0001:0007ce44       _ExtCreateRegion@12        0047de44 f   gdi32:GDI32.dll
 0001:0007ce4a       _DescribePixelFormat@16    0047de4a f   gdi32:GDI32.dll
 0001:0007ce50       _SetPixelFormat@12         0047de50 f   gdi32:GDI32.dll
 0001:0007ce56       _RegCloseKey@4             0047de56 f   advapi32:ADVAPI32.dll
 0001:0007ce5c       _RegOpenKeyW@12            0047de5c f   advapi32:ADVAPI32.dll
 0001:0007ce62       _RegQueryValueExW@24       0047de62 f   advapi32:ADVAPI32.dll
 0001:0007ce68       _DragQueryFileW@16         0047de68 f   shell32:SHELL32.dll
 0001:0007ce6e       _OleInitialize@4           0047de6e f   ole32:ole32.dll
 0001:0007ce74       _OleUninitialize@0         0047de74 f   ole32:ole32.dll
 0001:0007ce7a       _RegisterDragDrop@8        0047de7a f   ole32:ole32.dll
 0001:0007ce80       _DoDragDrop@16             0047de80 f   ole32:ole32.dll
 0001:0007ce86       _ReleaseStgMedium@4        0047de86 f   ole32:ole32.dll
 0001:0007ce8c       ??2@YAPAXI@Z               0047de8c f   MSVCRT:new_scalar.obj
 0001:0007cebf       ??3@YAXPAXI@Z              0047debf f   MSVCRT:delete_scalar_size.obj
 0001:0007cecd       @__security_check_cookie@4 0047decd f   MSVCRT:_secchk_.obj
 0001:0007cede       ??3@YAXPAX@Z               0047dede f   MSVCRT:delete_scalar.obj
 0001:0007cee3       ??_U@YAPAXI@Z              0047dee3 f   MSVCRT:new_array.obj
 0001:0007ceec       ??_V@YAXPAX@Z              0047deec f   MSVCRT:delete_array.obj
 0001:0007cef1       ??1type_info@@UAE@XZ       0047def1 f   MSVCRT:std_type_info_static.obj
 0001:0007cef8       ??_Etype_info@@UAEPAXI@Z   0047def8 f i MSVCRT:std_type_info_static.obj
 0001:0007cef8       ??_Gtype_info@@UAEPAXI@Z   0047def8 f i MSVCRT:std_type_info_static.obj
 0001:0007cf1b       ??$__crt_fast_decode_pointer@PAP6AXXZ@@YAPAP6AXXZQAP6AXXZ@Z 0047df1b f i MSVCRT:utility.obj
 0001:0007cf2f       ??$__crt_fast_encode_pointer@PAP6AXXZ@@YAPAP6AXXZQAP6AXXZ@Z 0047df2f f i MSVCRT:utility.obj
 0001:0007cf4c       ?__crt_rotate_pointer_value@@YAIIH@Z 0047df4c f i MSVCRT:utility.obj
 0001:0007cf59       ?configure_argv@__scrt_narrow_argv_policy@@SAHXZ 0047df59 f i MSVCRT:utility.obj
 0001:0007cfdd       _NtCurrentTeb              0047dfdd f i MSVCRT:utility.obj
 0001:0007cfe4       ___scrt_acquire_startup_lock 0047dfe4 f   MSVCRT:utility.obj
 0001:0007d019       ___scrt_dllmain_after_initialize_c 0047e019 f   MSVCRT:utility.obj
 0001:0007d044       ___scrt_dllmain_before_initialize_c 0047e044 f   MSVCRT:utility.obj
 0001:0007d052       ___scrt_dllmain_crt_thread_attach 0047e052 f   MSVCRT:utility.obj
 0001:0007d071       ___scrt_dllmain_crt_thread_detach 0047e071 f   MSVCRT:utility.obj
 0001:0007d07e       ___scrt_dllmain_exception_filter 0047e07e f   MSVCRT:utility.obj
 0001:0007d0b1       ___scrt_dllmain_uninitialize_c 0047e0b1 f   MSVCRT:utility.obj
 0001:0007d0d4       ___scrt_dllmain_uninitialize_critical 0047e0d4 f   MSVCRT:utility.obj
 0001:0007d0e1       ___scrt_initialize_crt     0047e0e1 f   MSVCRT:utility.obj
 0001:0007d11a       ___scrt_initialize_onexit_tables 0047e11a f   MSVCRT:utility.obj
 0001:0007d1c4       ___scrt_is_nonwritable_in_current_image 0047e1c4 f   MSVCRT:utility.obj
 0001:0007d24e       ___scrt_release_startup_lock 0047e24e f   MSVCRT:utility.obj
 0001:0007d26b       ___scrt_uninitialize_crt   0047e26b f   MSVCRT:utility.obj
 0001:0007d293       __onexit                   0047e293 f   MSVCRT:utility.obj
 0001:0007d2ce       _at_quick_exit             0047e2ce f   MSVCRT:utility.obj
 0001:0007d2ff       _atexit                    0047e2ff f   MSVCRT:utility.obj
 0001:0007d33b       ??$__crt_fast_decode_pointer@P6GHPAU_RTL_CONDITION_VARIABLE@@PAU_RTL_CRITICAL_SECTION@@K@Z@@YAP6GHPAU_RTL_CONDITION_VARIABLE@@PAU_RTL_CRITICAL_SECTION@@K@ZQ6GH01K@Z@Z 0047e33b f i MSVCRT:thread_safe_statics.obj
 0001:0007d34f       ??$__crt_fast_decode_pointer@P6GXPAU_RTL_CONDITION_VARIABLE@@@Z@@YAP6GXPAU_RTL_CONDITION_VARIABLE@@@ZQ6GX0@Z@Z 0047e34f f i MSVCRT:thread_safe_statics.obj
 0001:0007d363       ??$__crt_fast_encode_pointer@P6GHPAU_RTL_CONDITION_VARIABLE@@PAU_RTL_CRITICAL_SECTION@@K@Z@@YAP6GHPAU_RTL_CONDITION_VARIABLE@@PAU_RTL_CRITICAL_SECTION@@K@ZQ6GH01K@Z@Z 0047e363 f i MSVCRT:thread_safe_statics.obj
 0001:0007d380       ??$__crt_fast_encode_pointer@P6GXPAU_RTL_CONDITION_VARIABLE@@@Z@@YAP6GXPAU_RTL_CONDITION_VARIABLE@@@ZQ6GX0@Z@Z 0047e380 f i MSVCRT:thread_safe_statics.obj
 0001:0007d479       __Init_thread_abort        0047e479 f   MSVCRT:thread_safe_statics.obj
 0001:0007d492       __Init_thread_footer       0047e492 f   MSVCRT:thread_safe_statics.obj
 0001:0007d4d1       __Init_thread_header       0047e4d1 f   MSVCRT:thread_safe_statics.obj
 0001:0007d517       __Init_thread_lock         0047e517 f   MSVCRT:thread_safe_statics.obj
 0001:0007d523       __Init_thread_notify       0047e523 f   MSVCRT:thread_safe_statics.obj
 0001:0007d564       __Init_thread_unlock       0047e564 f   MSVCRT:thread_safe_statics.obj
 0001:0007d570       __Init_thread_wait         0047e570 f   MSVCRT:thread_safe_statics.obj
 0001:0007d5e0       __alldiv                   0047e5e0 f   MSVCRT:lldiv.obj
 0001:0007d690       __allmul                   0047e690 f   MSVCRT:llmul.obj
 0001:0007d6c4       ___raise_securityfailure   0047e6c4 f   MSVCRT:gs_report.obj
 0001:0007d6ec       ___report_gsfailure        0047e6ec f   MSVCRT:gs_report.obj
 0001:0007d7e7       ___report_rangecheckfailure 0047e7e7 f   MSVCRT:gs_report.obj
 0001:0007d7f3       ___report_securityfailure  0047e7f3 f   MSVCRT:gs_report.obj
 0001:0007d8c3       ___report_securityfailureEx 0047e8c3 f   MSVCRT:gs_report.obj
 0001:0007dc09       ?get_app_type@__scrt_winmain_policy@@SA?AW4_crt_app_type@@XZ 0047ec09 f i MSVCRT:exe_winmain.obj
 0001:0007dc2e       _WinMainCRTStartup         0047ec2e f   MSVCRT:exe_winmain.obj
 0001:0007dc40       __ftoui3                   0047ec40 f   MSVCRT:_ftol3_.obj
 0001:0007dc4f       __ftoul3                   0047ec4f f   MSVCRT:_ftol3_.obj
 0001:0007dc5e       __ftol3                    0047ec5e f   MSVCRT:_ftol3_.obj
 0001:0007dc6b       __ftol3_NaN                0047ec6b f   MSVCRT:_ftol3_.obj
 0001:0007dc83       __ftol3_work               0047ec83 f   MSVCRT:_ftol3_.obj
 0001:0007dd09       __ftol3_common             0047ed09 f   MSVCRT:_ftol3_.obj
 0001:0007ddcb       __ftol3_arg_error          0047edcb f   MSVCRT:_ftol3_.obj
 0001:0007dddd       __ftol3_except             0047eddd f   MSVCRT:_ftol3_.obj
 0001:0007de21       __dtoui3                   0047ee21 f   MSVCRT:_ftol3_.obj
 0001:0007de30       __dtoul3                   0047ee30 f   MSVCRT:_ftol3_.obj
 0001:0007de3f       __dtol3                    0047ee3f f   MSVCRT:_ftol3_.obj
 0001:0007de4c       __dtol3_NaN                0047ee4c f   MSVCRT:_ftol3_.obj
 0001:0007de69       __dtol3_work               0047ee69 f   MSVCRT:_ftol3_.obj
 0001:0007df50       __ultod3                   0047ef50 f   MSVCRT:_ftol3_.obj
 0001:0007df90       __ltod3                    0047ef90 f   MSVCRT:_ftol3_.obj
 0001:0007dfc0       __allshr                   0047efc0 f   MSVCRT:llshr.obj
 0001:0007dff0       __ftol2_sse                0047eff0 f   MSVCRT:_ftol2_.obj
 0001:0007dff9       __ftol2_pentium4           0047eff9 f   MSVCRT:_ftol2_.obj
 0001:0007e00c       __ftol2_sse_excpt          0047f00c f   MSVCRT:_ftol2_.obj
 0001:0007e030       __ftol2                    0047f030 f   MSVCRT:_ftol2_.obj
 0001:0007e0b0       __chkstk                   0047f0b0 f   MSVCRT:chkstk.obj
 0001:0007e0b0       __alloca_probe             0047f0b0 f   MSVCRT:chkstk.obj
 0001:0007e0dd       ??0bad_alloc@std@@AAE@QBD@Z 0047f0dd f i MSVCRT:throw_bad_alloc.obj
 0001:0007e0fa       ??0bad_alloc@std@@QAE@ABV01@@Z 0047f0fa f i MSVCRT:throw_bad_alloc.obj
 0001:0007e115       ??0bad_alloc@std@@QAE@XZ   0047f115 f i MSVCRT:throw_bad_alloc.obj
 0001:0007e12d       ??0bad_array_new_length@std@@QAE@ABV01@@Z 0047f12d f i MSVCRT:throw_bad_alloc.obj
 0001:0007e148       ??0bad_array_new_length@std@@QAE@XZ 0047f148 f i MSVCRT:throw_bad_alloc.obj
 0001:0007e160       ??0exception@std@@QAE@QBDH@Z 0047f160 f i MSVCRT:throw_bad_alloc.obj
 0001:0007e17d       ??1bad_alloc@std@@UAE@XZ   0047f17d f i MSVCRT:throw_bad_alloc.obj
 0001:0007e18e       ??1bad_array_new_length@std@@UAE@XZ 0047f18e f i MSVCRT:throw_bad_alloc.obj
 0001:0007e19f       ??_Ebad_alloc@std@@UAEPAXI@Z 0047f19f f i MSVCRT:throw_bad_alloc.obj
 0001:0007e19f       ??_Gbad_alloc@std@@UAEPAXI@Z 0047f19f f i MSVCRT:throw_bad_alloc.obj
 0001:0007e1cc       ??_Gbad_array_new_length@std@@UAEPAXI@Z 0047f1cc f i MSVCRT:throw_bad_alloc.obj
 0001:0007e1cc       ??_Ebad_array_new_length@std@@UAEPAXI@Z 0047f1cc f i MSVCRT:throw_bad_alloc.obj
 0001:0007e1f9       ?__scrt_throw_std_bad_alloc@@YAXXZ 0047f1f9 f   MSVCRT:throw_bad_alloc.obj
 0001:0007e216       ?__scrt_throw_std_bad_array_new_length@@YAXXZ 0047f216 f   MSVCRT:throw_bad_alloc.obj
 0001:0007e233       ___isa_available_init      0047f233 f   MSVCRT:_cpu_disp_.obj
 0001:0007e3d2       __get_startup_argv_mode    0047f3d2 f   MSVCRT:argv_mode.obj
 0001:0007e3d6       ___scrt_is_ucrt_dll_in_use 0047f3d6 f   MSVCRT:ucrt_detection.obj
 0001:0007e3e2       ___scrt_fastfail           0047f3e2 f   MSVCRT:utility_desktop.obj
 0001:0007e4fd       ___scrt_get_show_window_mode 0047f4fd f   MSVCRT:utility_desktop.obj
 0001:0007e530       ___scrt_initialize_winrt   0047f530 f   MSVCRT:utility_desktop.obj
 0001:0007e533       ___scrt_is_managed_app     0047f533 f   MSVCRT:utility_desktop.obj
 0001:0007e577       ___scrt_set_unhandled_exception_filter 0047f577 f   MSVCRT:utility_desktop.obj
 0001:0007e583       ___scrt_unhandled_exception_filter@4 0047f583 f   MSVCRT:utility_desktop.obj
 0001:0007e5c4       __crt_debugger_hook        0047f5c4 f   MSVCRT:utility_desktop.obj
 0001:0007e5cc       @_guard_check_icall@4      0047f5cc f i MSVCRT:checkcfg.obj
 0001:0007e5e0       __SEH_prolog4              0047f5e0 f   MSVCRT:_sehprolg4_.obj
 0001:0007e626       __SEH_epilog4              0047f626 f   MSVCRT:_sehprolg4_.obj
 0001:0007e63b       __except_handler4          0047f63b f   MSVCRT:_chandler4gs_.obj
 0001:0007e65e       ___security_init_cookie    0047f65e f   MSVCRT:gs_support.obj
 0001:0007e6fa       __matherr                  0047f6fa f   MSVCRT:matherr.obj
 0001:0007e6fd       __get_startup_commit_mode  0047f6fd f   MSVCRT:commit_mode.obj
 0001:0007e700       __get_startup_file_mode    0047f700 f   MSVCRT:file_mode.obj
 0001:0007e706       __get_startup_new_mode     0047f706 f   MSVCRT:new_mode.obj
 0001:0007e709       __get_startup_thread_locale_mode 0047f709 f   MSVCRT:thread_locale.obj
 0001:0007e70c       ?__scrt_initialize_type_info@@YAXXZ 0047f70c f   MSVCRT:tncleanup.obj
 0001:0007e718       ?__scrt_uninitialize_type_info@@YAXXZ 0047f718 f   MSVCRT:tncleanup.obj
 0001:0007e724       __should_initialize_environment 0047f724 f   MSVCRT:env_mode.obj
 0001:0007e727       __initialize_default_precision 0047f727 f   MSVCRT:default_precision.obj
 0001:0007e748       __initialize_invalid_parameter_handler 0047f748 f   MSVCRT:invalid_parameter_handler.obj
 0001:0007e749       __initialize_denormal_control 0047f749 f   MSVCRT:denormal_control.obj
 0001:0007e74a       ___scrt_initialize_default_local_stdio_options 0047f74a f   MSVCRT:default_local_stdio_options.obj
 0001:0007e767       ___scrt_is_user_matherr_present 0047f767 f   MSVCRT:matherr_detection.obj
 0001:0007e773       ___scrt_get_dyn_tls_init_callback 0047f773 f   MSVCRT:dyn_tls_init.obj
 0001:0007e779       ___scrt_get_dyn_tls_dtor_callback 0047f779 f   MSVCRT:dyn_tls_dtor.obj
 0001:0007e77f       __RTC_Initialize           0047f77f f   MSVCRT:_initsect_.obj
 0001:0007e7aa       __RTC_Terminate            0047f7aa f   MSVCRT:_initsect_.obj
 0001:0007e7d5       @_guard_check_icall_nop@4  0047f7d5 f i MSVCRT:guard_support.obj
 0001:0007e7d6       __guard_icall_checks_enforced 0047f7d6 f i MSVCRT:guard_support.obj
 0001:0007e7e8       ?_Xbad_alloc@std@@YAXXZ    0047f7e8 f   msvcprt:MSVCP140.dll
 0001:0007e7ee       ?_Xlength_error@std@@YAXPBD@Z 0047f7ee f   msvcprt:MSVCP140.dll
 0001:0007e7f4       ?_Xout_of_range@std@@YAXPBD@Z 0047f7f4 f   msvcprt:MSVCP140.dll
 0001:0007e7fa       __Xtime_get_ticks          0047f7fa f   msvcprt:MSVCP140.dll
 0001:0007e800       ?__ExceptionPtrCreate@@YAXPAX@Z 0047f800 f   msvcprt:MSVCP140.dll
 0001:0007e806       ?__ExceptionPtrDestroy@@YAXPAX@Z 0047f806 f   msvcprt:MSVCP140.dll
 0001:0007e80c       ?__ExceptionPtrCopy@@YAXPAXPBX@Z 0047f80c f   msvcprt:MSVCP140.dll
 0001:0007e812       ?__ExceptionPtrAssign@@YAXPAXPBX@Z 0047f812 f   msvcprt:MSVCP140.dll
 0001:0007e818       ?__ExceptionPtrToBool@@YA_NPBX@Z 0047f818 f   msvcprt:MSVCP140.dll
 0001:0007e81e       ?__ExceptionPtrCurrentException@@YAXPAX@Z 0047f81e f   msvcprt:MSVCP140.dll
 0001:0007e824       ?__ExceptionPtrRethrow@@YAXPBX@Z 0047f824 f   msvcprt:MSVCP140.dll
 0001:0007e82a       ?_Xbad_function_call@std@@YAXXZ 0047f82a f   msvcprt:MSVCP140.dll
 0001:0007e830       ?_Syserror_map@std@@YAPBDH@Z 0047f830 f   msvcprt:MSVCP140.dll
 0001:0007e836       __Mtx_init_in_situ         0047f836 f   msvcprt:MSVCP140.dll
 0001:0007e83c       __Mtx_destroy_in_situ      0047f83c f   msvcprt:MSVCP140.dll
 0001:0007e842       __Mtx_current_owns         0047f842 f   msvcprt:MSVCP140.dll
 0001:0007e848       __Mtx_lock                 0047f848 f   msvcprt:MSVCP140.dll
 0001:0007e84e       __Mtx_unlock               0047f84e f   msvcprt:MSVCP140.dll
 0001:0007e854       __Cnd_init_in_situ         0047f854 f   msvcprt:MSVCP140.dll
 0001:0007e85a       __Cnd_destroy_in_situ      0047f85a f   msvcprt:MSVCP140.dll
 0001:0007e860       __Cnd_wait                 0047f860 f   msvcprt:MSVCP140.dll
 0001:0007e866       __Cnd_timedwait            0047f866 f   msvcprt:MSVCP140.dll
 0001:0007e86c       __Cnd_broadcast            0047f86c f   msvcprt:MSVCP140.dll
 0001:0007e872       __Cnd_register_at_thread_exit 0047f872 f   msvcprt:MSVCP140.dll
 0001:0007e878       __Cnd_unregister_at_thread_exit 0047f878 f   msvcprt:MSVCP140.dll
 0001:0007e87e       ?_Throw_C_error@std@@YAXH@Z 0047f87e f   msvcprt:MSVCP140.dll
 0001:0007e884       ?_Throw_Cpp_error@std@@YAXH@Z 0047f884 f   msvcprt:MSVCP140.dll
 0001:0007e88a       ?_Schedule_chore@details@Concurrency@@YAHPAU_Threadpool_chore@12@@Z 0047f88a f   msvcprt:MSVCP140.dll
 0001:0007e890       ?_Release_chore@details@Concurrency@@YAXPAU_Threadpool_chore@12@@Z 0047f890 f   msvcprt:MSVCP140.dll
 0001:0007e896       ?_ReportUnobservedException@details@Concurrency@@YAXXZ 0047f896 f   msvcprt:MSVCP140.dll
 0001:0007e89c       ?GetCurrentThreadId@platform@details@Concurrency@@YAJXZ 0047f89c f   msvcprt:MSVCP140.dll
 0001:0007e8a2       ?_CallInContext@_ContextCallback@details@Concurrency@@QBEXV?$function@$$A6AXXZ@std@@_N@Z 0047f8a2 f   msvcprt:MSVCP140.dll
 0001:0007e8a8       ?_Reset@_ContextCallback@details@Concurrency@@AAEXXZ 0047f8a8 f   msvcprt:MSVCP140.dll
 0001:0007e8ae       ?_Capture@_ContextCallback@details@Concurrency@@AAEXXZ 0047f8ae f   msvcprt:MSVCP140.dll
 0001:0007e8b4       ?ReportUnhandledError@_ExceptionHolder@details@Concurrency@@AAEXXZ 0047f8b4 f   msvcprt:MSVCP140.dll
 0001:0007e8ba       ??0task_continuation_context@Concurrency@@AAE@XZ 0047f8ba f   msvcprt:MSVCP140.dll
 0001:0007e8c0       ?_LogScheduleTask@_TaskEventLogger@details@Concurrency@@QAEX_N@Z 0047f8c0 f   msvcprt:MSVCP140.dll
 0001:0007e8c6       ?_LogCancelTask@_TaskEventLogger@details@Concurrency@@QAEXXZ 0047f8c6 f   msvcprt:MSVCP140.dll
 0001:0007e8cc       ?_LogTaskCompleted@_TaskEventLogger@details@Concurrency@@QAEXXZ 0047f8cc f   msvcprt:MSVCP140.dll
 0001:0007e8d2       ?_LogTaskExecutionCompleted@_TaskEventLogger@details@Concurrency@@QAEXXZ 0047f8d2 f   msvcprt:MSVCP140.dll
 0001:0007e8d8       ?_LogWorkItemStarted@_TaskEventLogger@details@Concurrency@@QAEXXZ 0047f8d8 f   msvcprt:MSVCP140.dll
 0001:0007e8de       ?_LogWorkItemCompleted@_TaskEventLogger@details@Concurrency@@QAEXXZ 0047f8de f   msvcprt:MSVCP140.dll
 0001:0007e8e4       ?_IsNonBlockingThread@_Task_impl_base@details@Concurrency@@SA_NXZ 0047f8e4 f   msvcprt:MSVCP140.dll
 0001:0007e8ea       ?_Throw_future_error@std@@YAXABVerror_code@1@@Z 0047f8ea f   msvcprt:MSVCP140.dll
 0001:0007e8f0       ?_Rethrow_future_exception@std@@YAXVexception_ptr@1@@Z 0047f8f0 f   msvcprt:MSVCP140.dll
 0001:0007e8f6       ?uncaught_exception@std@@YA_NXZ 0047f8f6 f   msvcprt:MSVCP140.dll
 0001:0007e8fc       ?sputc@?$basic_streambuf@DU?$char_traits@D@std@@@std@@QAEHD@Z 0047f8fc f   msvcprt:MSVCP140.dll
 0001:0007e902       ?sputn@?$basic_streambuf@DU?$char_traits@D@std@@@std@@QAE_JPBD_J@Z 0047f902 f   msvcprt:MSVCP140.dll
 0001:0007e908       ?setstate@?$basic_ios@DU?$char_traits@D@std@@@std@@QAEXH_N@Z 0047f908 f   msvcprt:MSVCP140.dll
 0001:0007e90e       ?_Osfx@?$basic_ostream@DU?$char_traits@D@std@@@std@@QAEXXZ 0047f90e f   msvcprt:MSVCP140.dll
 0001:0007e914       ??6?$basic_ostream@DU?$char_traits@D@std@@@std@@QAEAAV01@N@Z 0047f914 f   msvcprt:MSVCP140.dll
 0001:0007e91a       ?flush@?$basic_ostream@DU?$char_traits@D@std@@@std@@QAEAAV12@XZ 0047f91a f   msvcprt:MSVCP140.dll
 0001:0007e920       ?get@?$basic_istream@DU?$char_traits@D@std@@@std@@QAEHXZ 0047f920 f   msvcprt:MSVCP140.dll
 0001:0007e926       ?peek@?$basic_istream@DU?$char_traits@D@std@@@std@@QAEHXZ 0047f926 f   msvcprt:MSVCP140.dll
 0001:0007e92c       ??0_Lockit@std@@QAE@H@Z    0047f92c f   msvcprt:MSVCP140.dll
 0001:0007e932       ??1_Lockit@std@@QAE@XZ     0047f932 f   msvcprt:MSVCP140.dll
 0001:0007e938       ??0_Fac_node@std@@QAE@PAU01@PAV_Facet_base@1@@Z 0047f938 f i msvcprt:locale0_implib.obj
 0001:0007e94c       ??1_Fac_node@std@@QAE@XZ   0047f94c f i msvcprt:locale0_implib.obj
 0001:0007e9ab       ??1_Fac_tidy_reg_t@std@@QAE@XZ 0047f9ab f i msvcprt:locale0_implib.obj
 0001:0007e9d2       ??_G_Fac_node@std@@QAEPAXI@Z 0047f9d2 f i msvcprt:locale0_implib.obj
 0001:0007e9f4       ?_Facet_Register@std@@YAXPAV_Facet_base@1@@Z 0047f9f4 f   msvcprt:locale0_implib.obj
 0001:0007ea22       ??Bid@locale@std@@QAEIXZ   0047fa22 f   msvcprt:MSVCP140.dll
 0001:0007ea28       ?_Getgloballocale@locale@std@@CAPAV_Locimp@12@XZ 0047fa28 f   msvcprt:MSVCP140.dll
 0001:0007ea2e       ?always_noconv@codecvt_base@std@@QBE_NXZ 0047fa2e f   msvcprt:MSVCP140.dll
 0001:0007ea34       ?in@?$codecvt@DDU_Mbstatet@@@std@@QBEHAAU_Mbstatet@@PBD1AAPBDPAD3AAPAD@Z 0047fa34 f   msvcprt:MSVCP140.dll
 0001:0007ea3a       ?out@?$codecvt@DDU_Mbstatet@@@std@@QBEHAAU_Mbstatet@@PBD1AAPBDPAD3AAPAD@Z 0047fa3a f   msvcprt:MSVCP140.dll
 0001:0007ea40       ?unshift@?$codecvt@DDU_Mbstatet@@@std@@QBEHAAU_Mbstatet@@PAD1AAPAD@Z 0047fa40 f   msvcprt:MSVCP140.dll
 0001:0007ea46       ?_Getcat@?$codecvt@DDU_Mbstatet@@@std@@SAIPAPBVfacet@locale@2@PBV42@@Z 0047fa46 f   msvcprt:MSVCP140.dll
 0001:0007ea4c       ??0?$basic_streambuf@DU?$char_traits@D@std@@@std@@IAE@XZ 0047fa4c f   msvcprt:MSVCP140.dll
 0001:0007ea52       ??1?$basic_streambuf@DU?$char_traits@D@std@@@std@@UAE@XZ 0047fa52 f   msvcprt:MSVCP140.dll
 0001:0007ea58       ?getloc@?$basic_streambuf@DU?$char_traits@D@std@@@std@@QBE?AVlocale@2@XZ 0047fa58 f   msvcprt:MSVCP140.dll
 0001:0007ea5e       ?_Pninc@?$basic_streambuf@DU?$char_traits@D@std@@@std@@IAEPADXZ 0047fa5e f   msvcprt:MSVCP140.dll
 0001:0007ea64       ?_Init@?$basic_streambuf@DU?$char_traits@D@std@@@std@@IAEXXZ 0047fa64 f   msvcprt:MSVCP140.dll
 0001:0007ea6a       ??1?$basic_ios@DU?$char_traits@D@std@@@std@@UAE@XZ 0047fa6a f   msvcprt:MSVCP140.dll
 0001:0007ea70       ?widen@?$basic_ios@DU?$char_traits@D@std@@@std@@QBEDD@Z 0047fa70 f   msvcprt:MSVCP140.dll
 0001:0007ea76       ??0?$basic_ios@DU?$char_traits@D@std@@@std@@IAE@XZ 0047fa76 f   msvcprt:MSVCP140.dll
 0001:0007ea7c       ??0?$basic_ostream@DU?$char_traits@D@std@@@std@@QAE@PAV?$basic_streambuf@DU?$char_traits@D@std@@@1@_N@Z 0047fa7c f   msvcprt:MSVCP140.dll
 0001:0007ea82       ??1?$basic_ostream@DU?$char_traits@D@std@@@std@@UAE@XZ 0047fa82 f   msvcprt:MSVCP140.dll
 0001:0007ea88       ??6?$basic_ostream@DU?$char_traits@D@std@@@std@@QAEAAV01@P6AAAV01@AAV01@@Z@Z 0047fa88 f   msvcprt:MSVCP140.dll
 0001:0007ea8e       ??6?$basic_ostream@DU?$char_traits@D@std@@@std@@QAEAAV01@I@Z 0047fa8e f   msvcprt:MSVCP140.dll
 0001:0007ea94       ??6?$basic_ostream@DU?$char_traits@D@std@@@std@@QAEAAV01@M@Z 0047fa94 f   msvcprt:MSVCP140.dll
 0001:0007ea9a       ?put@?$basic_ostream@DU?$char_traits@D@std@@@std@@QAEAAV12@D@Z 0047fa9a f   msvcprt:MSVCP140.dll
 0001:0007eaa0       ??0?$basic_istream@DU?$char_traits@D@std@@@std@@QAE@PAV?$basic_streambuf@DU?$char_traits@D@std@@@1@_N@Z 0047faa0 f   msvcprt:MSVCP140.dll
 0001:0007eaa6       ??1?$basic_istream@DU?$char_traits@D@std@@@std@@UAE@XZ 0047faa6 f   msvcprt:MSVCP140.dll
 0001:0007eaac       ??5?$basic_istream@DU?$char_traits@D@std@@@std@@QAEAAV01@AAM@Z 0047faac f   msvcprt:MSVCP140.dll
 0001:0007eab2       ?get@?$basic_istream@DU?$char_traits@D@std@@@std@@QAEAAV12@AAD@Z 0047fab2 f   msvcprt:MSVCP140.dll
 0001:0007eab8       ?_Fiopen@std@@YAPAU_iobuf@@PBDHH@Z 0047fab8 f   msvcprt:MSVCP140.dll
 0001:0007eabe       ?_Lock@?$basic_streambuf@DU?$char_traits@D@std@@@std@@UAEXXZ 0047fabe f   msvcprt:MSVCP140.dll
 0001:0007eac4       ?_Unlock@?$basic_streambuf@DU?$char_traits@D@std@@@std@@UAEXXZ 0047fac4 f   msvcprt:MSVCP140.dll
 0001:0007eaca       ?imbue@?$basic_streambuf@DU?$char_traits@D@std@@@std@@MAEXABVlocale@2@@Z 0047faca f   msvcprt:MSVCP140.dll
 0001:0007ead0       ?setbuf@?$basic_streambuf@DU?$char_traits@D@std@@@std@@MAEPAV12@PAD_J@Z 0047fad0 f   msvcprt:MSVCP140.dll
 0001:0007ead6       ?showmanyc@?$basic_streambuf@DU?$char_traits@D@std@@@std@@MAE_JXZ 0047fad6 f   msvcprt:MSVCP140.dll
 0001:0007eadc       ?sync@?$basic_streambuf@DU?$char_traits@D@std@@@std@@MAEHXZ 0047fadc f   msvcprt:MSVCP140.dll
 0001:0007eae2       ?uflow@?$basic_streambuf@DU?$char_traits@D@std@@@std@@MAEHXZ 0047fae2 f   msvcprt:MSVCP140.dll
 0001:0007eae8       ?xsgetn@?$basic_streambuf@DU?$char_traits@D@std@@@std@@MAE_JPAD_J@Z 0047fae8 f   msvcprt:MSVCP140.dll
 0001:0007eaee       ?xsputn@?$basic_streambuf@DU?$char_traits@D@std@@@std@@MAE_JPBD_J@Z 0047faee f   msvcprt:MSVCP140.dll
 0001:0007eaf4       __TrackMouseEvent@4        0047faf4 f   comctl32:COMCTL32.dll
 0001:0007eafa       _strchr                    0047fafa f   vcruntime:VCRUNTIME140.dll
 0001:0007eb00       ___CxxFrameHandler3        0047fb00 f   vcruntime:VCRUNTIME140.dll
 0001:0007eb06       _memmove                   0047fb06 f   vcruntime:VCRUNTIME140.dll
 0001:0007eb0c       __CxxThrowException@8      0047fb0c f   vcruntime:VCRUNTIME140.dll
 0001:0007eb12       _memcpy                    0047fb12 f   vcruntime:VCRUNTIME140.dll
 0001:0007eb18       _memset                    0047fb18 f   vcruntime:VCRUNTIME140.dll
 0001:0007eb1e       __purecall                 0047fb1e f   vcruntime:VCRUNTIME140.dll
 0001:0007eb24       ___std_terminate           0047fb24 f   vcruntime:VCRUNTIME140.dll
 0001:0007eb2a       ___std_exception_copy      0047fb2a f   vcruntime:VCRUNTIME140.dll
 0001:0007eb30       ___std_exception_destroy   0047fb30 f   vcruntime:VCRUNTIME140.dll
 0001:0007eb36       _strrchr                   0047fb36 f   vcruntime:VCRUNTIME140.dll
 0001:0007eb3c       _memcmp                    0047fb3c f   vcruntime:VCRUNTIME140.dll
 0001:0007eb42       _strstr                    0047fb42 f   vcruntime:VCRUNTIME140.dll
 0001:0007eb48       ___vcrt_InitializeCriticalSectionEx 0047fb48 f   vcruntime:VCRUNTIME140.dll
 0001:0007eb4e       __except_handler4_common   0047fb4e f   vcruntime:VCRUNTIME140.dll
 0001:0007eb54       ___std_type_info_destroy_list 0047fb54 f   vcruntime:VCRUNTIME140.dll
 0001:0007eb5a       _ispunct                   0047fb5a f   ucrt:api-ms-win-crt-string-l1-1-0.dll
 0001:0007eb60       _isalnum                   0047fb60 f   ucrt:api-ms-win-crt-string-l1-1-0.dll
 0001:0007eb66       ___acrt_iob_func           0047fb66 f   ucrt:api-ms-win-crt-stdio-l1-1-0.dll
 0001:0007eb6c       ___stdio_common_vfprintf   0047fb6c f   ucrt:api-ms-win-crt-stdio-l1-1-0.dll
 0001:0007eb72       _exit                      0047fb72 f   ucrt:api-ms-win-crt-runtime-l1-1-0.dll
 0001:0007eb78       _atoi                      0047fb78 f   ucrt:api-ms-win-crt-convert-l1-1-0.dll
 0001:0007eb7e       _clock                     0047fb7e f   ucrt:api-ms-win-crt-time-l1-1-0.dll
 0001:0007eb84       __invalid_parameter_noinfo_noreturn 0047fb84 f   ucrt:api-ms-win-crt-runtime-l1-1-0.dll
 0001:0007eb8a       _rand                      0047fb8a f   ucrt:api-ms-win-crt-utility-l1-1-0.dll
 0001:0007eb90       __libm_sse2_pow_precise    0047fb90 f   ucrt:api-ms-win-crt-math-l1-1-0.dll
 0001:0007eb96       __libm_sse2_sqrt_precise   0047fb96 f   ucrt:api-ms-win-crt-math-l1-1-0.dll
 0001:0007eb9c       ___stdio_common_vsprintf   0047fb9c f   ucrt:api-ms-win-crt-stdio-l1-1-0.dll
 0001:0007eba2       _terminate                 0047fba2 f   ucrt:api-ms-win-crt-runtime-l1-1-0.dll
 0001:0007eba8       _fclose                    0047fba8 f   ucrt:api-ms-win-crt-stdio-l1-1-0.dll
 0001:0007ebae       _fopen                     0047fbae f   ucrt:api-ms-win-crt-stdio-l1-1-0.dll
 0001:0007ebb4       _fread                     0047fbb4 f   ucrt:api-ms-win-crt-stdio-l1-1-0.dll
 0001:0007ebba       _fseek                     0047fbba f   ucrt:api-ms-win-crt-stdio-l1-1-0.dll
 0001:0007ebc0       _fwrite                    0047fbc0 f   ucrt:api-ms-win-crt-stdio-l1-1-0.dll
 0001:0007ebc6       _atof                      0047fbc6 f   ucrt:api-ms-win-crt-convert-l1-1-0.dll
 0001:0007ebcc       __invalid_parameter_noinfo 0047fbcc f   ucrt:api-ms-win-crt-runtime-l1-1-0.dll
 0001:0007ebd2       _free                      0047fbd2 f   ucrt:api-ms-win-crt-heap-l1-1-0.dll
 0001:0007ebd8       _malloc                    0047fbd8 f   ucrt:api-ms-win-crt-heap-l1-1-0.dll
 0001:0007ebde       __errno                    0047fbde f   ucrt:api-ms-win-crt-runtime-l1-1-0.dll
 0001:0007ebe4       __get_stream_buffer_pointers 0047fbe4 f   ucrt:api-ms-win-crt-stdio-l1-1-0.dll
 0001:0007ebea       _fflush                    0047fbea f   ucrt:api-ms-win-crt-stdio-l1-1-0.dll
 0001:0007ebf0       _fgetc                     0047fbf0 f   ucrt:api-ms-win-crt-stdio-l1-1-0.dll
 0001:0007ebf6       _fgetpos                   0047fbf6 f   ucrt:api-ms-win-crt-stdio-l1-1-0.dll
 0001:0007ebfc       _fputc                     0047fbfc f   ucrt:api-ms-win-crt-stdio-l1-1-0.dll
 0001:0007ec02       _fsetpos                   0047fc02 f   ucrt:api-ms-win-crt-stdio-l1-1-0.dll
 0001:0007ec08       __fseeki64                 0047fc08 f   ucrt:api-ms-win-crt-stdio-l1-1-0.dll
 0001:0007ec0e       _setvbuf                   0047fc0e f   ucrt:api-ms-win-crt-stdio-l1-1-0.dll
 0001:0007ec14       _ungetc                    0047fc14 f   ucrt:api-ms-win-crt-stdio-l1-1-0.dll
 0001:0007ec1a       __lock_file                0047fc1a f   ucrt:api-ms-win-crt-filesystem-l1-1-0.dll
 0001:0007ec20       __unlock_file              0047fc20 f   ucrt:api-ms-win-crt-filesystem-l1-1-0.dll
 0001:0007ec26       __libm_sse2_cos_precise    0047fc26 f   ucrt:api-ms-win-crt-math-l1-1-0.dll
 0001:0007ec2c       __libm_sse2_sin_precise    0047fc2c f   ucrt:api-ms-win-crt-math-l1-1-0.dll
 0001:0007ec32       __libm_sse2_tan_precise    0047fc32 f   ucrt:api-ms-win-crt-math-l1-1-0.dll
 0001:0007ec38       _isalpha                   0047fc38 f   ucrt:api-ms-win-crt-string-l1-1-0.dll
 0001:0007ec3e       _isupper                   0047fc3e f   ucrt:api-ms-win-crt-string-l1-1-0.dll
 0001:0007ec44       _toupper                   0047fc44 f   ucrt:api-ms-win-crt-string-l1-1-0.dll
 0001:0007ec4a       _tolower                   0047fc4a f   ucrt:api-ms-win-crt-string-l1-1-0.dll
 0001:0007ec50       _wcslen                    0047fc50 f   ucrt:api-ms-win-crt-string-l1-1-0.dll
 0001:0007ec56       _strcmp                    0047fc56 f   ucrt:api-ms-win-crt-string-l1-1-0.dll
 0001:0007ec5c       __strdup                   0047fc5c f   ucrt:api-ms-win-crt-string-l1-1-0.dll
 0001:0007ec62       _strlen                    0047fc62 f   ucrt:api-ms-win-crt-string-l1-1-0.dll
 0001:0007ec68       _realloc                   0047fc68 f   ucrt:api-ms-win-crt-heap-l1-1-0.dll
 0001:0007ec6e       _abs                       0047fc6e f   ucrt:api-ms-win-crt-utility-l1-1-0.dll
 0001:0007ec74       _atol                      0047fc74 f   ucrt:api-ms-win-crt-convert-l1-1-0.dll
 0001:0007ec7a       _raise                     0047fc7a f   ucrt:api-ms-win-crt-runtime-l1-1-0.dll
 0001:0007ec80       _strcat                    0047fc80 f   ucrt:api-ms-win-crt-string-l1-1-0.dll
 0001:0007ec86       _strcpy                    0047fc86 f   ucrt:api-ms-win-crt-string-l1-1-0.dll
 0001:0007ec8c       _isdigit                   0047fc8c f   ucrt:api-ms-win-crt-string-l1-1-0.dll
 0001:0007ec92       _fabs                      0047fc92 f   ucrt:api-ms-win-crt-math-l1-1-0.dll
 0001:0007ec98       _rint                      0047fc98 f   ucrt:api-ms-win-crt-math-l1-1-0.dll
 0001:0007ec9e       _fgets                     0047fc9e f   ucrt:api-ms-win-crt-stdio-l1-1-0.dll
 0001:0007eca4       _wcscpy                    0047fca4 f   ucrt:api-ms-win-crt-string-l1-1-0.dll
 0001:0007ecaa       _strcspn                   0047fcaa f   ucrt:api-ms-win-crt-string-l1-1-0.dll
 0001:0007ecb0       _strncmp                   0047fcb0 f   ucrt:api-ms-win-crt-string-l1-1-0.dll
 0001:0007ecb6       __time64                   0047fcb6 f   ucrt:api-ms-win-crt-time-l1-1-0.dll
 0001:0007ecbc       _cos                       0047fcbc f   ucrt:api-ms-win-crt-math-l1-1-0.dll
 0001:0007ecc2       _sin                       0047fcc2 f   ucrt:api-ms-win-crt-math-l1-1-0.dll
 0001:0007ecc8       _sqrt                      0047fcc8 f   ucrt:api-ms-win-crt-math-l1-1-0.dll
 0001:0007ecce       _acos                      0047fcce f   ucrt:api-ms-win-crt-math-l1-1-0.dll
 0001:0007ecd4       _ceil                      0047fcd4 f   ucrt:api-ms-win-crt-math-l1-1-0.dll
 0001:0007ecda       ___stdio_common_vsscanf    0047fcda f   ucrt:api-ms-win-crt-stdio-l1-1-0.dll
 0001:0007ece0       _isspace                   0047fce0 f   ucrt:api-ms-win-crt-string-l1-1-0.dll
 0001:0007ece6       _getenv                    0047fce6 f   ucrt:api-ms-win-crt-environment-l1-1-0.dll
 0001:0007ecec       __putenv                   0047fcec f   ucrt:api-ms-win-crt-environment-l1-1-0.dll
 0001:0007ecf2       _log                       0047fcf2 f   ucrt:api-ms-win-crt-math-l1-1-0.dll
 0001:0007ecf8       _pow                       0047fcf8 f   ucrt:api-ms-win-crt-math-l1-1-0.dll
 0001:0007ecfe       __waccess                  0047fcfe f   ucrt:api-ms-win-crt-filesystem-l1-1-0.dll
 0001:0007ed04       __wchmod                   0047fd04 f   ucrt:api-ms-win-crt-filesystem-l1-1-0.dll
 0001:0007ed0a       __wunlink                  0047fd0a f   ucrt:api-ms-win-crt-filesystem-l1-1-0.dll
 0001:0007ed10       __wrename                  0047fd10 f   ucrt:api-ms-win-crt-filesystem-l1-1-0.dll
 0001:0007ed16       __wsopen_dispatch          0047fd16 f   ucrt:api-ms-win-crt-stdio-l1-1-0.dll
 0001:0007ed1c       __wexecvp                  0047fd1c f   ucrt:api-ms-win-crt-process-l1-1-0.dll
 0001:0007ed22       __wsystem                  0047fd22 f   ucrt:api-ms-win-crt-runtime-l1-1-0.dll
 0001:0007ed28       __wgetcwd                  0047fd28 f   ucrt:api-ms-win-crt-environment-l1-1-0.dll
 0001:0007ed2e       __wmkdir                   0047fd2e f   ucrt:api-ms-win-crt-filesystem-l1-1-0.dll
 0001:0007ed34       __wrmdir                   0047fd34 f   ucrt:api-ms-win-crt-filesystem-l1-1-0.dll
 0001:0007ed3a       __wfopen                   0047fd3a f   ucrt:api-ms-win-crt-stdio-l1-1-0.dll
 0001:0007ed40       __wgetenv                  0047fd40 f   ucrt:api-ms-win-crt-environment-l1-1-0.dll
 0001:0007ed46       _wcstombs                  0047fd46 f   ucrt:api-ms-win-crt-convert-l1-1-0.dll
 0001:0007ed4c       __wstat64i32               0047fd4c f   ucrt:api-ms-win-crt-filesystem-l1-1-0.dll
 0001:0007ed52       _strncpy                   0047fd52 f   ucrt:api-ms-win-crt-string-l1-1-0.dll
 0001:0007ed58       _strtol                    0047fd58 f   ucrt:api-ms-win-crt-convert-l1-1-0.dll
 0001:0007ed5e       _isxdigit                  0047fd5e f   ucrt:api-ms-win-crt-string-l1-1-0.dll
 0001:0007ed64       _localeconv                0047fd64 f   ucrt:api-ms-win-crt-locale-l1-1-0.dll
 0001:0007ed6a       __stricmp                  0047fd6a f   ucrt:api-ms-win-crt-string-l1-1-0.dll
 0001:0007ed70       _strerror                  0047fd70 f   ucrt:api-ms-win-crt-runtime-l1-1-0.dll
 0001:0007ed76       __strnicmp                 0047fd76 f   ucrt:api-ms-win-crt-string-l1-1-0.dll
 0001:0007ed7c       _isprint                   0047fd7c f   ucrt:api-ms-win-crt-string-l1-1-0.dll
 0001:0007ed82       __mkdir                    0047fd82 f   ucrt:api-ms-win-crt-filesystem-l1-1-0.dll
 0001:0007ed88       __access                   0047fd88 f   ucrt:api-ms-win-crt-filesystem-l1-1-0.dll
 0001:0007ed8e       _calloc                    0047fd8e f   ucrt:api-ms-win-crt-heap-l1-1-0.dll
 0001:0007ed94       _bsearch                   0047fd94 f   ucrt:api-ms-win-crt-utility-l1-1-0.dll
 0001:0007ed9a       _qsort                     0047fd9a f   ucrt:api-ms-win-crt-utility-l1-1-0.dll
 0001:0007eda0       _islower                   0047fda0 f   ucrt:api-ms-win-crt-string-l1-1-0.dll
 0001:0007eda6       __callnewh                 0047fda6 f   ucrt:api-ms-win-crt-heap-l1-1-0.dll
 0001:0007edac       __seh_filter_dll           0047fdac f   ucrt:api-ms-win-crt-runtime-l1-1-0.dll
 0001:0007edb2       __configure_narrow_argv    0047fdb2 f   ucrt:api-ms-win-crt-runtime-l1-1-0.dll
 0001:0007edb8       __initialize_narrow_environment 0047fdb8 f   ucrt:api-ms-win-crt-runtime-l1-1-0.dll
 0001:0007edbe       __initialize_onexit_table  0047fdbe f   ucrt:api-ms-win-crt-runtime-l1-1-0.dll
 0001:0007edc4       __register_onexit_function 0047fdc4 f   ucrt:api-ms-win-crt-runtime-l1-1-0.dll
 0001:0007edca       __execute_onexit_table     0047fdca f   ucrt:api-ms-win-crt-runtime-l1-1-0.dll
 0001:0007edd0       __crt_atexit               0047fdd0 f   ucrt:api-ms-win-crt-runtime-l1-1-0.dll
 0001:0007edd6       __crt_at_quick_exit        0047fdd6 f   ucrt:api-ms-win-crt-runtime-l1-1-0.dll
 0001:0007eddc       __cexit                    0047fddc f   ucrt:api-ms-win-crt-runtime-l1-1-0.dll
 0001:0007ede2       __seh_filter_exe           0047fde2 f   ucrt:api-ms-win-crt-runtime-l1-1-0.dll
 0001:0007ede8       __set_app_type             0047fde8 f   ucrt:api-ms-win-crt-runtime-l1-1-0.dll
 0001:0007edee       ___setusermatherr          0047fdee f   ucrt:api-ms-win-crt-math-l1-1-0.dll
 0001:0007edf4       __get_narrow_winmain_command_line 0047fdf4 f   ucrt:api-ms-win-crt-runtime-l1-1-0.dll
 0001:0007edfa       __initterm                 0047fdfa f   ucrt:api-ms-win-crt-runtime-l1-1-0.dll
 0001:0007ee00       __initterm_e               0047fe00 f   ucrt:api-ms-win-crt-runtime-l1-1-0.dll
 0001:0007ee06       __exit                     0047fe06 f   ucrt:api-ms-win-crt-runtime-l1-1-0.dll
 0001:0007ee0c       __set_fmode                0047fe0c f   ucrt:api-ms-win-crt-stdio-l1-1-0.dll
 0001:0007ee12       __c_exit                   0047fe12 f   ucrt:api-ms-win-crt-runtime-l1-1-0.dll
 0001:0007ee18       __register_thread_local_exe_atexit_callback 0047fe18 f   ucrt:api-ms-win-crt-runtime-l1-1-0.dll
 0001:0007ee1e       __configthreadlocale       0047fe1e f   ucrt:api-ms-win-crt-locale-l1-1-0.dll
 0001:0007ee24       __set_new_mode             0047fe24 f   ucrt:api-ms-win-crt-heap-l1-1-0.dll
 0001:0007ee2a       ___p__commode              0047fe2a f   ucrt:api-ms-win-crt-stdio-l1-1-0.dll
 0001:0007ee30       __except1                  0047fe30 f   ucrt:api-ms-win-crt-math-l1-1-0.dll
 0001:0007ee36       __controlfp_s              0047fe36 f   ucrt:api-ms-win-crt-runtime-l1-1-0.dll
 0001:0007ee40       _WinMain@16                0047fe40 f   fltk:fl_call_main.obj
 0001:0007f08c       _CloseHandle@4             0048008c f   kernel32:KERNEL32.dll
 0001:0007f092       _DeleteCriticalSection@4   00480092 f   kernel32:KERNEL32.dll
 0001:0007f098       _SetEvent@4                00480098 f   kernel32:KERNEL32.dll
 0001:0007f09e       _ResetEvent@4              0048009e f   kernel32:KERNEL32.dll
 0001:0007f0a4       _WaitForSingleObjectEx@12  004800a4 f   kernel32:KERNEL32.dll
 0001:0007f0aa       _CreateEventW@16           004800aa f   kernel32:KERNEL32.dll
 0001:0007f0b0       _GetModuleHandleW@4        004800b0 f   kernel32:KERNEL32.dll
 0001:0007f0b6       _UnhandledExceptionFilter@4 004800b6 f   kernel32:KERNEL32.dll
 0001:0007f0bc       _SetUnhandledExceptionFilter@4 004800bc f   kernel32:KERNEL32.dll
 0001:0007f0c2       _GetCurrentProcess@0       004800c2 f   kernel32:KERNEL32.dll
 0001:0007f0c8       _TerminateProcess@8        004800c8 f   kernel32:KERNEL32.dll
 0001:0007f0ce       _IsProcessorFeaturePresent@4 004800ce f   kernel32:KERNEL32.dll
 0001:0007f0d4       _IsDebuggerPresent@0       004800d4 f   kernel32:KERNEL32.dll
 0001:0007f0da       _GetStartupInfoW@4         004800da f   kernel32:KERNEL32.dll
 0001:0007f0e0       _QueryPerformanceCounter@4 004800e0 f   kernel32:KERNEL32.dll
 0001:0007f0e6       _GetCurrentProcessId@0     004800e6 f   kernel32:KERNEL32.dll
 0001:0007f0ec       _GetSystemTimeAsFileTime@4 004800ec f   kernel32:KERNEL32.dll
 0001:0007f0f2       _InitializeSListHead@4     004800f2 f   kernel32:KERNEL32.dll
 0001:0007f0f8       _mbstowcs                  004800f8 f   ucrt:api-ms-win-crt-convert-l1-1-0.dll
 0001:0007f0fe       ___p___argc                004800fe f   ucrt:api-ms-win-crt-runtime-l1-1-0.dll
 0001:0007f104       ___p___argv                00480104 f   ucrt:api-ms-win-crt-runtime-l1-1-0.dll
 0001:0007f10a       ___p___wargv               0048010a f   ucrt:api-ms-win-crt-runtime-l1-1-0.dll
 0001:0007f110       ___scrt_stub_for_acrt_initialize 00480110 f   MSVCRT:ucrt_stubs.obj
 0001:0007f110       ___vcrt_initialize         00480110 f   MSVCRT:ucrt_stubs.obj
 0001:0007f110       ___acrt_initialize         00480110 f   MSVCRT:ucrt_stubs.obj
 0001:0007f113       ___vcrt_thread_attach      00480113 f   MSVCRT:ucrt_stubs.obj
 0001:0007f113       ___scrt_stub_for_acrt_thread_attach 00480113 f   MSVCRT:ucrt_stubs.obj
 0001:0007f113       ___acrt_thread_attach      00480113 f   MSVCRT:ucrt_stubs.obj
 0001:0007f116       ___scrt_stub_for_acrt_thread_detach 00480116 f   MSVCRT:ucrt_stubs.obj
 0001:0007f116       ___acrt_thread_detach      00480116 f   MSVCRT:ucrt_stubs.obj
 0001:0007f116       ___vcrt_thread_detach      00480116 f   MSVCRT:ucrt_stubs.obj
 0001:0007f119       ___vcrt_uninitialize       00480119 f   MSVCRT:ucrt_stubs.obj
 0001:0007f119       ___scrt_stub_for_acrt_uninitialize 00480119 f   MSVCRT:ucrt_stubs.obj
 0001:0007f119       ___acrt_uninitialize       00480119 f   MSVCRT:ucrt_stubs.obj
 0001:0007f11c       ___acrt_uninitialize_critical 0048011c f   MSVCRT:ucrt_stubs.obj
 0001:0007f11c       ___vcrt_uninitialize_critical 0048011c f   MSVCRT:ucrt_stubs.obj
 0001:0007f11c       ___scrt_stub_for_acrt_uninitialize_critical 0048011c f   MSVCRT:ucrt_stubs.obj
 0001:0007f11f       ___scrt_stub_for_is_c_termination_complete 0048011f f   MSVCRT:ucrt_stubs.obj
 0001:0007f11f       __is_c_termination_complete 0048011f f   MSVCRT:ucrt_stubs.obj
 0001:00082a30       ??__F_S_scheduler@?1??_GetStaticAmbientSchedulerRef@details@Concurrency@@YAAAV?$shared_ptr@Uscheduler_interface@Concurrency@@@std@@XZ@YAXXZ 00483a30 f i TraceUI.obj
 0001:00082a70       ??__F_Static@?1???$_Immortalize@V_Future_error_category@std@@@std@@YAAAV_Future_error_category@0@XZ@YAXXZ 00483a70 f i TraceUI.obj
 0001:00082a80       ??__F_Static@?1???$_Immortalize@V_Generic_error_category@std@@@std@@YAAAV_Generic_error_category@0@XZ@YAXXZ 00483a80 f i TraceUI.obj
 0002:00000000       __imp__RegOpenKeyW@12      00484000     advapi32:ADVAPI32.dll
 0002:00000004       __imp__RegCloseKey@4       00484004     advapi32:ADVAPI32.dll
 0002:00000008       __imp__RegQueryValueExW@24 00484008     advapi32:ADVAPI32.dll
 0002:0000000c       \177ADVAPI32_NULL_THUNK_DATA 0048400c     advapi32:ADVAPI32.dll
 0002:00000010       __imp___TrackMouseEvent@4  00484010     comctl32:COMCTL32.dll
 0002:00000014       \177COMCTL32_NULL_THUNK_DATA 00484014     comctl32:COMCTL32.dll
 0002:00000018       __imp__ExtCreateRegion@12  00484018     gdi32:GDI32.dll
 0002:0000001c       __imp__GetDIBits@28        0048401c     gdi32:GDI32.dll
 0002:00000020       __imp__StretchDIBits@52    00484020     gdi32:GDI32.dll
 0002:00000024       __imp__TextOutW@20         00484024     gdi32:GDI32.dll
 0002:00000028       __imp__GetTextMetricsA@8   00484028     gdi32:GDI32.dll
 0002:0000002c       __imp__SetTextColor@8      0048402c     gdi32:GDI32.dll
 0002:00000030       __imp__GetCharacterPlacementW@24 00484030     gdi32:GDI32.dll
 0002:00000034       __imp__GetTextExtentPoint32W@16 00484034     gdi32:GDI32.dll
 0002:00000038       __imp__GetGlyphOutlineW@28 00484038     gdi32:GDI32.dll
 0002:0000003c       __imp__CreateFontA@56      0048403c     gdi32:GDI32.dll
 0002:00000040       __imp__Polyline@12         00484040     gdi32:GDI32.dll
 0002:00000044       __imp__PolyPolygon@16      00484044     gdi32:GDI32.dll
 0002:00000048       __imp__Pie@36              00484048     gdi32:GDI32.dll
 0002:0000004c       __imp__Arc@36              0048404c     gdi32:GDI32.dll
 0002:00000050       __imp__ExtCreatePen@20     00484050     gdi32:GDI32.dll
 0002:00000054       __imp__Polygon@12          00484054     gdi32:GDI32.dll
 0002:00000058       __imp__DPtoLP@12           00484058     gdi32:GDI32.dll
 0002:0000005c       __imp__MoveToEx@16         0048405c     gdi32:GDI32.dll
 0002:00000060       __imp__SelectClipRgn@8     00484060     gdi32:GDI32.dll
 0002:00000064       __imp__RectInRegion@8      00484064     gdi32:GDI32.dll
 0002:00000068       __imp__LineTo@12           00484068     gdi32:GDI32.dll
 0002:0000006c       __imp__GetRgnBox@8         0048406c     gdi32:GDI32.dll
 0002:00000070       __imp__EqualRgn@8          00484070     gdi32:GDI32.dll
 0002:00000074       __imp__SetPixel@16         00484074     gdi32:GDI32.dll
 0002:00000078       __imp__SelectPalette@12    00484078     gdi32:GDI32.dll
 0002:0000007c       __imp__RealizePalette@4    0048407c     gdi32:GDI32.dll
 0002:00000080       __imp__DescribePixelFormat@16 00484080     gdi32:GDI32.dll
 0002:00000084       __imp__CreateSolidBrush@4  00484084     gdi32:GDI32.dll
 0002:00000088       __imp__CreatePen@12        00484088     gdi32:GDI32.dll
 0002:0000008c       __imp__CreatePalette@4     0048408c     gdi32:GDI32.dll
 0002:00000090       __imp__SelectObject@8      00484090     gdi32:GDI32.dll
 0002:00000094       __imp__CreateCompatibleDC@4 00484094     gdi32:GDI32.dll
 0002:00000098       __imp__BitBlt@36           00484098     gdi32:GDI32.dll
 0002:0000009c       __imp__CreateDCA@16        0048409c     gdi32:GDI32.dll
 0002:000000a0       __imp__GdiFlush@0          004840a0     gdi32:GDI32.dll
 0002:000000a4       __imp__LPtoDP@12           004840a4     gdi32:GDI32.dll
 0002:000000a8       __imp__CreatePolygonRgn@12 004840a8     gdi32:GDI32.dll
 0002:000000ac       __imp__CreateDIBSection@24 004840ac     gdi32:GDI32.dll
 0002:000000b0       __imp__PlayEnhMetaFile@12  004840b0     gdi32:GDI32.dll
 0002:000000b4       __imp__GetEnhMetaFileHeader@12 004840b4     gdi32:GDI32.dll
 0002:000000b8       __imp__UpdateColors@4      004840b8     gdi32:GDI32.dll
 0002:000000bc       __imp__SetTextAlign@8      004840bc     gdi32:GDI32.dll
 0002:000000c0       __imp__SetDIBitsToDevice@48 004840c0     gdi32:GDI32.dll
 0002:000000c4       __imp__SetBkMode@8         004840c4     gdi32:GDI32.dll
 0002:000000c8       __imp__SaveDC@4            004840c8     gdi32:GDI32.dll
 0002:000000cc       __imp__RestoreDC@8         004840cc     gdi32:GDI32.dll
 0002:000000d0       __imp__DeleteObject@4      004840d0     gdi32:GDI32.dll
 0002:000000d4       __imp__DeleteDC@4          004840d4     gdi32:GDI32.dll
 0002:000000d8       __imp__CreateRectRgn@16    004840d8     gdi32:GDI32.dll
 0002:000000dc       __imp__CreateCompatibleBitmap@12 004840dc     gdi32:GDI32.dll
 0002:000000e0       __imp__CreateBitmap@20     004840e0     gdi32:GDI32.dll
 0002:000000e4       __imp__CombineRgn@16       004840e4     gdi32:GDI32.dll
 0002:000000e8       __imp__GetDeviceCaps@8     004840e8     gdi32:GDI32.dll
 0002:000000ec       __imp__SetPixelFormat@12   004840ec     gdi32:GDI32.dll
 0002:000000f0       __imp__GetStockObject@4    004840f0     gdi32:GDI32.dll
 0002:000000f4       \177GDI32_NULL_THUNK_DATA  004840f4     gdi32:GDI32.dll
 0002:000000f8       __imp__GetStartupInfoW@4   004840f8     kernel32:KERNEL32.dll
 0002:000000fc       __imp__IsDebuggerPresent@0 004840fc     kernel32:KERNEL32.dll
 0002:00000100       __imp__IsProcessorFeaturePresent@4 00484100     kernel32:KERNEL32.dll
 0002:00000104       __imp__TerminateProcess@8  00484104     kernel32:KERNEL32.dll
 0002:00000108       __imp__GetCurrentProcess@0 00484108     kernel32:KERNEL32.dll
 0002:0000010c       __imp__SetUnhandledExceptionFilter@4 0048410c     kernel32:KERNEL32.dll
 0002:00000110       __imp__UnhandledExceptionFilter@4 00484110     kernel32:KERNEL32.dll
 0002:00000114       __imp__GetModuleHandleW@4  00484114     kernel32:KERNEL32.dll
 0002:00000118       __imp__CreateEventW@16     00484118     kernel32:KERNEL32.dll
 0002:0000011c       __imp__WaitForSingleObjectEx@12 0048411c     kernel32:KERNEL32.dll
 0002:00000120       __imp__ResetEvent@4        00484120     kernel32:KERNEL32.dll
 0002:00000124       __imp__SetEvent@4          00484124     kernel32:KERNEL32.dll
 0002:00000128       __imp__DeleteCriticalSection@4 00484128     kernel32:KERNEL32.dll
 0002:0000012c       __imp__CloseHandle@4       0048412c     kernel32:KERNEL32.dll
 0002:00000130       __imp__QueryPerformanceCounter@4 00484130     kernel32:KERNEL32.dll
 0002:00000134       __imp__GetCurrentProcessId@0 00484134     kernel32:KERNEL32.dll
 0002:00000138       __imp__GetProcAddress@8    00484138     kernel32:KERNEL32.dll
 0002:0000013c       __imp__GlobalAlloc@8       0048413c     kernel32:KERNEL32.dll
 0002:00000140       __imp__GlobalLock@4        00484140     kernel32:KERNEL32.dll
 0002:00000144       __imp__GlobalUnlock@4      00484144     kernel32:KERNEL32.dll
 0002:00000148       __imp__LoadLibraryA@4      00484148     kernel32:KERNEL32.dll
 0002:0000014c       __imp__GetLocaleInfoA@16   0048414c     kernel32:KERNEL32.dll
 0002:00000150       __imp__GetLastError@0      00484150     kernel32:KERNEL32.dll
 0002:00000154       __imp__MultiByteToWideChar@24 00484154     kernel32:KERNEL32.dll
 0002:00000158       __imp__WideCharToMultiByte@32 00484158     kernel32:KERNEL32.dll
 0002:0000015c       __imp__GetACP@0            0048415c     kernel32:KERNEL32.dll
 0002:00000160       __imp__InitializeCriticalSection@4 00484160     kernel32:KERNEL32.dll
 0002:00000164       __imp__EnterCriticalSection@4 00484164     kernel32:KERNEL32.dll
 0002:00000168       __imp__LeaveCriticalSection@4 00484168     kernel32:KERNEL32.dll
 0002:0000016c       __imp__GetCurrentThreadId@0 0048416c     kernel32:KERNEL32.dll
 0002:00000170       __imp__GetComputerNameA@8  00484170     kernel32:KERNEL32.dll
 0002:00000174       __imp__GetLogicalDrives@0  00484174     kernel32:KERNEL32.dll
 0002:00000178       __imp__FindClose@4         00484178     kernel32:KERNEL32.dll
 0002:0000017c       __imp__GetSystemTimeAsFileTime@4 0048417c     kernel32:KERNEL32.dll
 0002:00000180       __imp__FindFirstFileW@8    00484180     kernel32:KERNEL32.dll
 0002:00000184       __imp__FindNextFileW@8     00484184     kernel32:KERNEL32.dll
 0002:00000188       __imp__GetFileAttributesA@4 00484188     kernel32:KERNEL32.dll
 0002:0000018c       __imp__InitializeSListHead@4 0048418c     kernel32:KERNEL32.dll
 0002:00000190       __imp__GetModuleHandleA@4  00484190     kernel32:KERNEL32.dll
 0002:00000194       \177KERNEL32_NULL_THUNK_DATA 00484194     kernel32:KERNEL32.dll
 0002:00000198       __imp_??0?$basic_ostream@DU?$char_traits@D@std@@@std@@QAE@PAV?$basic_streambuf@DU?$char_traits@D@std@@@1@_N@Z 00484198     msvcprt:MSVCP140.dll
 0002:0000019c       __imp_??0?$basic_ios@DU?$char_traits@D@std@@@std@@IAE@XZ 0048419c     msvcprt:MSVCP140.dll
 0002:000001a0       __imp_?widen@?$basic_ios@DU?$char_traits@D@std@@@std@@QBEDD@Z 004841a0     msvcprt:MSVCP140.dll
 0002:000001a4       __imp_??1?$basic_ios@DU?$char_traits@D@std@@@std@@UAE@XZ 004841a4     msvcprt:MSVCP140.dll
 0002:000001a8       __imp_?_Init@?$basic_streambuf@DU?$char_traits@D@std@@@std@@IAEXXZ 004841a8     msvcprt:MSVCP140.dll
 0002:000001ac       __imp_?_Pninc@?$basic_streambuf@DU?$char_traits@D@std@@@std@@IAEPADXZ 004841ac     msvcprt:MSVCP140.dll
 0002:000001b0       __imp_??1?$basic_ostream@DU?$char_traits@D@std@@@std@@UAE@XZ 004841b0     msvcprt:MSVCP140.dll
 0002:000001b4       __imp_??1?$basic_streambuf@DU?$char_traits@D@std@@@std@@UAE@XZ 004841b4     msvcprt:MSVCP140.dll
 0002:000001b8       __imp_??0?$basic_streambuf@DU?$char_traits@D@std@@@std@@IAE@XZ 004841b8     msvcprt:MSVCP140.dll
 0002:000001bc       __imp_?_Getcat@?$codecvt@DDU_Mbstatet@@@std@@SAIPAPBVfacet@locale@2@PBV42@@Z 004841bc     msvcprt:MSVCP140.dll
 0002:000001c0       __imp_?unshift@?$codecvt@DDU_Mbstatet@@@std@@QBEHAAU_Mbstatet@@PAD1AAPAD@Z 004841c0     msvcprt:MSVCP140.dll
 0002:000001c4       __imp_?out@?$codecvt@DDU_Mbstatet@@@std@@QBEHAAU_Mbstatet@@PBD1AAPBDPAD3AAPAD@Z 004841c4     msvcprt:MSVCP140.dll
 0002:000001c8       __imp_?in@?$codecvt@DDU_Mbstatet@@@std@@QBEHAAU_Mbstatet@@PBD1AAPBDPAD3AAPAD@Z 004841c8     msvcprt:MSVCP140.dll
 0002:000001cc       __imp_?always_noconv@codecvt_base@std@@QBE_NXZ 004841cc     msvcprt:MSVCP140.dll
 0002:000001d0       __imp_?_Getgloballocale@locale@std@@CAPAV_Locimp@12@XZ 004841d0     msvcprt:MSVCP140.dll
 0002:000001d4       __imp_??Bid@locale@std@@QAEIXZ 004841d4     msvcprt:MSVCP140.dll
 0002:000001d8       __imp_??1_Lockit@std@@QAE@XZ 004841d8     msvcprt:MSVCP140.dll
 0002:000001dc       __imp_??0_Lockit@std@@QAE@H@Z 004841dc     msvcprt:MSVCP140.dll
 0002:000001e0       __imp_?peek@?$basic_istream@DU?$char_traits@D@std@@@std@@QAEHXZ 004841e0     msvcprt:MSVCP140.dll
 0002:000001e4       __imp_?get@?$basic_istream@DU?$char_traits@D@std@@@std@@QAEHXZ 004841e4     msvcprt:MSVCP140.dll
 0002:000001e8       __imp_?flush@?$basic_ostream@DU?$char_traits@D@std@@@std@@QAEAAV12@XZ 004841e8     msvcprt:MSVCP140.dll
 0002:000001ec       __imp_??6?$basic_ostream@DU?$char_traits@D@std@@@std@@QAEAAV01@N@Z 004841ec     msvcprt:MSVCP140.dll
 0002:000001f0       __imp_?_Osfx@?$basic_ostream@DU?$char_traits@D@std@@@std@@QAEXXZ 004841f0     msvcprt:MSVCP140.dll
 0002:000001f4       __imp_?setstate@?$basic_ios@DU?$char_traits@D@std@@@std@@QAEXH_N@Z 004841f4     msvcprt:MSVCP140.dll
 0002:000001f8       __imp_?sputn@?$basic_streambuf@DU?$char_traits@D@std@@@std@@QAE_JPBD_J@Z 004841f8     msvcprt:MSVCP140.dll
 0002:000001fc       __imp_?sputc@?$basic_streambuf@DU?$char_traits@D@std@@@std@@QAEHD@Z 004841fc     msvcprt:MSVCP140.dll
 0002:00000200       __imp_?uncaught_exception@std@@YA_NXZ 00484200     msvcprt:MSVCP140.dll
 0002:00000204       __imp_?_Rethrow_future_exception@std@@YAXVexception_ptr@1@@Z 00484204     msvcprt:MSVCP140.dll
 0002:00000208       __imp_?_Throw_future_error@std@@YAXABVerror_code@1@@Z 00484208     msvcprt:MSVCP140.dll
 0002:0000020c       __imp_?_IsNonBlockingThread@_Task_impl_base@details@Concurrency@@SA_NXZ 0048420c     msvcprt:MSVCP140.dll
 0002:00000210       __imp_??6?$basic_ostream@DU?$char_traits@D@std@@@std@@QAEAAV01@P6AAAV01@AAV01@@Z@Z 00484210     msvcprt:MSVCP140.dll
 0002:00000214       __imp_??6?$basic_ostream@DU?$char_traits@D@std@@@std@@QAEAAV01@I@Z 00484214     msvcprt:MSVCP140.dll
 0002:00000218       __imp_??6?$basic_ostream@DU?$char_traits@D@std@@@std@@QAEAAV01@M@Z 00484218     msvcprt:MSVCP140.dll
 0002:0000021c       __imp_?put@?$basic_ostream@DU?$char_traits@D@std@@@std@@QAEAAV12@D@Z 0048421c     msvcprt:MSVCP140.dll
 0002:00000220       __imp_??0?$basic_istream@DU?$char_traits@D@std@@@std@@QAE@PAV?$basic_streambuf@DU?$char_traits@D@std@@@1@_N@Z 00484220     msvcprt:MSVCP140.dll
 0002:00000224       __imp_??5?$basic_istream@DU?$char_traits@D@std@@@std@@QAEAAV01@AAM@Z 00484224     msvcprt:MSVCP140.dll
 0002:00000228       __imp_?get@?$basic_istream@DU?$char_traits@D@std@@@std@@QAEAAV12@AAD@Z 00484228     msvcprt:MSVCP140.dll
 0002:0000022c       __imp_?_Fiopen@std@@YAPAU_iobuf@@PBDHH@Z 0048422c     msvcprt:MSVCP140.dll
 0002:00000230       __imp_?_Lock@?$basic_streambuf@DU?$char_traits@D@std@@@std@@UAEXXZ 00484230     msvcprt:MSVCP140.dll
 0002:00000234       __imp_?_Unlock@?$basic_streambuf@DU?$char_traits@D@std@@@std@@UAEXXZ 00484234     msvcprt:MSVCP140.dll
 0002:00000238       __imp_?imbue@?$basic_streambuf@DU?$char_traits@D@std@@@std@@MAEXABVlocale@2@@Z 00484238     msvcprt:MSVCP140.dll
 0002:0000023c       __imp_?setbuf@?$basic_streambuf@DU?$char_traits@D@std@@@std@@MAEPAV12@PAD_J@Z 0048423c     msvcprt:MSVCP140.dll
 0002:00000240       __imp_?showmanyc@?$basic_streambuf@DU?$char_traits@D@std@@@std@@MAE_JXZ 00484240     msvcprt:MSVCP140.dll
 0002:00000244       __imp_?sync@?$basic_streambuf@DU?$char_traits@D@std@@@std@@MAEHXZ 00484244     msvcprt:MSVCP140.dll
 0002:00000248       __imp_?uflow@?$basic_streambuf@DU?$char_traits@D@std@@@std@@MAEHXZ 00484248     msvcprt:MSVCP140.dll
 0002:0000024c       __imp_?xsgetn@?$basic_streambuf@DU?$char_traits@D@std@@@std@@MAE_JPAD_J@Z 0048424c     msvcprt:MSVCP140.dll
 0002:00000250       __imp_?xsputn@?$basic_streambuf@DU?$char_traits@D@std@@@std@@MAE_JPBD_J@Z 00484250     msvcprt:MSVCP140.dll
 0002:00000254       __imp_?_BADOFF@std@@3_JB   00484254     msvcprt:MSVCP140.dll
 0002:00000258       __imp_?id@?$codecvt@DDU_Mbstatet@@@std@@2V0locale@2@A 00484258     msvcprt:MSVCP140.dll
 0002:0000025c       __imp_?cout@std@@3V?$basic_ostream@DU?$char_traits@D@std@@@1@A 0048425c     msvcprt:MSVCP140.dll
 0002:00000260       __imp_?cerr@std@@3V?$basic_ostream@DU?$char_traits@D@std@@@1@A 00484260     msvcprt:MSVCP140.dll
 0002:00000264       __imp_?getloc@?$basic_streambuf@DU?$char_traits@D@std@@@std@@QBE?AVlocale@2@XZ 00484264     msvcprt:MSVCP140.dll
 0002:00000268       __imp_??0task_continuation_context@Concurrency@@AAE@XZ 00484268     msvcprt:MSVCP140.dll
 0002:0000026c       __imp_?ReportUnhandledError@_ExceptionHolder@details@Concurrency@@AAEXXZ 0048426c     msvcprt:MSVCP140.dll
 0002:00000270       __imp_?_Xbad_alloc@std@@YAXXZ 00484270     msvcprt:MSVCP140.dll
 0002:00000274       __imp_?_Xlength_error@std@@YAXPBD@Z 00484274     msvcprt:MSVCP140.dll
 0002:00000278       __imp_?_Xout_of_range@std@@YAXPBD@Z 00484278     msvcprt:MSVCP140.dll
 0002:0000027c       __imp___Xtime_get_ticks    0048427c     msvcprt:MSVCP140.dll
 0002:00000280       __imp_?__ExceptionPtrCreate@@YAXPAX@Z 00484280     msvcprt:MSVCP140.dll
 0002:00000284       __imp_?__ExceptionPtrDestroy@@YAXPAX@Z 00484284     msvcprt:MSVCP140.dll
 0002:00000288       __imp_?__ExceptionPtrCopy@@YAXPAXPBX@Z 00484288     msvcprt:MSVCP140.dll
 0002:0000028c       __imp_?__ExceptionPtrAssign@@YAXPAXPBX@Z 0048428c     msvcprt:MSVCP140.dll
 0002:00000290       __imp_?__ExceptionPtrToBool@@YA_NPBX@Z 00484290     msvcprt:MSVCP140.dll
 0002:00000294       __imp_?__ExceptionPtrCurrentException@@YAXPAX@Z 00484294     msvcprt:MSVCP140.dll
 0002:00000298       __imp_?__ExceptionPtrRethrow@@YAXPBX@Z 00484298     msvcprt:MSVCP140.dll
 0002:0000029c       __imp_?_Xbad_function_call@std@@YAXXZ 0048429c     msvcprt:MSVCP140.dll
 0002:000002a0       __imp_?_Syserror_map@std@@YAPBDH@Z 004842a0     msvcprt:MSVCP140.dll
 0002:000002a4       __imp___Mtx_init_in_situ   004842a4     msvcprt:MSVCP140.dll
 0002:000002a8       __imp___Mtx_destroy_in_situ 004842a8     msvcprt:MSVCP140.dll
 0002:000002ac       __imp___Mtx_current_owns   004842ac     msvcprt:MSVCP140.dll
 0002:000002b0       __imp___Mtx_lock           004842b0     msvcprt:MSVCP140.dll
 0002:000002b4       __imp___Mtx_unlock         004842b4     msvcprt:MSVCP140.dll
 0002:000002b8       __imp___Cnd_init_in_situ   004842b8     msvcprt:MSVCP140.dll
 0002:000002bc       __imp___Cnd_destroy_in_situ 004842bc     msvcprt:MSVCP140.dll
 0002:000002c0       __imp___Cnd_wait           004842c0     msvcprt:MSVCP140.dll
 0002:000002c4       __imp___Cnd_timedwait      004842c4     msvcprt:MSVCP140.dll
 0002:000002c8       __imp___Cnd_broadcast      004842c8     msvcprt:MSVCP140.dll
 0002:000002cc       __imp___Cnd_register_at_thread_exit 004842cc     msvcprt:MSVCP140.dll
 0002:000002d0       __imp___Cnd_unregister_at_thread_exit 004842d0     msvcprt:MSVCP140.dll
 0002:000002d4       __imp_?_Throw_C_error@std@@YAXH@Z 004842d4     msvcprt:MSVCP140.dll
 0002:000002d8       __imp_?_Throw_Cpp_error@std@@YAXH@Z 004842d8     msvcprt:MSVCP140.dll
 0002:000002dc       __imp_?_Schedule_chore@details@Concurrency@@YAHPAU_Threadpool_chore@12@@Z 004842dc     msvcprt:MSVCP140.dll
 0002:000002e0       __imp_?_Release_chore@details@Concurrency@@YAXPAU_Threadpool_chore@12@@Z 004842e0     msvcprt:MSVCP140.dll
 0002:000002e4       __imp_?GetCurrentThreadId@platform@details@Concurrency@@YAJXZ 004842e4     msvcprt:MSVCP140.dll
 0002:000002e8       __imp_?_ReportUnobservedException@details@Concurrency@@YAXXZ 004842e8     msvcprt:MSVCP140.dll
 0002:000002ec       __imp_?_CallInContext@_ContextCallback@details@Concurrency@@QBEXV?$function@$$A6AXXZ@std@@_N@Z 004842ec     msvcprt:MSVCP140.dll
 0002:000002f0       __imp_?_Reset@_ContextCallback@details@Concurrency@@AAEXXZ 004842f0     msvcprt:MSVCP140.dll
 0002:000002f4       __imp_??1?$basic_istream@DU?$char_traits@D@std@@@std@@UAE@XZ 004842f4     msvcprt:MSVCP140.dll
 0002:000002f8       __imp_?_LogScheduleTask@_TaskEventLogger@details@Concurrency@@QAEX_N@Z 004842f8     msvcprt:MSVCP140.dll
 0002:000002fc       __imp_?_LogWorkItemCompleted@_TaskEventLogger@details@Concurrency@@QAEXXZ 004842fc     msvcprt:MSVCP140.dll
 0002:00000300       __imp_?_LogWorkItemStarted@_TaskEventLogger@details@Concurrency@@QAEXXZ 00484300     msvcprt:MSVCP140.dll
 0002:00000304       __imp_?_LogTaskExecutionCompleted@_TaskEventLogger@details@Concurrency@@QAEXXZ 00484304     msvcprt:MSVCP140.dll
 0002:00000308       __imp_?_LogTaskCompleted@_TaskEventLogger@details@Concurrency@@QAEXXZ 00484308     msvcprt:MSVCP140.dll
 0002:0000030c       __imp_?_LogCancelTask@_TaskEventLogger@details@Concurrency@@QAEXXZ 0048430c     msvcprt:MSVCP140.dll
 0002:00000310       __imp_?_Capture@_ContextCallback@details@Concurrency@@AAEXXZ 00484310     msvcprt:MSVCP140.dll
 0002:00000314       \177MSVCP140_NULL_THUNK_DATA 00484314     msvcprt:MSVCP140.dll
 0002:00000318       __imp__glVertex2i@8        00484318     opengl32:OPENGL32.dll
 0002:0000031c       __imp__glRasterPos2f@8     0048431c     opengl32:OPENGL32.dll
 0002:00000320       __imp__glListBase@4        00484320     opengl32:OPENGL32.dll
 0002:00000324       __imp__glIndexi@4          00484324     opengl32:OPENGL32.dll
 0002:00000328       __imp__glGenLists@4        00484328     opengl32:OPENGL32.dll
 0002:0000032c       __imp__glEnd@0             0048432c     opengl32:OPENGL32.dll
 0002:00000330       __imp__glDeleteLists@8     00484330     opengl32:OPENGL32.dll
 0002:00000334       __imp__glColor3ub@12       00484334     opengl32:OPENGL32.dll
 0002:00000338       __imp__glCallLists@12      00484338     opengl32:OPENGL32.dll
 0002:0000033c       __imp__glBegin@4           0048433c     opengl32:OPENGL32.dll
 0002:00000340       __imp__wglUseFontBitmapsW@16 00484340     opengl32:OPENGL32.dll
 0002:00000344       __imp__glReadPixels@28     00484344     opengl32:OPENGL32.dll
 0002:00000348       __imp__glPushClientAttrib@4 00484348     opengl32:OPENGL32.dll
 0002:0000034c       __imp__glPopClientAttrib@0 0048434c     opengl32:OPENGL32.dll
 0002:00000350       __imp__wglShareLists@8     00484350     opengl32:OPENGL32.dll
 0002:00000354       __imp__wglMakeCurrent@8    00484354     opengl32:OPENGL32.dll
 0002:00000358       __imp__wglDeleteContext@4  00484358     opengl32:OPENGL32.dll
 0002:0000035c       __imp__wglCreateLayerContext@8 0048435c     opengl32:OPENGL32.dll
 0002:00000360       __imp__wglCreateContext@4  00484360     opengl32:OPENGL32.dll
 0002:00000364       __imp__glViewport@16       00484364     opengl32:OPENGL32.dll
 0002:00000368       __imp__glReadBuffer@4      00484368     opengl32:OPENGL32.dll
 0002:0000036c       __imp__glOrtho@48          0048436c     opengl32:OPENGL32.dll
 0002:00000370       __imp__glLoadIdentity@0    00484370     opengl32:OPENGL32.dll
 0002:00000374       __imp__glGetIntegerv@8     00484374     opengl32:OPENGL32.dll
 0002:00000378       __imp__glCopyPixels@20     00484378     opengl32:OPENGL32.dll
 0002:0000037c       __imp__wglSwapLayerBuffers@8 0048437c     opengl32:OPENGL32.dll
 0002:00000380       __imp__wglRealizeLayerPalette@12 00484380     opengl32:OPENGL32.dll
 0002:00000384       __imp__glRasterPos2i@8     00484384     opengl32:OPENGL32.dll
 0002:00000388       __imp__glPixelStorei@8     00484388     opengl32:OPENGL32.dll
 0002:0000038c       __imp__glFlush@0           0048438c     opengl32:OPENGL32.dll
 0002:00000390       __imp__glDrawPixels@20     00484390     opengl32:OPENGL32.dll
 0002:00000394       __imp__glDrawBuffer@4      00484394     opengl32:OPENGL32.dll
 0002:00000398       __imp__glDisable@4         00484398     opengl32:OPENGL32.dll
 0002:0000039c       __imp__glClearColor@16     0048439c     opengl32:OPENGL32.dll
 0002:000003a0       __imp__glClear@4           004843a0     opengl32:OPENGL32.dll
 0002:000003a4       \177OPENGL32_NULL_THUNK_DATA 004843a4     opengl32:OPENGL32.dll
 0002:000003a8       __imp__DragQueryFileW@16   004843a8     shell32:SHELL32.dll
 0002:000003ac       \177SHELL32_NULL_THUNK_DATA 004843ac     shell32:SHELL32.dll
 0002:000003b0       __imp__DefWindowProcW@16   004843b0     user32:USER32.dll
 0002:000003b4       __imp__GetKeyboardLayout@4 004843b4     user32:USER32.dll
 0002:000003b8       __imp__RegisterWindowMessageW@4 004843b8     user32:USER32.dll
 0002:000003bc       __imp__DefWindowProcA@16   004843bc     user32:USER32.dll
 0002:000003c0       __imp__PeekMessageW@20     004843c0     user32:USER32.dll
 0002:000003c4       __imp__RegisterClassExA@4  004843c4     user32:USER32.dll
 0002:000003c8       __imp__GetDCEx@12          004843c8     user32:USER32.dll
 0002:000003cc       __imp__SetRect@20          004843cc     user32:USER32.dll
 0002:000003d0       __imp__SetWindowRgn@12     004843d0     user32:USER32.dll
 0002:000003d4       __imp__SetActiveWindow@4   004843d4     user32:USER32.dll
 0002:000003d8       __imp__WindowFromPoint@8   004843d8     user32:USER32.dll
 0002:000003dc       __imp__SetForegroundWindow@4 004843dc     user32:USER32.dll
 0002:000003e0       __imp__MessageBoxA@16      004843e0     user32:USER32.dll
 0002:000003e4       __imp__GetSysColor@4       004843e4     user32:USER32.dll
 0002:000003e8       __imp__FillRect@12         004843e8     user32:USER32.dll
 0002:000003ec       __imp__PostThreadMessageA@16 004843ec     user32:USER32.dll
 0002:000003f0       __imp__MessageBeep@4       004843f0     user32:USER32.dll
 0002:000003f4       __imp__SystemParametersInfoA@16 004843f4     user32:USER32.dll
 0002:000003f8       __imp__CopyIcon@4          004843f8     user32:USER32.dll
 0002:000003fc       __imp__CreateIconIndirect@4 004843fc     user32:USER32.dll
 0002:00000400       __imp__DestroyIcon@4       00484400     user32:USER32.dll
 0002:00000404       __imp__LoadIconA@8         00484404     user32:USER32.dll
 0002:00000408       __imp__LoadCursorA@8       00484408     user32:USER32.dll
 0002:0000040c       __imp__GetWindow@8         0048440c     user32:USER32.dll
 0002:00000410       __imp__GetParent@4         00484410     user32:USER32.dll
 0002:00000414       __imp__SetWindowLongA@12   00484414     user32:USER32.dll
 0002:00000418       __imp__GetWindowLongA@8    00484418     user32:USER32.dll
 0002:0000041c       __imp__MapWindowPoints@16  0048441c     user32:USER32.dll
 0002:00000420       __imp__ClientToScreen@8    00484420     user32:USER32.dll
 0002:00000424       __imp__GetCursorPos@4      00484424     user32:USER32.dll
 0002:00000428       __imp__SetCursor@4         00484428     user32:USER32.dll
 0002:0000042c       __imp__AdjustWindowRectEx@16 0048442c     user32:USER32.dll
 0002:00000430       __imp__GetWindowRect@8     00484430     user32:USER32.dll
 0002:00000434       __imp__SetWindowTextW@8    00484434     user32:USER32.dll
 0002:00000438       __imp__ValidateRgn@8       00484438     user32:USER32.dll
 0002:0000043c       __imp__InvalidateRect@12   0048443c     user32:USER32.dll
 0002:00000440       __imp__GetUpdateRgn@12     00484440     user32:USER32.dll
 0002:00000444       __imp__ReleaseDC@8         00484444     user32:USER32.dll
 0002:00000448       __imp__GetDC@4             00484448     user32:USER32.dll
 0002:0000044c       __imp__GetForegroundWindow@0 0048444c     user32:USER32.dll
 0002:00000450       __imp__GetSystemMetrics@4  00484450     user32:USER32.dll
 0002:00000454       __imp__KillTimer@8         00484454     user32:USER32.dll
 0002:00000458       __imp__SetTimer@16         00484458     user32:USER32.dll
 0002:0000045c       __imp__MsgWaitForMultipleObjects@20 0048445c     user32:USER32.dll
 0002:00000460       __imp__ReleaseCapture@0    00484460     user32:USER32.dll
 0002:00000464       __imp__SetCapture@4        00484464     user32:USER32.dll
 0002:00000468       __imp__GetAsyncKeyState@4  00484468     user32:USER32.dll
 0002:0000046c       __imp__GetKeyState@4       0048446c     user32:USER32.dll
 0002:00000470       __imp__SetFocus@4          00484470     user32:USER32.dll
 0002:00000474       __imp__IsClipboardFormatAvailable@4 00484474     user32:USER32.dll
 0002:00000478       __imp__EmptyClipboard@0    00484478     user32:USER32.dll
 0002:0000047c       __imp__GetClipboardData@4  0048447c     user32:USER32.dll
 0002:00000480       __imp__SetClipboardData@8  00484480     user32:USER32.dll
 0002:00000484       __imp__ChangeClipboardChain@8 00484484     user32:USER32.dll
 0002:00000488       __imp__SetClipboardViewer@4 00484488     user32:USER32.dll
 0002:0000048c       __imp__GetClipboardOwner@0 0048448c     user32:USER32.dll
 0002:00000490       __imp__CloseClipboard@0    00484490     user32:USER32.dll
 0002:00000494       __imp__OpenClipboard@4     00484494     user32:USER32.dll
 0002:00000498       __imp__BringWindowToTop@4  00484498     user32:USER32.dll
 0002:0000049c       __imp__IsIconic@4          0048449c     user32:USER32.dll
 0002:000004a0       __imp__SetWindowPos@28     004844a0     user32:USER32.dll
 0002:000004a4       __imp__OpenIcon@4          004844a4     user32:USER32.dll
 0002:000004a8       __imp__ShowWindow@8        004844a8     user32:USER32.dll
 0002:000004ac       __imp__DestroyWindow@4     004844ac     user32:USER32.dll
 0002:000004b0       __imp__PostMessageA@16     004844b0     user32:USER32.dll
 0002:000004b4       __imp__DispatchMessageW@4  004844b4     user32:USER32.dll
 0002:000004b8       __imp__TranslateMessage@4  004844b8     user32:USER32.dll
 0002:000004bc       __imp__SendMessageA@16     004844bc     user32:USER32.dll
 0002:000004c0       __imp__IsWindow@4          004844c0     user32:USER32.dll
 0002:000004c4       __imp__CreateWindowExW@48  004844c4     user32:USER32.dll
 0002:000004c8       __imp__CreateWindowExA@48  004844c8     user32:USER32.dll
 0002:000004cc       __imp__RegisterClassExW@4  004844cc     user32:USER32.dll
 0002:000004d0       __imp__PeekMessageA@20     004844d0     user32:USER32.dll
 0002:000004d4       \177USER32_NULL_THUNK_DATA 004844d4     user32:USER32.dll
 0002:000004d8       __imp__strstr              004844d8     vcruntime:VCRUNTIME140.dll
 0002:000004dc       __imp____vcrt_InitializeCriticalSectionEx 004844dc     vcruntime:VCRUNTIME140.dll
 0002:000004e0       __imp___except_handler4_common 004844e0     vcruntime:VCRUNTIME140.dll
 0002:000004e4       __imp____std_type_info_destroy_list 004844e4     vcruntime:VCRUNTIME140.dll
 0002:000004e8       __imp__strrchr             004844e8     vcruntime:VCRUNTIME140.dll
 0002:000004ec       __imp____std_exception_destroy 004844ec     vcruntime:VCRUNTIME140.dll
 0002:000004f0       __imp____std_exception_copy 004844f0     vcruntime:VCRUNTIME140.dll
 0002:000004f4       __imp____std_terminate     004844f4     vcruntime:VCRUNTIME140.dll
 0002:000004f8       __imp___purecall           004844f8     vcruntime:VCRUNTIME140.dll
 0002:000004fc       __imp__memcmp              004844fc     vcruntime:VCRUNTIME140.dll
 0002:00000500       __imp__memset              00484500     vcruntime:VCRUNTIME140.dll
 0002:00000504       __imp__strchr              00484504     vcruntime:VCRUNTIME140.dll
 0002:00000508       __imp__memcpy              00484508     vcruntime:VCRUNTIME140.dll
 0002:0000050c       __imp___CxxThrowException@8 0048450c     vcruntime:VCRUNTIME140.dll
 0002:00000510       __imp____CxxFrameHandler3  00484510     vcruntime:VCRUNTIME140.dll
 0002:00000514       __imp__memmove             00484514     vcruntime:VCRUNTIME140.dll
 0002:00000518       \177VCRUNTIME140_NULL_THUNK_DATA 00484518     vcruntime:VCRUNTIME140.dll
 0002:0000051c       __imp__strtol              0048451c     ucrt:api-ms-win-crt-convert-l1-1-0.dll
 0002:00000520       __imp__atol                00484520     ucrt:api-ms-win-crt-convert-l1-1-0.dll
 0002:00000524       __imp__atof                00484524     ucrt:api-ms-win-crt-convert-l1-1-0.dll
 0002:00000528       __imp__wcstombs            00484528     ucrt:api-ms-win-crt-convert-l1-1-0.dll
 0002:0000052c       __imp__mbstowcs            0048452c     ucrt:api-ms-win-crt-convert-l1-1-0.dll
 0002:00000530       __imp__atoi                00484530     ucrt:api-ms-win-crt-convert-l1-1-0.dll
 0002:00000534       \177api-ms-win-crt-convert-l1-1-0_NULL_THUNK_DATA 00484534     ucrt:api-ms-win-crt-convert-l1-1-0.dll
 0002:00000538       __imp___wgetenv            00484538     ucrt:api-ms-win-crt-environment-l1-1-0.dll
 0002:0000053c       __imp__getenv              0048453c     ucrt:api-ms-win-crt-environment-l1-1-0.dll
 0002:00000540       __imp___putenv             00484540     ucrt:api-ms-win-crt-environment-l1-1-0.dll
 0002:00000544       __imp___wgetcwd            00484544     ucrt:api-ms-win-crt-environment-l1-1-0.dll
 0002:00000548       \177api-ms-win-crt-environment-l1-1-0_NULL_THUNK_DATA 00484548     ucrt:api-ms-win-crt-environment-l1-1-0.dll
 0002:0000054c       __imp___wmkdir             0048454c     ucrt:api-ms-win-crt-filesystem-l1-1-0.dll
 0002:00000550       __imp___access             00484550     ucrt:api-ms-win-crt-filesystem-l1-1-0.dll
 0002:00000554       __imp___wstat64i32         00484554     ucrt:api-ms-win-crt-filesystem-l1-1-0.dll
 0002:00000558       __imp___waccess            00484558     ucrt:api-ms-win-crt-filesystem-l1-1-0.dll
 0002:0000055c       __imp___wrmdir             0048455c     ucrt:api-ms-win-crt-filesystem-l1-1-0.dll
 0002:00000560       __imp___wrename            00484560     ucrt:api-ms-win-crt-filesystem-l1-1-0.dll
 0002:00000564       __imp___wunlink            00484564     ucrt:api-ms-win-crt-filesystem-l1-1-0.dll
 0002:00000568       __imp___lock_file          00484568     ucrt:api-ms-win-crt-filesystem-l1-1-0.dll
 0002:0000056c       __imp___unlock_file        0048456c     ucrt:api-ms-win-crt-filesystem-l1-1-0.dll
 0002:00000570       __imp___wchmod             00484570     ucrt:api-ms-win-crt-filesystem-l1-1-0.dll
 0002:00000574       __imp___mkdir              00484574     ucrt:api-ms-win-crt-filesystem-l1-1-0.dll
 0002:00000578       \177api-ms-win-crt-filesystem-l1-1-0_NULL_THUNK_DATA 00484578     ucrt:api-ms-win-crt-filesystem-l1-1-0.dll
 0002:0000057c       __imp__malloc              0048457c     ucrt:api-ms-win-crt-heap-l1-1-0.dll
 0002:00000580       __imp___set_new_mode       00484580     ucrt:api-ms-win-crt-heap-l1-1-0.dll
 0002:00000584       __imp__free                00484584     ucrt:api-ms-win-crt-heap-l1-1-0.dll
 0002:00000588       __imp___callnewh           00484588     ucrt:api-ms-win-crt-heap-l1-1-0.dll
 0002:0000058c       __imp__calloc              0048458c     ucrt:api-ms-win-crt-heap-l1-1-0.dll
 0002:00000590       __imp__realloc             00484590     ucrt:api-ms-win-crt-heap-l1-1-0.dll
 0002:00000594       \177api-ms-win-crt-heap-l1-1-0_NULL_THUNK_DATA 00484594     ucrt:api-ms-win-crt-heap-l1-1-0.dll
 0002:00000598       __imp__localeconv          00484598     ucrt:api-ms-win-crt-locale-l1-1-0.dll
 0002:0000059c       __imp___configthreadlocale 0048459c     ucrt:api-ms-win-crt-locale-l1-1-0.dll
 0002:000005a0       \177api-ms-win-crt-locale-l1-1-0_NULL_THUNK_DATA 004845a0     ucrt:api-ms-win-crt-locale-l1-1-0.dll
 0002:000005a4       __imp___libm_sse2_sqrt_precise 004845a4     ucrt:api-ms-win-crt-math-l1-1-0.dll
 0002:000005a8       __imp___libm_sse2_cos_precise 004845a8     ucrt:api-ms-win-crt-math-l1-1-0.dll
 0002:000005ac       __imp___libm_sse2_sin_precise 004845ac     ucrt:api-ms-win-crt-math-l1-1-0.dll
 0002:000005b0       __imp____setusermatherr    004845b0     ucrt:api-ms-win-crt-math-l1-1-0.dll
 0002:000005b4       __imp__log                 004845b4     ucrt:api-ms-win-crt-math-l1-1-0.dll
 0002:000005b8       __imp__fabs                004845b8     ucrt:api-ms-win-crt-math-l1-1-0.dll
 0002:000005bc       __imp__rint                004845bc     ucrt:api-ms-win-crt-math-l1-1-0.dll
 0002:000005c0       __imp___libm_sse2_tan_precise 004845c0     ucrt:api-ms-win-crt-math-l1-1-0.dll
 0002:000005c4       __imp___except1            004845c4     ucrt:api-ms-win-crt-math-l1-1-0.dll
 0002:000005c8       __imp__ceil                004845c8     ucrt:api-ms-win-crt-math-l1-1-0.dll
 0002:000005cc       __imp__acos                004845cc     ucrt:api-ms-win-crt-math-l1-1-0.dll
 0002:000005d0       __imp__pow                 004845d0     ucrt:api-ms-win-crt-math-l1-1-0.dll
 0002:000005d4       __imp__cos                 004845d4     ucrt:api-ms-win-crt-math-l1-1-0.dll
 0002:000005d8       __imp__sin                 004845d8     ucrt:api-ms-win-crt-math-l1-1-0.dll
 0002:000005dc       __imp__sqrt                004845dc     ucrt:api-ms-win-crt-math-l1-1-0.dll
 0002:000005e0       __imp___libm_sse2_pow_precise 004845e0     ucrt:api-ms-win-crt-math-l1-1-0.dll
 0002:000005e4       \177api-ms-win-crt-math-l1-1-0_NULL_THUNK_DATA 004845e4     ucrt:api-ms-win-crt-math-l1-1-0.dll
 0002:000005e8       __imp___wexecvp            004845e8     ucrt:api-ms-win-crt-process-l1-1-0.dll
 0002:000005ec       \177api-ms-win-crt-process-l1-1-0_NULL_THUNK_DATA 004845ec     ucrt:api-ms-win-crt-process-l1-1-0.dll
 0002:000005f0       __imp___register_onexit_function 004845f0     ucrt:api-ms-win-crt-runtime-l1-1-0.dll
 0002:000005f4       __imp___cexit              004845f4     ucrt:api-ms-win-crt-runtime-l1-1-0.dll
 0002:000005f8       __imp___seh_filter_exe     004845f8     ucrt:api-ms-win-crt-runtime-l1-1-0.dll
 0002:000005fc       __imp___set_app_type       004845fc     ucrt:api-ms-win-crt-runtime-l1-1-0.dll
 0002:00000600       __imp___initterm_e         00484600     ucrt:api-ms-win-crt-runtime-l1-1-0.dll
 0002:00000604       __imp___get_narrow_winmain_command_line 00484604     ucrt:api-ms-win-crt-runtime-l1-1-0.dll
 0002:00000608       __imp__raise               00484608     ucrt:api-ms-win-crt-runtime-l1-1-0.dll
 0002:0000060c       __imp___execute_onexit_table 0048460c     ucrt:api-ms-win-crt-runtime-l1-1-0.dll
 0002:00000610       __imp___controlfp_s        00484610     ucrt:api-ms-win-crt-runtime-l1-1-0.dll
 0002:00000614       __imp___initialize_onexit_table 00484614     ucrt:api-ms-win-crt-runtime-l1-1-0.dll
 0002:00000618       __imp___crt_at_quick_exit  00484618     ucrt:api-ms-win-crt-runtime-l1-1-0.dll
 0002:0000061c       __imp___wsystem            0048461c     ucrt:api-ms-win-crt-runtime-l1-1-0.dll
 0002:00000620       __imp___register_thread_local_exe_atexit_callback 00484620     ucrt:api-ms-win-crt-runtime-l1-1-0.dll
 0002:00000624       __imp___errno              00484624     ucrt:api-ms-win-crt-runtime-l1-1-0.dll
 0002:00000628       __imp___initialize_narrow_environment 00484628     ucrt:api-ms-win-crt-runtime-l1-1-0.dll
 0002:0000062c       __imp___invalid_parameter_noinfo 0048462c     ucrt:api-ms-win-crt-runtime-l1-1-0.dll
 0002:00000630       __imp____p___wargv         00484630     ucrt:api-ms-win-crt-runtime-l1-1-0.dll
 0002:00000634       __imp___c_exit             00484634     ucrt:api-ms-win-crt-runtime-l1-1-0.dll
 0002:00000638       __imp___configure_narrow_argv 00484638     ucrt:api-ms-win-crt-runtime-l1-1-0.dll
 0002:0000063c       __imp__terminate           0048463c     ucrt:api-ms-win-crt-runtime-l1-1-0.dll
 0002:00000640       __imp___seh_filter_dll     00484640     ucrt:api-ms-win-crt-runtime-l1-1-0.dll
 0002:00000644       __imp___exit               00484644     ucrt:api-ms-win-crt-runtime-l1-1-0.dll
 0002:00000648       __imp___initterm           00484648     ucrt:api-ms-win-crt-runtime-l1-1-0.dll
 0002:0000064c       __imp__strerror            0048464c     ucrt:api-ms-win-crt-runtime-l1-1-0.dll
 0002:00000650       __imp___crt_atexit         00484650     ucrt:api-ms-win-crt-runtime-l1-1-0.dll
 0002:00000654       __imp__exit                00484654     ucrt:api-ms-win-crt-runtime-l1-1-0.dll
 0002:00000658       __imp____p___argc          00484658     ucrt:api-ms-win-crt-runtime-l1-1-0.dll
 0002:0000065c       __imp____p___argv          0048465c     ucrt:api-ms-win-crt-runtime-l1-1-0.dll
 0002:00000660       __imp___invalid_parameter_noinfo_noreturn 00484660     ucrt:api-ms-win-crt-runtime-l1-1-0.dll
 0002:00000664       \177api-ms-win-crt-runtime-l1-1-0_NULL_THUNK_DATA 00484664     ucrt:api-ms-win-crt-runtime-l1-1-0.dll
 0002:00000668       __imp__ungetc              00484668     ucrt:api-ms-win-crt-stdio-l1-1-0.dll
 0002:0000066c       __imp____stdio_common_vfprintf 0048466c     ucrt:api-ms-win-crt-stdio-l1-1-0.dll
 0002:00000670       __imp____stdio_common_vsprintf 00484670     ucrt:api-ms-win-crt-stdio-l1-1-0.dll
 0002:00000674       __imp__fclose              00484674     ucrt:api-ms-win-crt-stdio-l1-1-0.dll
 0002:00000678       __imp__fopen               00484678     ucrt:api-ms-win-crt-stdio-l1-1-0.dll
 0002:0000067c       __imp__fread               0048467c     ucrt:api-ms-win-crt-stdio-l1-1-0.dll
 0002:00000680       __imp___wfopen             00484680     ucrt:api-ms-win-crt-stdio-l1-1-0.dll
 0002:00000684       __imp___wsopen_dispatch    00484684     ucrt:api-ms-win-crt-stdio-l1-1-0.dll
 0002:00000688       __imp__fseek               00484688     ucrt:api-ms-win-crt-stdio-l1-1-0.dll
 0002:0000068c       __imp____stdio_common_vsscanf 0048468c     ucrt:api-ms-win-crt-stdio-l1-1-0.dll
 0002:00000690       __imp__fwrite              00484690     ucrt:api-ms-win-crt-stdio-l1-1-0.dll
 0002:00000694       __imp___get_stream_buffer_pointers 00484694     ucrt:api-ms-win-crt-stdio-l1-1-0.dll
 0002:00000698       __imp__fflush              00484698     ucrt:api-ms-win-crt-stdio-l1-1-0.dll
 0002:0000069c       __imp__fgets               0048469c     ucrt:api-ms-win-crt-stdio-l1-1-0.dll
 0002:000006a0       __imp__fgetc               004846a0     ucrt:api-ms-win-crt-stdio-l1-1-0.dll
 0002:000006a4       __imp__fgetpos             004846a4     ucrt:api-ms-win-crt-stdio-l1-1-0.dll
 0002:000006a8       __imp__fputc               004846a8     ucrt:api-ms-win-crt-stdio-l1-1-0.dll
 0002:000006ac       __imp__fsetpos             004846ac     ucrt:api-ms-win-crt-stdio-l1-1-0.dll
 0002:000006b0       __imp___fseeki64           004846b0     ucrt:api-ms-win-crt-stdio-l1-1-0.dll
 0002:000006b4       __imp___set_fmode          004846b4     ucrt:api-ms-win-crt-stdio-l1-1-0.dll
 0002:000006b8       __imp__setvbuf             004846b8     ucrt:api-ms-win-crt-stdio-l1-1-0.dll
 0002:000006bc       __imp____acrt_iob_func     004846bc     ucrt:api-ms-win-crt-stdio-l1-1-0.dll
 0002:000006c0       __imp____p__commode        004846c0     ucrt:api-ms-win-crt-stdio-l1-1-0.dll
 0002:000006c4       \177api-ms-win-crt-stdio-l1-1-0_NULL_THUNK_DATA 004846c4     ucrt:api-ms-win-crt-stdio-l1-1-0.dll
 0002:000006c8       __imp__isupper             004846c8     ucrt:api-ms-win-crt-string-l1-1-0.dll
 0002:000006cc       __imp__toupper             004846cc     ucrt:api-ms-win-crt-string-l1-1-0.dll
 0002:000006d0       __imp__isalpha             004846d0     ucrt:api-ms-win-crt-string-l1-1-0.dll
 0002:000006d4       __imp__wcslen              004846d4     ucrt:api-ms-win-crt-string-l1-1-0.dll
 0002:000006d8       __imp__strcmp              004846d8     ucrt:api-ms-win-crt-string-l1-1-0.dll
 0002:000006dc       __imp___strdup             004846dc     ucrt:api-ms-win-crt-string-l1-1-0.dll
 0002:000006e0       __imp__strlen              004846e0     ucrt:api-ms-win-crt-string-l1-1-0.dll
 0002:000006e4       __imp__strcat              004846e4     ucrt:api-ms-win-crt-string-l1-1-0.dll
 0002:000006e8       __imp__strcpy              004846e8     ucrt:api-ms-win-crt-string-l1-1-0.dll
 0002:000006ec       __imp__isdigit             004846ec     ucrt:api-ms-win-crt-string-l1-1-0.dll
 0002:000006f0       __imp__wcscpy              004846f0     ucrt:api-ms-win-crt-string-l1-1-0.dll
 0002:000006f4       __imp__strcspn             004846f4     ucrt:api-ms-win-crt-string-l1-1-0.dll
 0002:000006f8       __imp__strncmp             004846f8     ucrt:api-ms-win-crt-string-l1-1-0.dll
 0002:000006fc       __imp__isspace             004846fc     ucrt:api-ms-win-crt-string-l1-1-0.dll
 0002:00000700       __imp__strncpy             00484700     ucrt:api-ms-win-crt-string-l1-1-0.dll
 0002:00000704       __imp__isxdigit            00484704     ucrt:api-ms-win-crt-string-l1-1-0.dll
 0002:00000708       __imp___stricmp            00484708     ucrt:api-ms-win-crt-string-l1-1-0.dll
 0002:0000070c       __imp__islower             0048470c     ucrt:api-ms-win-crt-string-l1-1-0.dll
 0002:00000710       __imp___strnicmp           00484710     ucrt:api-ms-win-crt-string-l1-1-0.dll
 0002:00000714       __imp__tolower             00484714     ucrt:api-ms-win-crt-string-l1-1-0.dll
 0002:00000718       __imp__isalnum             00484718     ucrt:api-ms-win-crt-string-l1-1-0.dll
 0002:0000071c       __imp__ispunct             0048471c     ucrt:api-ms-win-crt-string-l1-1-0.dll
 0002:00000720       __imp__isprint             00484720     ucrt:api-ms-win-crt-string-l1-1-0.dll
 0002:00000724       \177api-ms-win-crt-string-l1-1-0_NULL_THUNK_DATA 00484724     ucrt:api-ms-win-crt-string-l1-1-0.dll
 0002:00000728       __imp___time64             00484728     ucrt:api-ms-win-crt-time-l1-1-0.dll
 0002:0000072c       __imp__clock               0048472c     ucrt:api-ms-win-crt-time-l1-1-0.dll
 0002:00000730       \177api-ms-win-crt-time-l1-1-0_NULL_THUNK_DATA 00484730     ucrt:api-ms-win-crt-time-l1-1-0.dll
 0002:00000734       __imp__bsearch             00484734     ucrt:api-ms-win-crt-utility-l1-1-0.dll
 0002:00000738       __imp__qsort               00484738     ucrt:api-ms-win-crt-utility-l1-1-0.dll
 0002:0000073c       __imp__abs                 0048473c     ucrt:api-ms-win-crt-utility-l1-1-0.dll
 0002:00000740       __imp__rand                00484740     ucrt:api-ms-win-crt-utility-l1-1-0.dll
 0002:00000744       \177api-ms-win-crt-utility-l1-1-0_NULL_THUNK_DATA 00484744     ucrt:api-ms-win-crt-utility-l1-1-0.dll
 0002:00000748       __imp__OleUninitialize@0   00484748     ole32:ole32.dll
 0002:0000074c       __imp__RegisterDragDrop@8  0048474c     ole32:ole32.dll
 0002:00000750       __imp__DoDragDrop@16       00484750     ole32:ole32.dll
 0002:00000754       __imp__ReleaseStgMedium@4  00484754     ole32:ole32.dll
 0002:00000758       __imp__OleInitialize@4     00484758     ole32:ole32.dll
 0002:0000075c       \177ole32_NULL_THUNK_DATA  0048475c     ole32:ole32.dll
 0002:00000760       ___guard_check_icall_fptr  00484760     MSVCRT:guard_support.obj
 0002:00000764       ___xc_a                    00484764     MSVCRT:initializers.obj
 0002:0000079c       ___xc_z                    0048479c     MSVCRT:initializers.obj
 0002:000007a0       ___xi_a                    004847a0     MSVCRT:initializers.obj
 0002:000007b0       ___xi_z                    004847b0     MSVCRT:initializers.obj
 0002:000007b4       ___xl_a                    004847b4     MSVCRT:tlssup.obj
 0002:000007b8       ___xl_z                    004847b8     MSVCRT:tlssup.obj
 0002:000007bc       ___xp_a                    004847bc     MSVCRT:initializers.obj
 0002:000007c0       ___xp_z                    004847c0     MSVCRT:initializers.obj
 0002:000007c4       ___xt_a                    004847c4     MSVCRT:initializers.obj
 0002:000007c8       ___xt_z                    004847c8     MSVCRT:initializers.obj
 0002:000007d0       ??_C@_0DF@NNOEACBM@usage?3?5?$CFs?5?$FL?9r?5?$DM?$CD?$DO?5?9w?5?$DM?$CD?$DO?5?9t?$FN?5?$FLin@ 004847d0     main.obj
 0002:00000808       ??_C@_07NLNIDKMO@tr?3w?3h?3?$AA@ 00484808     main.obj
 0002:00000810       ??_C@_0BO@KHKCPKHG@no?5input?5and?1or?5output?5name?4?6?$AA@ 00484810     main.obj
 0002:00000830       ??_C@_0BL@CIPBKBPM@total?5time?5?$DN?5?$CF?43f?5seconds?6?$AA@ 00484830     main.obj
 0002:00000850       __real@3fe0000000000000    00484850     main.obj
 0002:00000858       __real@408f400000000000    00484858     main.obj
 0002:00000864       ??_7Material@@6B@          00484864     RayTracer.obj
 0002:0000086c       ??_C@_0BA@DKEIIMHB@ParseError?3?5?$CFs?6?$AA@ 0048486c     RayTracer.obj
 0002:0000087c       ??_C@_0BC@KBDMBKEH@deque?$DMT?$DO?5too?5long?$AA@ 0048487c     RayTracer.obj
 0002:00000890       ??_C@_0BA@JFNIOLAK@string?5too?5long?$AA@ 00484890     RayTracer.obj
 0002:000008a0       ??_C@_0BI@CFPLBAOH@invalid?5string?5position?$AA@ 004848a0     RayTracer.obj
 0002:000008b8       __real@3ee4f8b588e368f1    004848b8     RayTracer.obj
 0002:000008c0       __real@3fb999999999999a    004848c0     RayTracer.obj
 0002:000008c8       __real@3ff0000000000000    004848c8     RayTracer.obj
 0002:000008d0       __real@4014000000000000    004848d0     RayTracer.obj
 0002:000008d8       __real@406fe00000000000    004848d8     RayTracer.obj
 0002:000008e0       __real@4070000000000000    004848e0     RayTracer.obj
 0002:000008e8       __real@40dfffc000000000    004848e8     RayTracer.obj
 0002:000008f0       __xmm@3ff00000000000000000000000000000 004848f0     RayTracer.obj
 0002:00000900       __xmm@3ff00000000000003ff0000000000000 00484900     RayTracer.obj
 0002:00000910       __xmm@80000000000000008000000000000000 00484910     RayTracer.obj
 0002:00000924       ??_7Fl_Gl_Window@@6B@      00484924     TraceGLWindow.obj
 0002:00000954       ??_7TraceGLWindow@@6B@     00484954     TraceGLWindow.obj
 0002:00000980       ??_C@_05FHBCAALB@?$CGFile?$AA@ 00484980     TraceUI.obj
 0002:00000988       ??_C@_0P@KFLCMLL@?$CGLoad?5Scene?4?4?4?$AA@ 00484988     TraceUI.obj
 0002:00000998       ??_C@_0P@IGLBNMCE@?$CGSave?5Image?4?4?4?$AA@ 00484998     TraceUI.obj
 0002:000009a8       ??_C@_05KNAFKLGA@?$CGExit?$AA@ 004849a8     TraceUI.obj
 0002:000009b0       ??_C@_05JFEBOHHM@?$CGHelp?$AA@ 004849b0     TraceUI.obj
 0002:000009b8       ??_C@_06JDCECANP@?$CGAbout?$AA@ 004849b8     TraceUI.obj
 0002:000009c4       ??_7exception@std@@6B@     004849c4     TraceUI.obj
 0002:000009cc       ??_C@_0BC@EOODALEL@Unknown?5exception?$AA@ 004849cc     TraceUI.obj
 0002:000009e4       ??_7runtime_error@std@@6B@ 004849e4     TraceUI.obj
 0002:000009f0       ??_7error_category@std@@6B@ 004849f0     TraceUI.obj
 0002:00000a0c       ??_7_System_error@std@@6B@ 00484a0c     TraceUI.obj
 0002:00000a14       ??_C@_02LMMGGCAJ@?3?5?$AA@ 00484a14     TraceUI.obj
 0002:00000a1c       ??_7system_error@std@@6B@  00484a1c     TraceUI.obj
 0002:00000a24       ??_C@_00CNPNBAHC@?$AA@     00484a24     TraceUI.obj
 0002:00000a2c       ??_7_Generic_error_category@std@@6B@ 00484a2c     TraceUI.obj
 0002:00000a44       ??_C@_07DCLBNMLN@generic?$AA@ 00484a44     TraceUI.obj
 0002:00000a50       ??_7_Ref_count_base@std@@6B@ 00484a50     TraceUI.obj
 0002:00000a64       ??_7invalid_operation@Concurrency@@6B@ 00484a64     TraceUI.obj
 0002:00000a70       ??_7_DefaultPPLTaskScheduler@details@Concurrency@@6B@ 00484a70     TraceUI.obj
 0002:00000a74       ??_C@_0BM@DMDJGFCM@Fail?5to?5schedule?5the?5chore?$CB?$AA@ 00484a74     TraceUI.obj
 0002:00000a94       ??_7_RefCounter@details@Concurrency@@6B@ 00484a94     TraceUI.obj
 0002:00000aa0       ??_7_CancellationTokenRegistration@details@Concurrency@@6B@ 00484aa0     TraceUI.obj
 0002:00000ab0       ??_7_TaskProcHandle@details@Concurrency@@6B@ 00484ab0     TraceUI.obj
 0002:00000ab8       ??_C@_0DN@ELCPICKL@This?5function?5cannot?5be?5called?5o@ 00484ab8     TraceUI.obj
 0002:00000afc       ??_7_Task_impl_base@details@Concurrency@@6B@ 00484afc     TraceUI.obj
 0002:00000b04       ??_C@_0DD@NJEIIHCG@Illegal?5to?5wait?5on?5a?5task?5in?5a?5W@ 00484b04     TraceUI.obj
 0002:00000b4c       ??_7?$_Task_impl@E@details@Concurrency@@6B@ 00484b4c     TraceUI.obj
 0002:00000b54       ??_C@_0P@JCDOJLHG@broken?5promise?$AA@ 00484b54     TraceUI.obj
 0002:00000b64       ??_C@_0BJ@JOKOCMFN@future?5already?5retrieved?$AA@ 00484b64     TraceUI.obj
 0002:00000b80       ??_C@_0BK@JNDAEPJA@promise?5already?5satisfied?$AA@ 00484b80     TraceUI.obj
 0002:00000b9c       ??_C@_08CCNMMIE@no?5state?$AA@ 00484b9c     TraceUI.obj
 0002:00000bac       ??_7_Future_error_category@std@@6B@ 00484bac     TraceUI.obj
 0002:00000bc4       ??_C@_06MOFGPAFB@future?$AA@ 00484bc4     TraceUI.obj
 0002:00000bd0       ??_7?$_Associated_state@H@std@@6B@ 00484bd0     TraceUI.obj
 0002:00000be8       ??_C@_05OACFOCNG@?$CK?4ray?$AA@ 00484be8     TraceUI.obj
 0002:00000bf0       ??_C@_0M@GCFCGBJC@Open?5Scene?$DP?$AA@ 00484bf0     TraceUI.obj
 0002:00000bfc       ??_C@_08MDAAHFLF@Ray?5?$DM?$CFs?$DO?$AA@ 00484bfc     TraceUI.obj
 0002:00000c08       ??_C@_0BB@NGIDKHOI@Ray?5?$DMNot?5Loaded?$DO?$AA@ 00484c08     TraceUI.obj
 0002:00000c1c       ??_C@_08JLPGEAPE@save?4bmp?$AA@ 00484c1c     TraceUI.obj
 0002:00000c28       ??_C@_05GIOEPHGE@?$CK?4bmp?$AA@ 00484c28     TraceUI.obj
 0002:00000c30       ??_C@_0M@DLNIDFGI@Save?5Image?$DP?$AA@ 00484c30     TraceUI.obj
 0002:00000c3c       ??_C@_0CJ@GNKOILOG@RayTracer?5Project?53?0?5HKUST?0?5Muco@ 00484c3c     TraceUI.obj
 0002:00000c68       ??_C@_05BOMFGPKE@Depth?$AA@ 00484c68     TraceUI.obj
 0002:00000c70       ??_C@_04EBKMHHBE@Size?$AA@ 00484c70     TraceUI.obj
 0002:00000c78       ??_C@_0BG@CGNBBMBJ@Attenuation?0?5Constant?$AA@ 00484c78     TraceUI.obj
 0002:00000c90       ??_C@_0BE@MFODOKNI@Attenuation?0?5Linear?$AA@ 00484c90     TraceUI.obj
 0002:00000ca4       ??_C@_0BH@LGHCAMKL@Attenuation?0?5Quadratic?$AA@ 00484ca4     TraceUI.obj
 0002:00000cbc       ??_C@_0BE@IJBNAMLG@Intensity?5Threshold?$AA@ 00484cbc     TraceUI.obj
 0002:00000cd0       ??_C@_06FGKLFPAP@Glossy?$AA@ 00484cd0     TraceUI.obj
 0002:00000cd8       ??_C@_07LEDOIDFI@Fresnel?$AA@ 00484cd8     TraceUI.obj
 0002:00000ce0       ??_C@_06JGMANLDI@Thread?$AA@ 00484ce0     TraceUI.obj
 0002:00000ce8       ??_C@_0P@PONGOEPI@Super?5Sampling?$AA@ 00484ce8     TraceUI.obj
 0002:00000cf8       ??_C@_06KHOKADBJ@Shadow?$AA@ 00484cf8     TraceUI.obj
 0002:00000d00       ??_C@_0L@IODOICBM@Reflection?$AA@ 00484d00     TraceUI.obj
 0002:00000d0c       ??_C@_0L@BDEAIFBG@Refraction?$AA@ 00484d0c     TraceUI.obj
 0002:00000d18       ??_C@_0M@EBFKHELC@Soft?5Shadow?$AA@ 00484d18     TraceUI.obj
 0002:00000d24       ??_C@_07IIOEJGPH@?$CGRender?$AA@ 00484d24     TraceUI.obj
 0002:00000d2c       ??_C@_0BB@MDNNBOEJ@Distance?5Overide?$AA@ 00484d2c     TraceUI.obj
 0002:00000d40       ??_C@_05GIJCMPEM@?$CGStop?$AA@ 00484d40     TraceUI.obj
 0002:00000d48       ??_C@_0P@BIKGMPPG@Rendered?5Image?$AA@ 00484d48     TraceUI.obj
 0002:00000d5c       ??_7?$_Func_base@X$$V@std@@6B@ 00484d5c     TraceUI.obj
 0002:00000d78       ??_7?$_Func_base@E$$V@std@@6B@ 00484d78     TraceUI.obj
 0002:00000d90       ??_C@_0BD@OLBABOEK@vector?$DMT?$DO?5too?5long?$AA@ 00484d90     TraceUI.obj
 0002:00000da8       ??_7?$_Ref_count_obj@U_ExceptionHolder@details@Concurrency@@@std@@6B@ 00484da8     TraceUI.obj
 0002:00000dbc       ??_7?$_Ref_count_obj@U?$_Task_impl@E@details@Concurrency@@@std@@6B@ 00484dbc     TraceUI.obj
 0002:00000dd0       ??_7?$_Packaged_state@$$A6AXXZ@std@@6B@ 00484dd0     TraceUI.obj
 0002:00000dec       ??_7?$_Task_async_state@X$0A@@std@@6B@ 00484dec     TraceUI.obj
 0002:00000e08       ??_7?$_Deferred_async_state@X@std@@6B@ 00484e08     TraceUI.obj
 0002:00000e24       ??_7?$_Task_async_state@X$00@std@@6B@ 00484e24     TraceUI.obj
 0002:00000eb0       ??_7?$_Func_impl@V?$_Fake_no_copy_callable_adapter@A6AXPAVTraceUI@@HHH@ZAAPAV1@HHAAH@std@@V?$allocator@H@2@X$$V@std@@6B@ 00484eb0     TraceUI.obj
 0002:00000efc       ??_7?$_Func_impl@V?$_Fake_no_copy_callable_adapter@A6AXPAVTraceUI@@HHH@ZAAPAV1@HAAHAAH@std@@V?$allocator@H@2@X$$V@std@@6B@ 00484efc     TraceUI.obj
 0002:00000fb8       __real@3f747ae147ae147b    00484fb8     TraceUI.obj
 0002:00000fc0       __real@3f847ae147ae147b    00484fc0     TraceUI.obj
 0002:00000fc8       __real@4020000000000000    00484fc8     TraceUI.obj
 0002:00000fd0       __real@4024000000000000    00484fd0     TraceUI.obj
 0002:00000fd8       __real@4030000000000000    00484fd8     TraceUI.obj
 0002:00000fe0       __real@4050000000000000    00484fe0     TraceUI.obj
 0002:00000fe8       __real@4059000000000000    00484fe8     TraceUI.obj
 0002:00000ff0       __real@4080000000000000    00484ff0     TraceUI.obj
 0002:00001000       __xmm@3fa999999999999a3fd0000000000000 00485000     TraceUI.obj
 0002:00001010       ??_C@_02JDPG@rb?$AA@       00485010     bitmap.obj
 0002:00001014       ??_C@_02GMLFBBN@wb?$AA@    00485014     bitmap.obj
 0002:00001018       ??_C@_05LAPONLG@false?$AA@ 00485018     parse.obj
 0002:00001020       ??_C@_04LOAJBDKD@true?$AA@ 00485020     parse.obj
 0002:00001028       ??_C@_01LFCBOECM@?4?$AA@   00485028     parse.obj
 0002:0000102c       ??_C@_06ODAJNOHJ@?0?5got?5?$AA@ 0048502c     parse.obj
 0002:00001034       ??_C@_0CM@GIEFMEBK@Type?5mismatch?5error?5during?5parse@ 00485034     parse.obj
 0002:00001064       ??_7Obj@@6B@               00485064     parse.obj
 0002:00001090       ??_C@_05JMKJMOPH@token?$AA@ 00485090     parse.obj
 0002:00001098       ??_C@_06LAMNDLOG@scalar?$AA@ 00485098     parse.obj
 0002:000010a0       ??_C@_04DDKJGDCM@bool?$AA@ 004850a0     parse.obj
 0002:000010a8       ??_C@_02EGCJHIOB@id?$AA@   004850a8     parse.obj
 0002:000010ac       ??_C@_06ICGJLFIM@string?$AA@ 004850ac     parse.obj
 0002:000010b4       ??_C@_05NNMEHDAO@tuple?$AA@ 004850b4     parse.obj
 0002:000010bc       ??_C@_04BCIDKIGN@dict?$AA@ 004850bc     parse.obj
 0002:000010c4       ??_C@_05FOFAOGDN@named?$AA@ 004850c4     parse.obj
 0002:000010d0       ??_7ScalarObj@@6B@         004850d0     parse.obj
 0002:00001100       ??_7BooleanObj@@6B@        00485100     parse.obj
 0002:00001130       ??_7IdObj@@6B@             00485130     parse.obj
 0002:00001160       ??_7StringObj@@6B@         00485160     parse.obj
 0002:00001190       ??_7TupleObj@@6B@          00485190     parse.obj
 0002:000011bc       ??_C@_02KEGNLNML@?0?5?$AA@ 004851bc     parse.obj
 0002:000011c4       ??_7DictObj@@6B@           004851c4     parse.obj
 0002:000011f0       ??_C@_02LNAEAIDO@?$DL?5?$AA@ 004851f0     parse.obj
 0002:000011f4       ??_C@_03MHLONNLM@?5?$DN?5?$AA@ 004851f4     parse.obj
 0002:000011fc       ??_7NamedObj@@6B@          004851fc     parse.obj
 0002:00001228       ??_C@_0CC@IDEKONCJ@Parse?5Error?3?5unterminated?5commen@ 00485228     parse.obj
 0002:0000124c       ??_C@_04OIEAJMJE@?$HN?$CJ?0?$DL?$AA@ 0048524c     parse.obj
 0002:00001254       ??_C@_0M@HAMAGFOL@?5?7?6?$DN?$HL?$HN?$CI?$CJ?$DL?0?1?$AA@ 00485254     parse.obj
 0002:00001260       ??_C@_0BN@PKELOCAN@Parse?5error?3?5expected?5comma?4?$AA@ 00485260     parse.obj
 0002:00001280       ??_C@_0BO@DILJNIKO@Parse?5error?3?5expected?5equals?4?$AA@ 00485280     parse.obj
 0002:000012a0       ??_C@_0CK@FGHMGNDN@Parse?5error?3?5expected?5semicolon?5@ 004852a0     parse.obj
 0002:000012cc       ??_C@_0BE@JONHPENG@map?1set?$DMT?$DO?5too?5long?$AA@ 004852cc     parse.obj
 0002:000012e8       ??_7bad_cast@std@@6B@      004852e8     read.obj
 0002:000012f0       ??_C@_08EPJLHIJG@bad?5cast?$AA@ 004852f0     read.obj
 0002:00001300       ??_7strstreambuf@std@@6B@  00485300     read.obj
 0002:00001340       ??_7ostrstream@std@@6B@    00485340     read.obj
 0002:00001344       ??_8ostrstream@std@@7B@    00485344     read.obj
 0002:00001350       ??_7SceneElement@@6B@      00485350     read.obj
 0002:00001358       ??_7Geometry@@6B@          00485358     read.obj
 0002:00001374       ??_7SceneObject@@6B@       00485374     read.obj
 0002:00001398       ??_7MaterialSceneObject@@6B@ 00485398     read.obj
 0002:000013bc       ??_7Scene@@6B@             004853bc     read.obj
 0002:000013c4       ??_7Trimesh@@6B@           004853c4     read.obj
 0002:000013e8       ??_7Box@@6B@               004853e8     read.obj
 0002:0000140c       ??_7Cone@@6B@              0048540c     read.obj
 0002:00001430       ??_7Cylinder@@6B@          00485430     read.obj
 0002:00001454       ??_7Sphere@@6B@            00485454     read.obj
 0002:00001478       ??_7Square@@6B@            00485478     read.obj
 0002:0000149c       ??_7Light@@6B@             0048549c     read.obj
 0002:000014b4       ??_7DirectionalLight@@6B@  004854b4     read.obj
 0002:000014cc       ??_7?$basic_filebuf@DU?$char_traits@D@std@@@std@@6B@ 004854cc     read.obj
 0002:0000150c       ??_7?$basic_ifstream@DU?$char_traits@D@std@@@std@@6B@ 0048550c     read.obj
 0002:00001510       ??_8?$basic_ifstream@DU?$char_traits@D@std@@@std@@7B@ 00485510     read.obj
 0002:00001518       ??_C@_0CB@CMNMOCL@Error?3?5couldn?8t?5read?5scene?5file?5@ 00485518     read.obj
 0002:0000153c       ??_C@_0O@DJOCHAI@Parse?5error?3?5?$AA@ 0048553c     read.obj
 0002:0000154c       ??_C@_0O@FACIOJJJ@SBT?9raytracer?$AA@ 0048554c     read.obj
 0002:0000155c       ??_C@_0CA@IMDDPACM@Input?5is?5not?5an?5SBT?5input?5file?4?$AA@ 0048555c     read.obj
 0002:0000157c       ??_C@_0BD@KNJCBHMB@?0?5need?5version?51?40?$AA@ 0048557c     read.obj
 0002:00001590       ??_C@_0BC@BCJEKMIF@Input?5is?5version?5?$AA@ 00485590     read.obj
 0002:000015a4       ??_C@_0BP@FDOIHNDN@Object?5contains?5no?5color?5field?$AA@ 004855a4     read.obj
 0002:000015c4       ??_C@_05PEENBMOG@color?$AA@ 004855c4     read.obj
 0002:000015cc       ??_C@_06FBNLAHKA@colour?$AA@ 004855cc     read.obj
 0002:000015d4       ??_C@_01BJJEKLCA@?$CC?$AA@ 004855d4     read.obj
 0002:000015d8       ??_C@_0CB@NAFHLPFG@Object?5contains?5no?5field?5named?5?$CC@ 004855d8     read.obj
 0002:000015fc       ??_C@_0BG@OLFBDBCH@Unknown?5input?5object?5?$AA@ 004855fc     read.obj
 0002:00001614       ??_C@_0M@ECHGAHIB@?0?5expected?5?$AA@ 00485614     read.obj
 0002:00001620       ??_C@_0BA@BCEPJBGM@Bad?5tuple?5size?5?$AA@ 00485620     read.obj
 0002:00001630       ??_C@_09ODNGOEIO@translate?$AA@ 00485630     read.obj
 0002:0000163c       ??_C@_06CEHMNFAL@rotate?$AA@ 0048563c     read.obj
 0002:00001644       ??_C@_05MHMEBBGO@scale?$AA@ 00485644     read.obj
 0002:0000164c       ??_C@_09IFONHNKG@transform?$AA@ 0048564c     read.obj
 0002:00001658       ??_C@_07HAACKDAH@trimesh?$AA@ 00485658     read.obj
 0002:00001660       ??_C@_08BGGMGDGA@polymesh?$AA@ 00485660     read.obj
 0002:0000166c       ??_C@_08KNOEMJMM@material?$AA@ 0048566c     read.obj
 0002:00001678       ??_C@_06FOHEPPJH@sphere?$AA@ 00485678     read.obj
 0002:00001680       ??_C@_03OLPJGAII@box?$AA@  00485680     read.obj
 0002:00001684       ??_C@_08GNLJBPEP@cylinder?$AA@ 00485684     read.obj
 0002:00001690       ??_C@_04NOMJJLOC@cone?$AA@ 00485690     read.obj
 0002:00001698       ??_C@_06LNLHEAAG@height?$AA@ 00485698     read.obj
 0002:000016a0       ??_C@_0O@MGOOHFDO@bottom_radius?$AA@ 004856a0     read.obj
 0002:000016b0       ??_C@_0L@ECCBOGFH@top_radius?$AA@ 004856b0     read.obj
 0002:000016bc       ??_C@_06MGAFENDN@capped?$AA@ 004856bc     read.obj
 0002:000016c4       ??_C@_06ICDKOIFG@square?$AA@ 004856c4     read.obj
 0002:000016cc       ??_C@_06GPGIDCJA@points?$AA@ 004856cc     read.obj
 0002:000016d4       ??_C@_05FHFPJHPF@faces?$AA@ 004856d4     read.obj
 0002:000016dc       ??_C@_0CF@GEDICGEO@Faces?5must?5have?5at?5least?53?5verti@ 004856dc     read.obj
 0002:00001704       ??_C@_0BF@OEEFHGHM@Bad?5face?5in?5trimesh?4?$AA@ 00485704     read.obj
 0002:0000171c       ??_C@_0L@BHGKEBAO@gennormals?$AA@ 0048571c     read.obj
 0002:00001728       ??_C@_09JGGNEAGH@materials?$AA@ 00485728     read.obj
 0002:00001734       ??_C@_07MDEPDJDC@normals?$AA@ 00485734     read.obj
 0002:0000173c       ??_C@_08GHNOEFBP@emissive?$AA@ 0048573c     read.obj
 0002:00001748       ??_C@_07LIABELBC@ambient?$AA@ 00485748     read.obj
 0002:00001750       ??_C@_08DPLIAGAA@specular?$AA@ 00485750     read.obj
 0002:0000175c       ??_C@_07KFBPAAO@diffuse?$AA@ 0048575c     read.obj
 0002:00001764       ??_C@_0L@PIKBEMPP@reflective?$AA@ 00485764     read.obj
 0002:00001770       ??_C@_0N@LNDBFIIK@transmissive?$AA@ 00485770     read.obj
 0002:00001780       ??_C@_05FKHKFDID@index?$AA@ 00485780     read.obj
 0002:00001788       ??_C@_09KFDJGKDF@shininess?$AA@ 00485788     read.obj
 0002:00001794       ??_C@_04MEMAJGDJ@name?$AA@ 00485794     read.obj
 0002:0000179c       ??_C@_0CG@IHKLPAFD@Attempt?5to?5bind?5material?5with?5no@ 0048579c     read.obj
 0002:000017c4       ??_C@_08OAGMDKAF@position?$AA@ 004857c4     read.obj
 0002:000017d0       ??_C@_0L@JPALPDGI@quaternion?$AA@ 004857d0     read.obj
 0002:000017dc       ??_C@_0BC@IKBCFBBB@Bogus?5quaternion?4?$AA@ 004857dc     read.obj
 0002:000017f0       ??_C@_03PKBINKFB@fov?$AA@  004857f0     read.obj
 0002:000017f4       ??_C@_0M@FFGFHNCN@aspectratio?$AA@ 004857f4     read.obj
 0002:00001800       ??_C@_07BDEMJIAO@viewdir?$AA@ 00485800     read.obj
 0002:00001808       ??_C@_05CELKJGO@updir?$AA@ 00485808     read.obj
 0002:00001810       ??_C@_0BC@CFBAKHOB@directional_light?$AA@ 00485810     read.obj
 0002:00001824       ??_C@_0BO@NHKEEDJH@No?5info?5for?5directional_light?$AA@ 00485824     read.obj
 0002:00001844       ??_C@_09HPKLLIJF@direction?$AA@ 00485844     read.obj
 0002:00001850       ??_C@_0M@GHOKJKOP@point_light?$AA@ 00485850     read.obj
 0002:0000185c       ??_C@_0BI@OAABJGEO@No?5info?5for?5point_light?$AA@ 0048585c     read.obj
 0002:00001874       ??_C@_06FNKMPIBD@camera?$AA@ 00485874     read.obj
 0002:0000187c       ??_C@_0BG@BBAIFKIF@Unrecognized?5object?3?5?$AA@ 0048587c     read.obj
 0002:00001894       ??_C@_0BB@MOGOBHAF@list?$DMT?$DO?5too?5long?$AA@ 00485894     read.obj
 0002:000018a8       __real@3f800000            004858a8     read.obj
 0002:000018b0       __real@4000000000000000    004858b0     read.obj
 0002:000018b8       __real@bee4f8b588e368f1    004858b8     read.obj
 0002:000018c0       __xmm@00000000000000003ff0000000000000 004858c0     read.obj
 0002:000018d0       __xmm@3fe00000000000003fe0000000000000 004858d0     read.obj
 0002:000018e0       __xmm@7fffffffffffffff7fffffffffffffff 004858e0     read.obj
 0002:000018f0       __xmm@bfe0000000000000bfe0000000000000 004858f0     read.obj
 0002:00001900       __xmm@bff0000000000000bff0000000000000 00485900     read.obj
 0002:00001910       __real@0000000000000000    00485910     vecmath.obj
 0002:00001918       __real@404ca5dc1a63bfe5    00485918     camera.obj
 0002:00001920       __real@bff0000000000000    00485920     camera.obj
 0002:0000192c       ??_7PointLight@@6B@        0048592c     light.obj
 0002:00001940       __real@3fc999999999999a    00485940     light.obj
 0002:00001948       __real@4008000000000000    00485948     light.obj
 0002:00001950       __real@403b000000000000    00485950     light.obj
 0002:00001960       __xmm@41f00000000000000000000000000000 00485960     light.obj
 0002:00001970       __real@4060000000000000    00485970     material.obj
 0002:00001978       __real@7fe1ccf385ebc8a0    00485978     scene.obj
 0002:00001980       __real@ffe1ccf385ebc8a0    00485980     scene.obj
 0002:00001988       ??_C@_0BJ@IFIFFOOD@Box?3?3intersectLocal?5?$DP?$DP?$DP?6?$AA@ 00485988     Box.obj
 0002:000019a8       __real@7fefffffffffffff    004859a8     Box.obj
 0002:000019b0       __real@bfe0000000000000    004859b0     Box.obj
 0002:000019b8       __real@ffefffffffffffff    004859b8     Box.obj
 0002:000019c0       __real@4010000000000000    004859c0     Cone.obj
 0002:000019c8       __real@8000000000000000    004859c8     Cylinder.obj
 0002:000019d4       ??_7TrimeshFace@@6B@       004859d4     trimesh.obj
 0002:000019f4       ??_C@_0CI@DJLMOCOM@Bad?5Trimesh?3?5Wrong?5number?5of?5mat@ 004859f4     trimesh.obj
 0002:00001a1c       ??_C@_0CG@CGLEALMC@Bad?5Trimesh?3?5Wrong?5number?5of?5nor@ 00485a1c     trimesh.obj
 0002:00001a44       __real@00800000            00485a44     trimesh.obj
 0002:00001a48       __real@bf800000            00485a48     trimesh.obj
 0002:00001a50       __real@400921fb54442d18    00485a50     vecCone.obj
 0002:00001be0       ?clipboard_plain_text@Fl@@2QBDB 00485be0     fltk:Fl.obj
 0002:00001be4       ?clipboard_image@Fl@@2QBDB 00485be4     fltk:Fl.obj
 0002:00001e58       ??_7Fl_Image@@6B@          00485e58     fltk:Fl.obj
 0002:00001e7c       ??_7Fl_RGB_Image@@6B@      00485e7c     fltk:Fl.obj
 0002:00001ea0       ??_7Fl_Device@@6B@         00485ea0     fltk:Fl.obj
 0002:00001eac       ??_7Fl_Graphics_Driver@@6B@ 00485eac     fltk:Fl.obj
 0002:00001f9c       ??_7Fl_GDI_Graphics_Driver@@6B@ 00485f9c     fltk:Fl.obj
 0002:0000208c       ??_7Fl_Surface_Device@@6B@ 0048608c     fltk:Fl.obj
 0002:00002098       __real@3f50624dd2f1a9fc    00486098     fltk:Fl.obj
 0002:000020a0       __real@3ff07c1bda5119ce    004860a0     fltk:Fl.obj
 0002:000020a8       __real@40c3880000000000    004860a8     fltk:Fl.obj
 0002:000020b0       __real@4415af1d78b58c40    004860b0     fltk:Fl.obj
 0002:000020f8       ??_7Fl_Window@@6B@         004860f8     fltk:Fl_Window.obj
 0002:0000213c       ??_7Fl_Group@@6B@          0048613c     fltk:Fl_Group.obj
 0002:00002164       ??_7InputMenuButton@Fl_Input_Choice@@6B@ 00486164     fltk:Fl_Group.obj
 0002:0000218c       ??_7Fl_Input_Choice@@6B@   0048618c     fltk:Fl_Group.obj
 0002:000021b4       ??_7Fl_Spinner@@6B@        004861b4     fltk:Fl_Group.obj
 0002:000021d8       ??_C@_05DLHCDJKH@?$CF?412f?$AA@ 004861d8     fltk:Fl_Group.obj
 0002:000021fc       ??_7Fl_Menu_@@6B@          004861fc     fltk:Fl_Menu_.obj
 0002:00002224       ??_7Fl_Menu_Bar@@6B@       00486224     fltk:Fl_Menu_Bar.obj
 0002:00002260       ??_7Fl_Valuator@@6B@       00486260     fltk:Fl_Valuator.obj
 0002:00002290       __real@3e0002fab692ca0a    00486290     fltk:Fl_Valuator.obj
 0002:0000229c       ??_7Fl_Value_Slider@@6B@   0048629c     fltk:Fl_Value_Slider.obj
 0002:000022cc       ??_7Fl_Hor_Value_Slider@@6B@ 004862cc     fltk:Fl_Value_Slider.obj
 0002:000022fc       ??_7Fl_Button@@6B@         004862fc     fltk:Fl_Button.obj
 0002:00002324       ??_7Fl_Radio_Button@@6B@   00486324     fltk:Fl_Button.obj
 0002:0000234c       ??_7Fl_Toggle_Button@@6B@  0048634c     fltk:Fl_Button.obj
 0002:00002370       __real@3fc3333333333333    00486370     fltk:Fl_Button.obj
 0002:0000239c       ??_7Fl_Light_Button@@6B@   0048639c     fltk:Fl_Light_Button.obj
 0002:000023c4       ??_7Fl_Radio_Light_Button@@6B@ 004863c4     fltk:Fl_Light_Button.obj
 0002:000023e8       __real@3e4ccccd            004863e8     fltk:Fl_Light_Button.obj
 0002:000023ec       __real@3f000000            004863ec     fltk:Fl_Light_Button.obj
 0002:000023f0       __real@404e000000000000    004863f0     fltk:Fl_Light_Button.obj
 0002:000023f8       __real@4066800000000000    004863f8     fltk:Fl_Light_Button.obj
 0002:00002400       __real@4076800000000000    00486400     fltk:Fl_Light_Button.obj
 0002:000028b8       __real@00000000            004868b8     fltk:screen_xywh.obj
 0002:000028c0       ??_7Fl_Widget@@6B@         004868c0     fltk:Fl_Widget.obj
 0002:000028e4       __real@437f0000            004868e4     fltk:Fl_Image.obj
 0002:000028e8       __real@43800000            004868e8     fltk:Fl_Image.obj
 0002:000028f0       ??_7Fl_TooltipBox@@6B@     004868f0     fltk:Fl_Tooltip.obj
 0002:00002918       __real@3ea8f5c3            00486918     fltk:fl_color.obj
 0002:00002938       ??_7Fl_Double_Window@@6B@  00486938     fltk:Fl_Double_Window.obj
 0002:00002964       ??_7Fl_Overlay_Window@@6B@ 00486964     fltk:Fl_Double_Window.obj
 0002:00002c78       ??_7Fl_Preferences@@6B@    00486c78     fltk:Fl_Preferences.obj
 0002:00002c80       ??_7Fl_Plugin@@6B@         00486c80     fltk:Fl_Preferences.obj
 0002:00002c88       ??_7Fl_Plugin_Manager@@6B@ 00486c88     fltk:Fl_Preferences.obj
 0002:00002d10       ?m0@Fl_Graphics_Driver@@0Umatrix@1@B 00486d10     fltk:Fl_Device.obj
 0002:00002d44       ??_7Fl_Display_Device@@6B@ 00486d44     fltk:Fl_Device.obj
 0002:00002e50       __real@4056800000000000    00486e50     fltk:fl_vertex.obj
 0002:00002e58       __real@4070e00000000000    00486e58     fltk:fl_vertex.obj
 0002:00002e60       __real@c056800000000000    00486e60     fltk:fl_vertex.obj
 0002:00002e68       __real@4018000000000000    00486e68     fltk:fl_curve.obj
 0002:00002e70       __real@3f91df46a2529d39    00486e70     fltk:fl_arc.obj
 0002:00002e78       __real@3fc0000000000000    00486e78     fltk:fl_arc.obj
 0002:00003098       ??_7Fl_Pixmap@@6B@         00487098     fltk:Fl_Pixmap.obj
 0002:000030e0       ??_7Fl_Bitmap@@6B@         004870e0     fltk:Fl_Bitmap.obj
 0002:000044d0       __real@3fe7a6f4de9bd37a    004884d0     fltk:Fl_get_system_colors.obj
 0002:000044d8       __real@4037000000000000    004884d8     fltk:Fl_get_system_colors.obj
 0002:000044f4       ??_7FLDropTarget@@6B@      004884f4     fltk:fl_dnd.obj
 0002:00004518       ??_7FLDropSource@@6B@      00488518     fltk:fl_dnd.obj
 0002:00004534       ??_7FLDataObject@@6B@      00488534     fltk:fl_dnd.obj
 0002:000046a4       ??_7Fl_Box@@6B@            004886a4     fltk:Fl_Box.obj
 0002:000046cc       ??_7Fl_Return_Button@@6B@  004886cc     fltk:Fl_Return_Button.obj
 0002:00004704       ??_7Fl_Input_@@6B@         00488704     fltk:Fl_Input_.obj
 0002:00004728       __real@40000000            00488728     fltk:Fl_Input_.obj
 0002:0000472c       __real@40200000            0048872c     fltk:Fl_Input_.obj
 0002:00004730       __real@40400000            00488730     fltk:Fl_Input_.obj
 0002:00004734       __real@40600000            00488734     fltk:Fl_Input_.obj
 0002:00004748       ??_7Fl_Input@@6B@          00488748     fltk:Fl_Input.obj
 0002:00004770       ??_7Fl_Float_Input@@6B@    00488770     fltk:Fl_Input.obj
 0002:00004798       ??_7Fl_Int_Input@@6B@      00488798     fltk:Fl_Input.obj
 0002:000047c0       ??_7Fl_Multiline_Input@@6B@ 004887c0     fltk:Fl_Input.obj
 0002:000047e8       ??_7Fl_Output@@6B@         004887e8     fltk:Fl_Input.obj
 0002:00004810       ??_7Fl_Multiline_Output@@6B@ 00488810     fltk:Fl_Input.obj
 0002:00004838       ??_7Fl_Secret_Input@@6B@   00488838     fltk:Fl_Input.obj
 0002:000048d8       ??_7Fl_Menu_Button@@6B@    004888d8     fltk:Fl_Menu_Button.obj
 0002:00004900       ??_7Fl_Repeat_Button@@6B@  00488900     fltk:Fl_Repeat_Button.obj
 0002:00004940       ??_7menutitle@@6B@         00488940     fltk:Fl_Menu.obj
 0002:0000496c       ??_7menuwindow@@6B@        0048896c     fltk:Fl_Menu.obj
 0002:000049a0       ??_7Fl_Slider@@6B@         004889a0     fltk:Fl_Slider.obj
 0002:000049d0       ??_7Fl_Fill_Slider@@6B@    004889d0     fltk:Fl_Slider.obj
 0002:00004a00       ??_7Fl_Hor_Slider@@6B@     00488a00     fltk:Fl_Slider.obj
 0002:00004a30       ??_7Fl_Hor_Fill_Slider@@6B@ 00488a30     fltk:Fl_Slider.obj
 0002:00004a60       ??_7Fl_Hor_Nice_Slider@@6B@ 00488a60     fltk:Fl_Slider.obj
 0002:00004a90       ??_7Fl_Nice_Slider@@6B@    00488a90     fltk:Fl_Slider.obj
 0002:00004abc       __real@3f2b851f            00488abc     fltk:Fl_Slider.obj
 0002:00004d80       ??_7Fl_Menu_Window@@6B@    00488d80     fltk:Fl_Menu_Window.obj
 0002:00004e24       __real@3f400000            00488e24     fltk:fl_plastic.obj
 0002:00004e28       __real@4046800000000000    00488e28     fltk:fl_plastic.obj
 0002:00004e30       __real@4060e00000000000    00488e30     fltk:fl_plastic.obj
 0002:00004e38       __real@406c200000000000    00488e38     fltk:fl_plastic.obj
 0002:00004e40       __real@4073b00000000000    00488e40     fltk:fl_plastic.obj
 0002:00004e48       __real@4079500000000000    00488e48     fltk:fl_plastic.obj
 0002:00004e50       __real@3ccccccd            00488e50     fltk:fl_gtk.obj
 0002:00004e54       __real@3d4ccccd            00488e54     fltk:fl_gtk.obj
 0002:00004e58       __real@3dcccccd            00488e58     fltk:fl_gtk.obj
 0002:00004e5c       __real@3ecccccd            00488e5c     fltk:fl_gtk.obj
 0002:00004e60       __real@3f19999a            00488e60     fltk:fl_gtk.obj
 0002:00004e64       __real@3e19999a            00488e64     fltk:fl_gleam.obj
 0002:00004e68       __real@3e800000            00488e68     fltk:fl_gleam.obj
 0002:00004e6c       __real@3eb33333            00488e6c     fltk:fl_gleam.obj
 0002:00004e70       __real@3ee66666            00488e70     fltk:fl_gleam.obj
 0002:00004e74       __real@3f0ccccd            00488e74     fltk:fl_gleam.obj
 0002:00004e78       __real@3f266666            00488e78     fltk:fl_gleam.obj
 0002:00004e7c       __real@3f59999a            00488e7c     fltk:fl_gleam.obj
 0002:00004e80       __real@3f733333            00488e80     fltk:fl_gleam.obj
 0002:00004e88       __real@3feff7ced916872b    00488e88     fltk:fl_gleam.obj
 0002:00004e94       ??_7Fl_Tiled_Image@@6B@    00488e94     fltk:Fl_Tiled_Image.obj
 0002:000078c8       __real@3f8eb851eb851eb8    0048b8c8     fltk:fl_symbols.obj
 0002:000078d0       __real@3fc0a3d70a3d70a4    0048b8d0     fltk:fl_symbols.obj
 0002:000078d8       __real@3fd3333333333333    0048b8d8     fltk:fl_symbols.obj
 0002:000078e0       __real@3fd6666666666666    0048b8e0     fltk:fl_symbols.obj
 0002:000078e8       __real@3fd999999999999a    0048b8e8     fltk:fl_symbols.obj
 0002:000078f0       __real@3fe3333333333333    0048b8f0     fltk:fl_symbols.obj
 0002:000078f8       __real@3fe4cccccccccccd    0048b8f8     fltk:fl_symbols.obj
 0002:00007900       __real@3fe6666666666666    0048b900     fltk:fl_symbols.obj
 0002:00007908       __real@3fe75c28f5c28f5c    0048b908     fltk:fl_symbols.obj
 0002:00007910       __real@3fe999999999999a    0048b910     fltk:fl_symbols.obj
 0002:00007918       __real@3feb333333333333    0048b918     fltk:fl_symbols.obj
 0002:00007920       __real@3feccccccccccccd    0048b920     fltk:fl_symbols.obj
 0002:00007928       __real@3fee666666666666    0048b928     fltk:fl_symbols.obj
 0002:00007930       __real@3ff199999999999a    0048b930     fltk:fl_symbols.obj
 0002:00007938       __real@3ff4cccccccccccd    0048b938     fltk:fl_symbols.obj
 0002:00007940       __real@3ff6e147ae147ae1    0048b940     fltk:fl_symbols.obj
 0002:00007948       __real@3ffb333333333333    0048b948     fltk:fl_symbols.obj
 0002:00007950       __real@4061800000000000    0048b950     fltk:fl_symbols.obj
 0002:00007958       __real@40a00000            0048b958     fltk:fl_symbols.obj
 0002:0000795c       __real@40c00000            0048b95c     fltk:fl_symbols.obj
 0002:00007960       __real@41200000            0048b960     fltk:fl_symbols.obj
 0002:00007968       __real@bfb999999999999a    0048b968     fltk:fl_symbols.obj
 0002:00007970       __real@bfc0a3d70a3d70a4    0048b970     fltk:fl_symbols.obj
 0002:00007978       __real@bfc3333333333333    0048b978     fltk:fl_symbols.obj
 0002:00007980       __real@bfc999999999999a    0048b980     fltk:fl_symbols.obj
 0002:00007988       __real@bfd0000000000000    0048b988     fltk:fl_symbols.obj
 0002:00007990       __real@bfd3333333333333    0048b990     fltk:fl_symbols.obj
 0002:00007998       __real@bfd6666666666666    0048b998     fltk:fl_symbols.obj
 0002:000079a0       __real@bfd999999999999a    0048b9a0     fltk:fl_symbols.obj
 0002:000079a8       __real@bfe3333333333333    0048b9a8     fltk:fl_symbols.obj
 0002:000079b0       __real@bfe4cccccccccccd    0048b9b0     fltk:fl_symbols.obj
 0002:000079b8       __real@bfe6666666666666    0048b9b8     fltk:fl_symbols.obj
 0002:000079c0       __real@bfe75c28f5c28f5c    0048b9c0     fltk:fl_symbols.obj
 0002:000079c8       __real@bfe999999999999a    0048b9c8     fltk:fl_symbols.obj
 0002:000079d0       __real@bfeccccccccccccd    0048b9d0     fltk:fl_symbols.obj
 0002:000079d8       __real@bfee666666666666    0048b9d8     fltk:fl_symbols.obj
 0002:000079e0       __real@bff3333333333333    0048b9e0     fltk:fl_symbols.obj
 0002:000079e8       __real@bffccccccccccccd    0048b9e8     fltk:fl_symbols.obj
 0002:000079f0       __real@c000000000000000    0048b9f0     fltk:fl_symbols.obj
 0002:000079f8       __real@c060e00000000000    0048b9f8     fltk:fl_symbols.obj
 0002:00007a00       __real@c066800000000000    0048ba00     fltk:fl_symbols.obj
 0002:00007a14       ??_7Fl_Choice@@6B@         0048ba14     fltk:Fl_Choice.obj
 0002:00007a3c       ??_7Fl_Tile@@6B@           0048ba3c     fltk:Fl_Tile.obj
 0002:00007a64       ??_7Fl_Browser_@@6B@       0048ba64     fltk:Fl_Browser_.obj
 0002:00007af4       ??_7Fl_Browser@@6B@        0048baf4     fltk:Fl_File_Browser.obj
 0002:00007b5c       ??_7Fl_File_Browser@@6B@   0048bb5c     fltk:Fl_File_Browser.obj
 0002:00007bc4       ??_7Fl_Check_Button@@6B@   0048bbc4     fltk:Fl_Check_Button.obj
 0002:00007bec       ??_7Fl_File_Input@@6B@     0048bbec     fltk:Fl_File_Input.obj
 0002:00007c18       ??_7Fl_Hold_Browser@@6B@   0048bc18     fltk:Fl_Browser.obj
 0002:00007c80       ??_7Fl_Multi_Browser@@6B@  0048bc80     fltk:Fl_Browser.obj
 0002:00007ce8       ??_7Fl_Select_Browser@@6B@ 0048bce8     fltk:Fl_Browser.obj
 0002:00007d50       __real@3f1a36e2eb1c432d    0048bd50     fltk:Fl_File_Icon.obj
 0002:00007d80       ??_7Fl_Shared_Image@@6B@   0048bd80     fltk:Fl_Shared_Image.obj
 0002:00007da4       ??_7Fl_Single_Window@@6B@  0048bda4     fltk:Fl_Single_Window.obj
 0002:00007de0       ??_7Fl_Scrollbar@@6B@      0048bde0     fltk:Fl_Scrollbar.obj
 0002:00007e10       __real@3fa999999999999a    0048be10     fltk:Fl_Scrollbar.obj
 0002:00007e40       ??_7Fl_XBM_Image@@6B@      0048be40     fltk:Fl_XBM_Image.obj
 0002:00007e74       ??_7Fl_XPM_Image@@6B@      0048be74     fltk:Fl_XPM_Image.obj
 0002:00007f34       ??_7Fl_Device_Plugin@@6B@  0048bf34     fltkgl:Fl_Gl_Device_Plugin.obj
 0002:00007f44       ??_C@_0M@GJHFDAML@fltk?3device?$AA@ 0048bf44     fltkgl:Fl_Gl_Device_Plugin.obj
 0002:00007f54       ??_7Fl_Gl_Device_Plugin@@6B@ 0048bf54     fltkgl:Fl_Gl_Device_Plugin.obj
 0002:00007f64       ??_C@_0BH@OACKAEDA@opengl?4device?4fltk?4org?$AA@ 0048bf64     fltkgl:Fl_Gl_Device_Plugin.obj
 0002:00007f7c       _IID_AsyncIUnknown         0048bf7c     uuid:unknwn_i.obj
 0002:00007f8c       _IID_IUnknown              0048bf8c     uuid:unknwn_i.obj
 0002:00007f9c       _IID_IClassFactory         0048bf9c     uuid:unknwn_i.obj
 0002:00007fac       _IID_IRpcChannelBuffer2    0048bfac     uuid:objidl_i.obj
 0002:00007fbc       _IID_AsyncIPipeDouble      0048bfbc     uuid:objidl_i.obj
 0002:00007fcc       _IID_AsyncIMultiQI         0048bfcc     uuid:objidl_i.obj
 0002:00007fdc       _IID_IContext              0048bfdc     uuid:objidl_i.obj
 0002:00007fec       _IID_IStream               0048bfec     uuid:objidl_i.obj
 0002:00007ffc       _IID_IGlobalOptions        0048bffc     uuid:objidl_i.obj
 0002:0000800c       _IID_IAsyncManager         0048c00c     uuid:objidl_i.obj
 0002:0000801c       _IID_IPersistStorage       0048c01c     uuid:objidl_i.obj
 0002:0000802c       _IID_IMultiQI              0048c02c     uuid:objidl_i.obj
 0002:0000803c       _IID_IRpcChannelBuffer3    0048c03c     uuid:objidl_i.obj
 0002:0000804c       _IID_IServerSecurity       0048c04c     uuid:objidl_i.obj
 0002:0000805c       _IID_AsyncIAdviseSink2     0048c05c     uuid:objidl_i.obj
 0002:0000806c       _IID_ILockBytes            0048c06c     uuid:objidl_i.obj
 0002:0000807c       _IID_AsyncIAdviseSink      0048c07c     uuid:objidl_i.obj
 0002:0000808c       _IID_IProgressNotify       0048c08c     uuid:objidl_i.obj
 0002:0000809c       _IID_IObjContext           0048c09c     uuid:objidl_i.obj
 0002:000080ac       _IID_IComThreadingInfo     0048c0ac     uuid:objidl_i.obj
 0002:000080bc       _IID_IRootStorage          0048c0bc     uuid:objidl_i.obj
 0002:000080cc       _IID_IMarshal2             0048c0cc     uuid:objidl_i.obj
 0002:000080dc       _IID_IMessageFilter        0048c0dc     uuid:objidl_i.obj
 0002:000080ec       _IID_ICancelMethodCalls    0048c0ec     uuid:objidl_i.obj
 0002:000080fc       _IID_IAddrExclusionControl 0048c0fc     uuid:objidl_i.obj
 0002:0000810c       _IID_IUrlMon               0048c10c     uuid:objidl_i.obj
 0002:0000811c       _IID_ISynchronizeMutex     0048c11c     uuid:objidl_i.obj
 0002:0000812c       _IID_IRunnableObject       0048c12c     uuid:objidl_i.obj
 0002:0000813c       _IID_ISurrogate            0048c13c     uuid:objidl_i.obj
 0002:0000814c       _IID_ISynchronizeContainer 0048c14c     uuid:objidl_i.obj
 0002:0000815c       _IID_IROTData              0048c15c     uuid:objidl_i.obj
 0002:0000816c       _IID_IFastRundown          0048c16c     uuid:objidl_i.obj
 0002:0000817c       _IID_IEnumMoniker          0048c17c     uuid:objidl_i.obj
 0002:0000818c       _IID_IPipeLong             0048c18c     uuid:objidl_i.obj
 0002:0000819c       _IID_ISynchronize          0048c19c     uuid:objidl_i.obj
 0002:000081ac       _IID_IChannelHook          0048c1ac     uuid:objidl_i.obj
 0002:000081bc       _IID_IApartmentShutdown    0048c1bc     uuid:objidl_i.obj
 0002:000081cc       _IID_IDirectWriterLock     0048c1cc     uuid:objidl_i.obj
 0002:000081dc       _IID_IRpcStubBuffer        0048c1dc     uuid:objidl_i.obj
 0002:000081ec       _IID_IRpcProxyBuffer       0048c1ec     uuid:objidl_i.obj
 0002:000081fc       _IID_IMallocSpy            0048c1fc     uuid:objidl_i.obj
 0002:0000820c       _IID_IProcessInitControl   0048c20c     uuid:objidl_i.obj
 0002:0000821c       _IID_IEnumSTATDATA         0048c21c     uuid:objidl_i.obj
 0002:0000822c       _IID_IEnumFORMATETC        0048c22c     uuid:objidl_i.obj
 0002:0000823c       _IID_IClientSecurity       0048c23c     uuid:objidl_i.obj
 0002:0000824c       _IID_IMarshalingStream     0048c24c     uuid:objidl_i.obj
 0002:0000825c       _IID_ITimeAndNoticeControl 0048c25c     uuid:objidl_i.obj
 0002:0000826c       _IID_IDataObject           0048c26c     uuid:objidl_i.obj
 0002:0000827c       _IID_IInternalUnknown      0048c27c     uuid:objidl_i.obj
 0002:0000828c       _IID_IReleaseMarshalBuffers 0048c28c     uuid:objidl_i.obj
 0002:0000829c       _IID_IRpcOptions           0048c29c     uuid:objidl_i.obj
 0002:000082ac       _IID_IStdMarshalInfo       0048c2ac     uuid:objidl_i.obj
 0002:000082bc       _IID_ISynchronizeHandle    0048c2bc     uuid:objidl_i.obj
 0002:000082cc       _IID_IPipeDouble           0048c2cc     uuid:objidl_i.obj
 0002:000082dc       _IID_IEnumString           0048c2dc     uuid:objidl_i.obj
 0002:000082ec       _IID_IAgileReference       0048c2ec     uuid:objidl_i.obj
 0002:000082fc       _IID_IEnumUnknown          0048c2fc     uuid:objidl_i.obj
 0002:0000830c       _IID_IDummyHICONIncluder   0048c30c     uuid:objidl_i.obj
 0002:0000831c       _IID_IAdviseSink2          0048c31c     uuid:objidl_i.obj
 0002:0000832c       _IID_IForegroundTransfer   0048c32c     uuid:objidl_i.obj
 0002:0000833c       _IID_IBindCtx              0048c33c     uuid:objidl_i.obj
 0002:0000834c       _IID_ISynchronizeEvent     0048c34c     uuid:objidl_i.obj
 0002:0000835c       _IID_AsyncIPipeLong        0048c35c     uuid:objidl_i.obj
 0002:0000836c       _IID_IOplockStorage        0048c36c     uuid:objidl_i.obj
 0002:0000837c       _IID_IFillLockBytes        0048c37c     uuid:objidl_i.obj
 0002:0000838c       _IID_ILayoutStorage        0048c38c     uuid:objidl_i.obj
 0002:0000839c       _IID_IWaitMultiple         0048c39c     uuid:objidl_i.obj
 0002:000083ac       _IID_IStorage              0048c3ac     uuid:objidl_i.obj
 0002:000083bc       _IID_IRpcHelper            0048c3bc     uuid:objidl_i.obj
 0002:000083cc       _IID_IRpcChannelBuffer     0048c3cc     uuid:objidl_i.obj
 0002:000083dc       _IID_IAsyncRpcChannelBuffer 0048c3dc     uuid:objidl_i.obj
 0002:000083ec       _IID_IMalloc               0048c3ec     uuid:objidl_i.obj
 0002:000083fc       _IID_ISurrogateService     0048c3fc     uuid:objidl_i.obj
 0002:0000840c       _IID_IPSFactoryBuffer      0048c40c     uuid:objidl_i.obj
 0002:0000841c       _IID_IPipeByte             0048c41c     uuid:objidl_i.obj
 0002:0000842c       _IID_IExternalConnection   0048c42c     uuid:objidl_i.obj
 0002:0000843c       _IID_IActivationFilter     0048c43c     uuid:objidl_i.obj
 0002:0000844c       _IID_AsyncIPipeByte        0048c44c     uuid:objidl_i.obj
 0002:0000845c       _IID_INoMarshal            0048c45c     uuid:objidl_i.obj
 0002:0000846c       _IID_IAgileObject          0048c46c     uuid:objidl_i.obj
 0002:0000847c       _IID_IRunningObjectTable   0048c47c     uuid:objidl_i.obj
 0002:0000848c       _IID_IProcessLock          0048c48c     uuid:objidl_i.obj
 0002:0000849c       _IID_IInitializeSpy        0048c49c     uuid:objidl_i.obj
 0002:000084ac       _IID_IAddrTrackingControl  0048c4ac     uuid:objidl_i.obj
 0002:000084bc       _IID_IEnumSTATSTG          0048c4bc     uuid:objidl_i.obj
 0002:000084cc       _IID_IClassActivator       0048c4cc     uuid:objidl_i.obj
 0002:000084dc       _IID_IDataAdviseHolder     0048c4dc     uuid:objidl_i.obj
 0002:000084ec       _IID_IPersistStream        0048c4ec     uuid:objidl_i.obj
 0002:000084fc       _IID_ISequentialStream     0048c4fc     uuid:objidl_i.obj
 0002:0000850c       _IID_IAdviseSink           0048c50c     uuid:objidl_i.obj
 0002:0000851c       _IID_IGlobalInterfaceTable 0048c51c     uuid:objidl_i.obj
 0002:0000852c       _IID_ICallFactory          0048c52c     uuid:objidl_i.obj
 0002:0000853c       _IID_IBlockingLock         0048c53c     uuid:objidl_i.obj
 0002:0000854c       _IID_IPersistFile          0048c54c     uuid:objidl_i.obj
 0002:0000855c       _IID_IMoniker              0048c55c     uuid:objidl_i.obj
 0002:0000856c       _IID_IMarshal              0048c56c     uuid:objidl_i.obj
 0002:0000857c       _IID_IThumbnailExtractor   0048c57c     uuid:objidl_i.obj
 0002:0000858c       _IID_IRpcSyntaxNegotiate   0048c58c     uuid:objidl_i.obj
 0002:0000859c       _IID_IEnumContextProps     0048c59c     uuid:objidl_i.obj
 0002:000085ac       _IID_IPersist              0048c5ac     uuid:objidl_i.obj
 0002:000085bc       _IID_IOleCacheControl      0048c5bc     uuid:oleidl_i.obj
 0002:000085cc       _IID_IOleWindow            0048c5cc     uuid:oleidl_i.obj
 0002:000085dc       _IID_IOleInPlaceSite       0048c5dc     uuid:oleidl_i.obj
 0002:000085ec       _IID_IOleContainer         0048c5ec     uuid:oleidl_i.obj
 0002:000085fc       _IID_IOleInPlaceUIWindow   0048c5fc     uuid:oleidl_i.obj
 0002:0000860c       _IID_IDropSource           0048c60c     uuid:oleidl_i.obj
 0002:0000861c       _IID_IDropTarget           0048c61c     uuid:oleidl_i.obj
 0002:0000862c       _IID_IOleObject            0048c62c     uuid:oleidl_i.obj
 0002:0000863c       _IID_IOleAdviseHolder      0048c63c     uuid:oleidl_i.obj
 0002:0000864c       _IID_IDropSourceNotify     0048c64c     uuid:oleidl_i.obj
 0002:0000865c       _IID_IContinue             0048c65c     uuid:oleidl_i.obj
 0002:0000866c       _IID_IOleCache             0048c66c     uuid:oleidl_i.obj
 0002:0000867c       _IID_IOleClientSite        0048c67c     uuid:oleidl_i.obj
 0002:0000868c       _IID_IEnterpriseDropTarget 0048c68c     uuid:oleidl_i.obj
 0002:0000869c       _IID_IOleInPlaceObject     0048c69c     uuid:oleidl_i.obj
 0002:000086ac       _IID_IEnumOLEVERB          0048c6ac     uuid:oleidl_i.obj
 0002:000086bc       _IID_IViewObject2          0048c6bc     uuid:oleidl_i.obj
 0002:000086cc       _IID_IOleCache2            0048c6cc     uuid:oleidl_i.obj
 0002:000086dc       _IID_IOleLink              0048c6dc     uuid:oleidl_i.obj
 0002:000086ec       _IID_IParseDisplayName     0048c6ec     uuid:oleidl_i.obj
 0002:000086fc       _IID_IOleInPlaceActiveObject 0048c6fc     uuid:oleidl_i.obj
 0002:0000870c       _IID_IOleInPlaceFrame      0048c70c     uuid:oleidl_i.obj
 0002:0000871c       _IID_IOleItemContainer     0048c71c     uuid:oleidl_i.obj
 0002:0000872c       _IID_IViewObject           0048c72c     uuid:oleidl_i.obj
 0002:00008740       ??_7type_info@@6B@         0048c740     MSVCRT:std_type_info_static.obj
 0002:00008748       ??_C@_1EC@JIJBPKFM@?$AAa?$AAp?$AAi?$AA?9?$AAm?$AAs?$AA?9?$AAw?$AAi?$AAn?$AA?9?$AAc?$AAo?$AAr?$AAe?$AA?9?$AAs?$AAy?$AAn?$AAc?$AAh?$AA?9?$AAl?$AA1?$AA?9?$AA2?$AA?9?$AA0?$AA?4?$AAd?$AAl?$AAl@ 0048c748     MSVCRT:thread_safe_statics.obj
 0002:0000878c       ??_C@_1BK@MGMFAEKH@?$AAk?$AAe?$AAr?$AAn?$AAe?$AAl?$AA3?$AA2?$AA?4?$AAd?$AAl?$AAl?$AA?$AA@ 0048c78c     MSVCRT:thread_safe_statics.obj
 0002:000087a8       ??_C@_0BM@HLJJNPAH@InitializeConditionVariable?$AA@ 0048c7a8     MSVCRT:thread_safe_statics.obj
 0002:000087c4       ??_C@_0BJ@JEBJOJFJ@SleepConditionVariableCS?$AA@ 0048c7c4     MSVCRT:thread_safe_statics.obj
 0002:000087e0       ??_C@_0BJ@PGPPEPCC@WakeAllConditionVariable?$AA@ 0048c7e0     MSVCRT:thread_safe_statics.obj
 0002:00008898       ??_7bad_alloc@std@@6B@     0048c898     MSVCRT:throw_bad_alloc.obj
 0002:000088a0       ??_C@_0P@GHFPNOJB@bad?5allocation?$AA@ 0048c8a0     MSVCRT:throw_bad_alloc.obj
 0002:000088b4       ??_7bad_array_new_length@std@@6B@ 0048c8b4     MSVCRT:throw_bad_alloc.obj
 0002:000088bc       ??_C@_0BF@KINCDENJ@bad?5array?5new?5length?$AA@ 0048c8bc     MSVCRT:throw_bad_alloc.obj
 0002:00008938       __load_config_used         0048c938     MSVCRT:loadcfg.obj
 0002:000089a0       __tls_used                 0048c9a0     MSVCRT:tlssup.obj
 0002:000089b8       ??_R4Material@@6B@         0048c9b8     RayTracer.obj
 0002:000089cc       ??_R3Material@@8           0048c9cc     RayTracer.obj
 0002:000089dc       ??_R2Material@@8           0048c9dc     RayTracer.obj
 0002:000089e4       ??_R1A@?0A@EA@Material@@8  0048c9e4     RayTracer.obj
 0002:00008a00       ??_R4Fl_Gl_Window@@6B@     0048ca00     TraceGLWindow.obj
 0002:00008a14       ??_R3Fl_Gl_Window@@8       0048ca14     TraceGLWindow.obj
 0002:00008a24       ??_R2Fl_Gl_Window@@8       0048ca24     TraceGLWindow.obj
 0002:00008a38       ??_R1A@?0A@EA@Fl_Gl_Window@@8 0048ca38     TraceGLWindow.obj
 0002:00008a54       ??_R1A@?0A@EA@Fl_Window@@8 0048ca54     TraceGLWindow.obj
 0002:00008a70       ??_R3Fl_Window@@8          0048ca70     TraceGLWindow.obj
 0002:00008a80       ??_R2Fl_Window@@8          0048ca80     TraceGLWindow.obj
 0002:00008a90       ??_R1A@?0A@EA@Fl_Group@@8  0048ca90     TraceGLWindow.obj
 0002:00008aac       ??_R3Fl_Group@@8           0048caac     TraceGLWindow.obj
 0002:00008abc       ??_R2Fl_Group@@8           0048cabc     TraceGLWindow.obj
 0002:00008ac8       ??_R1A@?0A@EA@Fl_Widget@@8 0048cac8     TraceGLWindow.obj
 0002:00008ae4       ??_R3Fl_Widget@@8          0048cae4     TraceGLWindow.obj
 0002:00008af4       ??_R2Fl_Widget@@8          0048caf4     TraceGLWindow.obj
 0002:00008afc       ??_R4TraceGLWindow@@6B@    0048cafc     TraceGLWindow.obj
 0002:00008b10       ??_R3TraceGLWindow@@8      0048cb10     TraceGLWindow.obj
 0002:00008b20       ??_R2TraceGLWindow@@8      0048cb20     TraceGLWindow.obj
 0002:00008b38       ??_R1A@?0A@EA@TraceGLWindow@@8 0048cb38     TraceGLWindow.obj
 0002:00008b54       ??_R4exception@std@@6B@    0048cb54     TraceUI.obj
 0002:00008b68       ??_R3exception@std@@8      0048cb68     TraceUI.obj
 0002:00008b78       ??_R2exception@std@@8      0048cb78     TraceUI.obj
 0002:00008b80       ??_R1A@?0A@EA@exception@std@@8 0048cb80     TraceUI.obj
 0002:00008b9c       ??_R4runtime_error@std@@6B@ 0048cb9c     TraceUI.obj
 0002:00008bb0       ??_R3runtime_error@std@@8  0048cbb0     TraceUI.obj
 0002:00008bc0       ??_R2runtime_error@std@@8  0048cbc0     TraceUI.obj
 0002:00008bcc       ??_R1A@?0A@EA@runtime_error@std@@8 0048cbcc     TraceUI.obj
 0002:00008be8       ??_R4error_category@std@@6B@ 0048cbe8     TraceUI.obj
 0002:00008bfc       ??_R3error_category@std@@8 0048cbfc     TraceUI.obj
 0002:00008c0c       ??_R2error_category@std@@8 0048cc0c     TraceUI.obj
 0002:00008c14       ??_R1A@?0A@EA@error_category@std@@8 0048cc14     TraceUI.obj
 0002:00008c30       ??_R4_System_error@std@@6B@ 0048cc30     TraceUI.obj
 0002:00008c44       ??_R3_System_error@std@@8  0048cc44     TraceUI.obj
 0002:00008c54       ??_R2_System_error@std@@8  0048cc54     TraceUI.obj
 0002:00008c64       ??_R1A@?0A@EA@_System_error@std@@8 0048cc64     TraceUI.obj
 0002:00008c80       ??_R4system_error@std@@6B@ 0048cc80     TraceUI.obj
 0002:00008c94       ??_R3system_error@std@@8   0048cc94     TraceUI.obj
 0002:00008ca4       ??_R2system_error@std@@8   0048cca4     TraceUI.obj
 0002:00008cb8       ??_R1A@?0A@EA@system_error@std@@8 0048ccb8     TraceUI.obj
 0002:00008cd4       ??_R4_Generic_error_category@std@@6B@ 0048ccd4     TraceUI.obj
 0002:00008ce8       ??_R3_Generic_error_category@std@@8 0048cce8     TraceUI.obj
 0002:00008cf8       ??_R2_Generic_error_category@std@@8 0048ccf8     TraceUI.obj
 0002:00008d04       ??_R1A@?0A@EA@_Generic_error_category@std@@8 0048cd04     TraceUI.obj
 0002:00008d20       ??_R4_Ref_count_base@std@@6B@ 0048cd20     TraceUI.obj
 0002:00008d34       ??_R3_Ref_count_base@std@@8 0048cd34     TraceUI.obj
 0002:00008d44       ??_R2_Ref_count_base@std@@8 0048cd44     TraceUI.obj
 0002:00008d4c       ??_R1A@?0A@EA@_Ref_count_base@std@@8 0048cd4c     TraceUI.obj
 0002:00008d68       ??_R3scheduler_interface@Concurrency@@8 0048cd68     TraceUI.obj
 0002:00008d78       ??_R2scheduler_interface@Concurrency@@8 0048cd78     TraceUI.obj
 0002:00008d80       ??_R1A@?0A@EA@scheduler_interface@Concurrency@@8 0048cd80     TraceUI.obj
 0002:00008d9c       ??_R4invalid_operation@Concurrency@@6B@ 0048cd9c     TraceUI.obj
 0002:00008db0       ??_R3invalid_operation@Concurrency@@8 0048cdb0     TraceUI.obj
 0002:00008dc0       ??_R2invalid_operation@Concurrency@@8 0048cdc0     TraceUI.obj
 0002:00008dcc       ??_R1A@?0A@EA@invalid_operation@Concurrency@@8 0048cdcc     TraceUI.obj
 0002:00008de8       ??_R4_DefaultPPLTaskScheduler@details@Concurrency@@6B@ 0048cde8     TraceUI.obj
 0002:00008dfc       ??_R3_DefaultPPLTaskScheduler@details@Concurrency@@8 0048cdfc     TraceUI.obj
 0002:00008e0c       ??_R2_DefaultPPLTaskScheduler@details@Concurrency@@8 0048ce0c     TraceUI.obj
 0002:00008e18       ??_R1A@?0A@EA@_DefaultPPLTaskScheduler@details@Concurrency@@8 0048ce18     TraceUI.obj
 0002:00008e34       ??_R4_RefCounter@details@Concurrency@@6B@ 0048ce34     TraceUI.obj
 0002:00008e48       ??_R3_RefCounter@details@Concurrency@@8 0048ce48     TraceUI.obj
 0002:00008e58       ??_R2_RefCounter@details@Concurrency@@8 0048ce58     TraceUI.obj
 0002:00008e60       ??_R1A@?0A@EA@_RefCounter@details@Concurrency@@8 0048ce60     TraceUI.obj
 0002:00008e7c       ??_R4_CancellationTokenRegistration@details@Concurrency@@6B@ 0048ce7c     TraceUI.obj
 0002:00008e90       ??_R3_CancellationTokenRegistration@details@Concurrency@@8 0048ce90     TraceUI.obj
 0002:00008ea0       ??_R2_CancellationTokenRegistration@details@Concurrency@@8 0048cea0     TraceUI.obj
 0002:00008eac       ??_R1A@?0A@EA@_CancellationTokenRegistration@details@Concurrency@@8 0048ceac     TraceUI.obj
 0002:00008ec8       ??_R4_TaskProcHandle@details@Concurrency@@6B@ 0048cec8     TraceUI.obj
 0002:00008edc       ??_R3_TaskProcHandle@details@Concurrency@@8 0048cedc     TraceUI.obj
 0002:00008eec       ??_R2_TaskProcHandle@details@Concurrency@@8 0048ceec     TraceUI.obj
 0002:00008ef4       ??_R1A@?0A@EA@_TaskProcHandle@details@Concurrency@@8 0048cef4     TraceUI.obj
 0002:00008f10       ??_R4?$_Func_base@X$$V@std@@6B@ 0048cf10     TraceUI.obj
 0002:00008f24       ??_R3?$_Func_base@X$$V@std@@8 0048cf24     TraceUI.obj
 0002:00008f34       ??_R2?$_Func_base@X$$V@std@@8 0048cf34     TraceUI.obj
 0002:00008f3c       ??_R1A@?0A@EA@?$_Func_base@X$$V@std@@8 0048cf3c     TraceUI.obj
 0002:00008f58       ??_R4_Task_impl_base@details@Concurrency@@6B@ 0048cf58     TraceUI.obj
 0002:00008f6c       ??_R3_Task_impl_base@details@Concurrency@@8 0048cf6c     TraceUI.obj
 0002:00008f7c       ??_R2_Task_impl_base@details@Concurrency@@8 0048cf7c     TraceUI.obj
 0002:00008f84       ??_R1A@?0A@EA@_Task_impl_base@details@Concurrency@@8 0048cf84     TraceUI.obj
 0002:00008ff0       ??_R4?$_Func_base@E$$V@std@@6B@ 0048cff0     TraceUI.obj
 0002:00009004       ??_R3?$_Func_base@E$$V@std@@8 0048d004     TraceUI.obj
 0002:00009014       ??_R2?$_Func_base@E$$V@std@@8 0048d014     TraceUI.obj
 0002:0000901c       ??_R1A@?0A@EA@?$_Func_base@E$$V@std@@8 0048d01c     TraceUI.obj
 0002:00009038       ??_R4?$_Task_impl@E@details@Concurrency@@6B@ 0048d038     TraceUI.obj
 0002:0000904c       ??_R3?$_Task_impl@E@details@Concurrency@@8 0048d04c     TraceUI.obj
 0002:0000905c       ??_R2?$_Task_impl@E@details@Concurrency@@8 0048d05c     TraceUI.obj
 0002:00009068       ??_R1A@?0A@EA@?$_Task_impl@E@details@Concurrency@@8 0048d068     TraceUI.obj
 0002:00009084       ??_R4_Future_error_category@std@@6B@ 0048d084     TraceUI.obj
 0002:00009098       ??_R3_Future_error_category@std@@8 0048d098     TraceUI.obj
 0002:000090a8       ??_R2_Future_error_category@std@@8 0048d0a8     TraceUI.obj
 0002:000090b8       ??_R1A@?0A@EA@_Future_error_category@std@@8 0048d0b8     TraceUI.obj
 0002:000090d4       ??_R4?$_Associated_state@H@std@@6B@ 0048d0d4     TraceUI.obj
 0002:000090e8       ??_R3?$_Associated_state@H@std@@8 0048d0e8     TraceUI.obj
 0002:000090f8       ??_R2?$_Associated_state@H@std@@8 0048d0f8     TraceUI.obj
 0002:00009100       ??_R1A@?0A@EA@?$_Associated_state@H@std@@8 0048d100     TraceUI.obj
 0002:0000911c       ??_R4?$_Ref_count_obj@U_ExceptionHolder@details@Concurrency@@@std@@6B@ 0048d11c     TraceUI.obj
 0002:00009130       ??_R3?$_Ref_count_obj@U_ExceptionHolder@details@Concurrency@@@std@@8 0048d130     TraceUI.obj
 0002:00009140       ??_R2?$_Ref_count_obj@U_ExceptionHolder@details@Concurrency@@@std@@8 0048d140     TraceUI.obj
 0002:0000914c       ??_R1A@?0A@EA@?$_Ref_count_obj@U_ExceptionHolder@details@Concurrency@@@std@@8 0048d14c     TraceUI.obj
 0002:00009168       ??_R4?$_Ref_count_obj@U?$_Task_impl@E@details@Concurrency@@@std@@6B@ 0048d168     TraceUI.obj
 0002:0000917c       ??_R3?$_Ref_count_obj@U?$_Task_impl@E@details@Concurrency@@@std@@8 0048d17c     TraceUI.obj
 0002:0000918c       ??_R2?$_Ref_count_obj@U?$_Task_impl@E@details@Concurrency@@@std@@8 0048d18c     TraceUI.obj
 0002:00009198       ??_R1A@?0A@EA@?$_Ref_count_obj@U?$_Task_impl@E@details@Concurrency@@@std@@8 0048d198     TraceUI.obj
 0002:000091b4       ??_R4?$_Task_async_state@X$0A@@std@@6B@ 0048d1b4     TraceUI.obj
 0002:000091c8       ??_R3?$_Task_async_state@X$0A@@std@@8 0048d1c8     TraceUI.obj
 0002:000091d8       ??_R2?$_Task_async_state@X$0A@@std@@8 0048d1d8     TraceUI.obj
 0002:000091e8       ??_R1A@?0A@EA@?$_Task_async_state@X$0A@@std@@8 0048d1e8     TraceUI.obj
 0002:00009204       ??_R1A@?0A@EA@?$_Packaged_state@$$A6AXXZ@std@@8 0048d204     TraceUI.obj
 0002:00009220       ??_R3?$_Packaged_state@$$A6AXXZ@std@@8 0048d220     TraceUI.obj
 0002:00009230       ??_R2?$_Packaged_state@$$A6AXXZ@std@@8 0048d230     TraceUI.obj
 0002:0000923c       ??_R4?$_Packaged_state@$$A6AXXZ@std@@6B@ 0048d23c     TraceUI.obj
 0002:00009250       ??_R4?$_Deferred_async_state@X@std@@6B@ 0048d250     TraceUI.obj
 0002:00009264       ??_R3?$_Deferred_async_state@X@std@@8 0048d264     TraceUI.obj
 0002:00009274       ??_R2?$_Deferred_async_state@X@std@@8 0048d274     TraceUI.obj
 0002:00009284       ??_R1A@?0A@EA@?$_Deferred_async_state@X@std@@8 0048d284     TraceUI.obj
 0002:000092a0       ??_R4?$_Task_async_state@X$00@std@@6B@ 0048d2a0     TraceUI.obj
 0002:000092b4       ??_R3?$_Task_async_state@X$00@std@@8 0048d2b4     TraceUI.obj
 0002:000092c4       ??_R2?$_Task_async_state@X$00@std@@8 0048d2c4     TraceUI.obj
 0002:000092d4       ??_R1A@?0A@EA@?$_Task_async_state@X$00@std@@8 0048d2d4     TraceUI.obj
 0002:00009420       ??_R4?$_Func_impl@V?$_Fake_no_copy_callable_adapter@A6AXPAVTraceUI@@HHH@ZAAPAV1@HHAAH@std@@V?$allocator@H@2@X$$V@std@@6B@ 0048d420     TraceUI.obj
 0002:00009434       ??_R3?$_Func_impl@V?$_Fake_no_copy_callable_adapter@A6AXPAVTraceUI@@HHH@ZAAPAV1@HHAAH@std@@V?$allocator@H@2@X$$V@std@@8 0048d434     TraceUI.obj
 0002:00009444       ??_R2?$_Func_impl@V?$_Fake_no_copy_callable_adapter@A6AXPAVTraceUI@@HHH@ZAAPAV1@HHAAH@std@@V?$allocator@H@2@X$$V@std@@8 0048d444     TraceUI.obj
 0002:00009450       ??_R1A@?0A@EA@?$_Func_impl@V?$_Fake_no_copy_callable_adapter@A6AXPAVTraceUI@@HHH@ZAAPAV1@HHAAH@std@@V?$allocator@H@2@X$$V@std@@8 0048d450     TraceUI.obj
 0002:000095a4       ??_R4?$_Func_impl@V?$_Fake_no_copy_callable_adapter@A6AXPAVTraceUI@@HHH@ZAAPAV1@HAAHAAH@std@@V?$allocator@H@2@X$$V@std@@6B@ 0048d5a4     TraceUI.obj
 0002:000095b8       ??_R3?$_Func_impl@V?$_Fake_no_copy_callable_adapter@A6AXPAVTraceUI@@HHH@ZAAPAV1@HAAHAAH@std@@V?$allocator@H@2@X$$V@std@@8 0048d5b8     TraceUI.obj
 0002:000095c8       ??_R2?$_Func_impl@V?$_Fake_no_copy_callable_adapter@A6AXPAVTraceUI@@HHH@ZAAPAV1@HAAHAAH@std@@V?$allocator@H@2@X$$V@std@@8 0048d5c8     TraceUI.obj
 0002:000095d4       ??_R1A@?0A@EA@?$_Func_impl@V?$_Fake_no_copy_callable_adapter@A6AXPAVTraceUI@@HHH@ZAAPAV1@HAAHAAH@std@@V?$allocator@H@2@X$$V@std@@8 0048d5d4     TraceUI.obj
 0002:00009858       ??_R4Obj@@6B@              0048d858     parse.obj
 0002:0000986c       ??_R3Obj@@8                0048d86c     parse.obj
 0002:0000987c       ??_R2Obj@@8                0048d87c     parse.obj
 0002:00009884       ??_R1A@?0A@EA@Obj@@8       0048d884     parse.obj
 0002:000098a0       ??_R4ScalarObj@@6B@        0048d8a0     parse.obj
 0002:000098b4       ??_R3ScalarObj@@8          0048d8b4     parse.obj
 0002:000098c4       ??_R2ScalarObj@@8          0048d8c4     parse.obj
 0002:000098d0       ??_R1A@?0A@EA@ScalarObj@@8 0048d8d0     parse.obj
 0002:000098ec       ??_R4BooleanObj@@6B@       0048d8ec     parse.obj
 0002:00009900       ??_R3BooleanObj@@8         0048d900     parse.obj
 0002:00009910       ??_R2BooleanObj@@8         0048d910     parse.obj
 0002:0000991c       ??_R1A@?0A@EA@BooleanObj@@8 0048d91c     parse.obj
 0002:00009938       ??_R4IdObj@@6B@            0048d938     parse.obj
 0002:0000994c       ??_R3IdObj@@8              0048d94c     parse.obj
 0002:0000995c       ??_R2IdObj@@8              0048d95c     parse.obj
 0002:00009968       ??_R1A@?0A@EA@IdObj@@8     0048d968     parse.obj
 0002:00009984       ??_R4StringObj@@6B@        0048d984     parse.obj
 0002:00009998       ??_R3StringObj@@8          0048d998     parse.obj
 0002:000099a8       ??_R2StringObj@@8          0048d9a8     parse.obj
 0002:000099b4       ??_R1A@?0A@EA@StringObj@@8 0048d9b4     parse.obj
 0002:000099d0       ??_R4TupleObj@@6B@         0048d9d0     parse.obj
 0002:000099e4       ??_R3TupleObj@@8           0048d9e4     parse.obj
 0002:000099f4       ??_R2TupleObj@@8           0048d9f4     parse.obj
 0002:00009a00       ??_R1A@?0A@EA@TupleObj@@8  0048da00     parse.obj
 0002:00009a1c       ??_R4DictObj@@6B@          0048da1c     parse.obj
 0002:00009a30       ??_R3DictObj@@8            0048da30     parse.obj
 0002:00009a40       ??_R2DictObj@@8            0048da40     parse.obj
 0002:00009a4c       ??_R1A@?0A@EA@DictObj@@8   0048da4c     parse.obj
 0002:00009a68       ??_R4NamedObj@@6B@         0048da68     parse.obj
 0002:00009a7c       ??_R3NamedObj@@8           0048da7c     parse.obj
 0002:00009a8c       ??_R2NamedObj@@8           0048da8c     parse.obj
 0002:00009a98       ??_R1A@?0A@EA@NamedObj@@8  0048da98     parse.obj
 0002:00009ab4       ??_R4?$basic_filebuf@DU?$char_traits@D@std@@@std@@6B@ 0048dab4     read.obj
 0002:00009ac8       ??_R3?$basic_filebuf@DU?$char_traits@D@std@@@std@@8 0048dac8     read.obj
 0002:00009ad8       ??_R2?$basic_filebuf@DU?$char_traits@D@std@@@std@@8 0048dad8     read.obj
 0002:00009ae4       ??_R1A@?0A@EA@?$basic_filebuf@DU?$char_traits@D@std@@@std@@8 0048dae4     read.obj
 0002:00009b00       ??_R1A@?0A@EA@?$basic_streambuf@DU?$char_traits@D@std@@@std@@8 0048db00     read.obj
 0002:00009b1c       ??_R3?$basic_streambuf@DU?$char_traits@D@std@@@std@@8 0048db1c     read.obj
 0002:00009b2c       ??_R2?$basic_streambuf@DU?$char_traits@D@std@@@std@@8 0048db2c     read.obj
 0002:00009b34       ??_R4?$basic_ifstream@DU?$char_traits@D@std@@@std@@6B@ 0048db34     read.obj
 0002:00009b48       ??_R3?$basic_ifstream@DU?$char_traits@D@std@@@std@@8 0048db48     read.obj
 0002:00009b58       ??_R2?$basic_ifstream@DU?$char_traits@D@std@@@std@@8 0048db58     read.obj
 0002:00009b70       ??_R1A@?0A@EA@?$basic_ifstream@DU?$char_traits@D@std@@@std@@8 0048db70     read.obj
 0002:00009b8c       ??_R1A@?0A@EA@?$basic_istream@DU?$char_traits@D@std@@@std@@8 0048db8c     read.obj
 0002:00009ba8       ??_R3?$basic_istream@DU?$char_traits@D@std@@@std@@8 0048dba8     read.obj
 0002:00009bb8       ??_R2?$basic_istream@DU?$char_traits@D@std@@@std@@8 0048dbb8     read.obj
 0002:00009bcc       ??_R1A@A@3FA@?$basic_ios@DU?$char_traits@D@std@@@std@@8 0048dbcc     read.obj
 0002:00009be8       ??_R3?$basic_ios@DU?$char_traits@D@std@@@std@@8 0048dbe8     read.obj
 0002:00009bf8       ??_R2?$basic_ios@DU?$char_traits@D@std@@@std@@8 0048dbf8     read.obj
 0002:00009c08       ??_R1A@?0A@EA@?$basic_ios@DU?$char_traits@D@std@@@std@@8 0048dc08     read.obj
 0002:00009c24       ??_R1A@?0A@EA@ios_base@std@@8 0048dc24     read.obj
 0002:00009c40       ??_R3ios_base@std@@8       0048dc40     read.obj
 0002:00009c50       ??_R2ios_base@std@@8       0048dc50     read.obj
 0002:00009c5c       ??_R17?0A@EA@?$_Iosb@H@std@@8 0048dc5c     read.obj
 0002:00009c78       ??_R3?$_Iosb@H@std@@8      0048dc78     read.obj
 0002:00009c88       ??_R2?$_Iosb@H@std@@8      0048dc88     read.obj
 0002:00009c90       ??_R1A@?0A@EA@?$_Iosb@H@std@@8 0048dc90     read.obj
 0002:00009cac       ??_R1A@A@3EA@ios_base@std@@8 0048dcac     read.obj
 0002:00009cc8       ??_R17A@3EA@?$_Iosb@H@std@@8 0048dcc8     read.obj
 0002:00009ce4       ??_R4bad_cast@std@@6B@     0048dce4     read.obj
 0002:00009cf8       ??_R3bad_cast@std@@8       0048dcf8     read.obj
 0002:00009d08       ??_R2bad_cast@std@@8       0048dd08     read.obj
 0002:00009d14       ??_R1A@?0A@EA@bad_cast@std@@8 0048dd14     read.obj
 0002:00009d30       ??_R4strstreambuf@std@@6B@ 0048dd30     read.obj
 0002:00009d44       ??_R3strstreambuf@std@@8   0048dd44     read.obj
 0002:00009d54       ??_R2strstreambuf@std@@8   0048dd54     read.obj
 0002:00009d60       ??_R1A@?0A@EA@strstreambuf@std@@8 0048dd60     read.obj
 0002:00009d7c       ??_R4ostrstream@std@@6B@   0048dd7c     read.obj
 0002:00009d90       ??_R3ostrstream@std@@8     0048dd90     read.obj
 0002:00009da0       ??_R2ostrstream@std@@8     0048dda0     read.obj
 0002:00009db8       ??_R1A@?0A@EA@ostrstream@std@@8 0048ddb8     read.obj
 0002:00009dd4       ??_R1A@?0A@EA@?$basic_ostream@DU?$char_traits@D@std@@@std@@8 0048ddd4     read.obj
 0002:00009df0       ??_R3?$basic_ostream@DU?$char_traits@D@std@@@std@@8 0048ddf0     read.obj
 0002:00009e00       ??_R2?$basic_ostream@DU?$char_traits@D@std@@@std@@8 0048de00     read.obj
 0002:00009e14       ??_R4Scene@@6B@            0048de14     read.obj
 0002:00009e28       ??_R3Scene@@8              0048de28     read.obj
 0002:00009e38       ??_R2Scene@@8              0048de38     read.obj
 0002:00009e40       ??_R1A@?0A@EA@Scene@@8     0048de40     read.obj
 0002:00009e5c       ??_R4SceneObject@@6B@      0048de5c     read.obj
 0002:00009e70       ??_R3SceneObject@@8        0048de70     read.obj
 0002:00009e80       ??_R2SceneObject@@8        0048de80     read.obj
 0002:00009e90       ??_R1A@?0A@EA@SceneObject@@8 0048de90     read.obj
 0002:00009eac       ??_R1A@?0A@EA@Geometry@@8  0048deac     read.obj
 0002:00009ec8       ??_R3Geometry@@8           0048dec8     read.obj
 0002:00009ed8       ??_R2Geometry@@8           0048ded8     read.obj
 0002:00009ee4       ??_R1A@?0A@EA@SceneElement@@8 0048dee4     read.obj
 0002:00009f00       ??_R3SceneElement@@8       0048df00     read.obj
 0002:00009f10       ??_R2SceneElement@@8       0048df10     read.obj
 0002:00009f18       ??_R4Light@@6B@            0048df18     read.obj
 0002:00009f2c       ??_R3Light@@8              0048df2c     read.obj
 0002:00009f3c       ??_R2Light@@8              0048df3c     read.obj
 0002:00009f48       ??_R1A@?0A@EA@Light@@8     0048df48     read.obj
 0002:00009f64       ??_R4SceneElement@@6B@     0048df64     read.obj
 0002:00009f78       ??_R4Geometry@@6B@         0048df78     read.obj
 0002:00009f8c       ??_R4MaterialSceneObject@@6B@ 0048df8c     read.obj
 0002:00009fa0       ??_R3MaterialSceneObject@@8 0048dfa0     read.obj
 0002:00009fb0       ??_R2MaterialSceneObject@@8 0048dfb0     read.obj
 0002:00009fc4       ??_R1A@?0A@EA@MaterialSceneObject@@8 0048dfc4     read.obj
 0002:00009fe0       ??_R4Trimesh@@6B@          0048dfe0     read.obj
 0002:00009ff4       ??_R3Trimesh@@8            0048dff4     read.obj
 0002:0000a004       ??_R2Trimesh@@8            0048e004     read.obj
 0002:0000a01c       ??_R1A@?0A@EA@Trimesh@@8   0048e01c     read.obj
 0002:0000a038       ??_R4Box@@6B@              0048e038     read.obj
 0002:0000a04c       ??_R3Box@@8                0048e04c     read.obj
 0002:0000a05c       ??_R2Box@@8                0048e05c     read.obj
 0002:0000a074       ??_R1A@?0A@EA@Box@@8       0048e074     read.obj
 0002:0000a090       ??_R4Cone@@6B@             0048e090     read.obj
 0002:0000a0a4       ??_R3Cone@@8               0048e0a4     read.obj
 0002:0000a0b4       ??_R2Cone@@8               0048e0b4     read.obj
 0002:0000a0cc       ??_R1A@?0A@EA@Cone@@8      0048e0cc     read.obj
 0002:0000a0e8       ??_R4Cylinder@@6B@         0048e0e8     read.obj
 0002:0000a0fc       ??_R3Cylinder@@8           0048e0fc     read.obj
 0002:0000a10c       ??_R2Cylinder@@8           0048e10c     read.obj
 0002:0000a124       ??_R1A@?0A@EA@Cylinder@@8  0048e124     read.obj
 0002:0000a140       ??_R4Sphere@@6B@           0048e140     read.obj
 0002:0000a154       ??_R3Sphere@@8             0048e154     read.obj
 0002:0000a164       ??_R2Sphere@@8             0048e164     read.obj
 0002:0000a17c       ??_R1A@?0A@EA@Sphere@@8    0048e17c     read.obj
 0002:0000a198       ??_R4Square@@6B@           0048e198     read.obj
 0002:0000a1ac       ??_R3Square@@8             0048e1ac     read.obj
 0002:0000a1bc       ??_R2Square@@8             0048e1bc     read.obj
 0002:0000a1d4       ??_R1A@?0A@EA@Square@@8    0048e1d4     read.obj
 0002:0000a1f0       ??_R4DirectionalLight@@6B@ 0048e1f0     read.obj
 0002:0000a204       ??_R3DirectionalLight@@8   0048e204     read.obj
 0002:0000a214       ??_R2DirectionalLight@@8   0048e214     read.obj
 0002:0000a224       ??_R1A@?0A@EA@DirectionalLight@@8 0048e224     read.obj
 0002:0000a240       ??_R4PointLight@@6B@       0048e240     light.obj
 0002:0000a254       ??_R3PointLight@@8         0048e254     light.obj
 0002:0000a264       ??_R2PointLight@@8         0048e264     light.obj
 0002:0000a274       ??_R1A@?0A@EA@PointLight@@8 0048e274     light.obj
 0002:0000a290       ??_R4TrimeshFace@@6B@      0048e290     trimesh.obj
 0002:0000a2a4       ??_R3TrimeshFace@@8        0048e2a4     trimesh.obj
 0002:0000a2b4       ??_R2TrimeshFace@@8        0048e2b4     trimesh.obj
 0002:0000a2cc       ??_R1A@?0A@EA@TrimeshFace@@8 0048e2cc     trimesh.obj
 0002:0000a2e8       ??_R4Fl_Image@@6B@         0048e2e8     fltk:Fl.obj
 0002:0000a2fc       ??_R3Fl_Image@@8           0048e2fc     fltk:Fl.obj
 0002:0000a30c       ??_R2Fl_Image@@8           0048e30c     fltk:Fl.obj
 0002:0000a314       ??_R1A@?0A@EA@Fl_Image@@8  0048e314     fltk:Fl.obj
 0002:0000a330       ??_R4Fl_RGB_Image@@6B@     0048e330     fltk:Fl.obj
 0002:0000a344       ??_R3Fl_RGB_Image@@8       0048e344     fltk:Fl.obj
 0002:0000a354       ??_R2Fl_RGB_Image@@8       0048e354     fltk:Fl.obj
 0002:0000a360       ??_R1A@?0A@EA@Fl_RGB_Image@@8 0048e360     fltk:Fl.obj
 0002:0000a37c       ??_R4Fl_GDI_Graphics_Driver@@6B@ 0048e37c     fltk:Fl.obj
 0002:0000a390       ??_R3Fl_GDI_Graphics_Driver@@8 0048e390     fltk:Fl.obj
 0002:0000a3a0       ??_R2Fl_GDI_Graphics_Driver@@8 0048e3a0     fltk:Fl.obj
 0002:0000a3b0       ??_R1A@?0A@EA@Fl_GDI_Graphics_Driver@@8 0048e3b0     fltk:Fl.obj
 0002:0000a3cc       ??_R1A@?0A@EA@Fl_Graphics_Driver@@8 0048e3cc     fltk:Fl.obj
 0002:0000a3e8       ??_R3Fl_Graphics_Driver@@8 0048e3e8     fltk:Fl.obj
 0002:0000a3f8       ??_R2Fl_Graphics_Driver@@8 0048e3f8     fltk:Fl.obj
 0002:0000a404       ??_R1A@?0A@EA@Fl_Device@@8 0048e404     fltk:Fl.obj
 0002:0000a420       ??_R3Fl_Device@@8          0048e420     fltk:Fl.obj
 0002:0000a430       ??_R2Fl_Device@@8          0048e430     fltk:Fl.obj
 0002:0000a438       ??_R4Fl_Graphics_Driver@@6B@ 0048e438     fltk:Fl.obj
 0002:0000a44c       ??_R4Fl_Device@@6B@        0048e44c     fltk:Fl.obj
 0002:0000a460       ??_R4Fl_Surface_Device@@6B@ 0048e460     fltk:Fl.obj
 0002:0000a474       ??_R3Fl_Surface_Device@@8  0048e474     fltk:Fl.obj
 0002:0000a484       ??_R2Fl_Surface_Device@@8  0048e484     fltk:Fl.obj
 0002:0000a490       ??_R1A@?0A@EA@Fl_Surface_Device@@8 0048e490     fltk:Fl.obj
 0002:0000a4ac       ??_R4Fl_Window@@6B@        0048e4ac     fltk:Fl_Window.obj
 0002:0000a4c0       ??_R4Fl_Group@@6B@         0048e4c0     fltk:Fl_Group.obj
 0002:0000a4d4       ??_R4Fl_Input_Choice@@6B@  0048e4d4     fltk:Fl_Group.obj
 0002:0000a4e8       ??_R3Fl_Input_Choice@@8    0048e4e8     fltk:Fl_Group.obj
 0002:0000a4f8       ??_R2Fl_Input_Choice@@8    0048e4f8     fltk:Fl_Group.obj
 0002:0000a508       ??_R1A@?0A@EA@Fl_Input_Choice@@8 0048e508     fltk:Fl_Group.obj
 0002:0000a524       ??_R4InputMenuButton@Fl_Input_Choice@@6B@ 0048e524     fltk:Fl_Group.obj
 0002:0000a538       ??_R3InputMenuButton@Fl_Input_Choice@@8 0048e538     fltk:Fl_Group.obj
 0002:0000a548       ??_R2InputMenuButton@Fl_Input_Choice@@8 0048e548     fltk:Fl_Group.obj
 0002:0000a55c       ??_R1A@?0A@EA@InputMenuButton@Fl_Input_Choice@@8 0048e55c     fltk:Fl_Group.obj
 0002:0000a578       ??_R1A@?0A@EA@Fl_Menu_Button@@8 0048e578     fltk:Fl_Group.obj
 0002:0000a594       ??_R3Fl_Menu_Button@@8     0048e594     fltk:Fl_Group.obj
 0002:0000a5a4       ??_R2Fl_Menu_Button@@8     0048e5a4     fltk:Fl_Group.obj
 0002:0000a5b4       ??_R1A@?0A@EA@Fl_Menu_@@8  0048e5b4     fltk:Fl_Group.obj
 0002:0000a5d0       ??_R3Fl_Menu_@@8           0048e5d0     fltk:Fl_Group.obj
 0002:0000a5e0       ??_R2Fl_Menu_@@8           0048e5e0     fltk:Fl_Group.obj
 0002:0000a5ec       ??_R4Fl_Spinner@@6B@       0048e5ec     fltk:Fl_Group.obj
 0002:0000a600       ??_R3Fl_Spinner@@8         0048e600     fltk:Fl_Group.obj
 0002:0000a610       ??_R2Fl_Spinner@@8         0048e610     fltk:Fl_Group.obj
 0002:0000a620       ??_R1A@?0A@EA@Fl_Spinner@@8 0048e620     fltk:Fl_Group.obj
 0002:0000a63c       ??_R4Fl_Menu_@@6B@         0048e63c     fltk:Fl_Menu_.obj
 0002:0000a650       ??_R4Fl_Menu_Bar@@6B@      0048e650     fltk:Fl_Menu_Bar.obj
 0002:0000a664       ??_R3Fl_Menu_Bar@@8        0048e664     fltk:Fl_Menu_Bar.obj
 0002:0000a674       ??_R2Fl_Menu_Bar@@8        0048e674     fltk:Fl_Menu_Bar.obj
 0002:0000a684       ??_R1A@?0A@EA@Fl_Menu_Bar@@8 0048e684     fltk:Fl_Menu_Bar.obj
 0002:0000a6a0       ??_R4Fl_Valuator@@6B@      0048e6a0     fltk:Fl_Valuator.obj
 0002:0000a6b4       ??_R3Fl_Valuator@@8        0048e6b4     fltk:Fl_Valuator.obj
 0002:0000a6c4       ??_R2Fl_Valuator@@8        0048e6c4     fltk:Fl_Valuator.obj
 0002:0000a6d0       ??_R1A@?0A@EA@Fl_Valuator@@8 0048e6d0     fltk:Fl_Valuator.obj
 0002:0000a6ec       ??_R4Fl_Value_Slider@@6B@  0048e6ec     fltk:Fl_Value_Slider.obj
 0002:0000a700       ??_R3Fl_Value_Slider@@8    0048e700     fltk:Fl_Value_Slider.obj
 0002:0000a710       ??_R2Fl_Value_Slider@@8    0048e710     fltk:Fl_Value_Slider.obj
 0002:0000a724       ??_R1A@?0A@EA@Fl_Value_Slider@@8 0048e724     fltk:Fl_Value_Slider.obj
 0002:0000a740       ??_R1A@?0A@EA@Fl_Slider@@8 0048e740     fltk:Fl_Value_Slider.obj
 0002:0000a75c       ??_R3Fl_Slider@@8          0048e75c     fltk:Fl_Value_Slider.obj
 0002:0000a76c       ??_R2Fl_Slider@@8          0048e76c     fltk:Fl_Value_Slider.obj
 0002:0000a77c       ??_R4Fl_Hor_Value_Slider@@6B@ 0048e77c     fltk:Fl_Value_Slider.obj
 0002:0000a790       ??_R3Fl_Hor_Value_Slider@@8 0048e790     fltk:Fl_Value_Slider.obj
 0002:0000a7a0       ??_R2Fl_Hor_Value_Slider@@8 0048e7a0     fltk:Fl_Value_Slider.obj
 0002:0000a7b8       ??_R1A@?0A@EA@Fl_Hor_Value_Slider@@8 0048e7b8     fltk:Fl_Value_Slider.obj
 0002:0000a7d4       ??_R4Fl_Button@@6B@        0048e7d4     fltk:Fl_Button.obj
 0002:0000a7e8       ??_R3Fl_Button@@8          0048e7e8     fltk:Fl_Button.obj
 0002:0000a7f8       ??_R2Fl_Button@@8          0048e7f8     fltk:Fl_Button.obj
 0002:0000a804       ??_R1A@?0A@EA@Fl_Button@@8 0048e804     fltk:Fl_Button.obj
 0002:0000a820       ??_R4Fl_Radio_Button@@6B@  0048e820     fltk:Fl_Button.obj
 0002:0000a834       ??_R3Fl_Radio_Button@@8    0048e834     fltk:Fl_Button.obj
 0002:0000a844       ??_R2Fl_Radio_Button@@8    0048e844     fltk:Fl_Button.obj
 0002:0000a854       ??_R1A@?0A@EA@Fl_Radio_Button@@8 0048e854     fltk:Fl_Button.obj
 0002:0000a870       ??_R4Fl_Toggle_Button@@6B@ 0048e870     fltk:Fl_Button.obj
 0002:0000a884       ??_R3Fl_Toggle_Button@@8   0048e884     fltk:Fl_Button.obj
 0002:0000a894       ??_R2Fl_Toggle_Button@@8   0048e894     fltk:Fl_Button.obj
 0002:0000a8a4       ??_R1A@?0A@EA@Fl_Toggle_Button@@8 0048e8a4     fltk:Fl_Button.obj
 0002:0000a8c0       ??_R4Fl_Light_Button@@6B@  0048e8c0     fltk:Fl_Light_Button.obj
 0002:0000a8d4       ??_R3Fl_Light_Button@@8    0048e8d4     fltk:Fl_Light_Button.obj
 0002:0000a8e4       ??_R2Fl_Light_Button@@8    0048e8e4     fltk:Fl_Light_Button.obj
 0002:0000a8f4       ??_R1A@?0A@EA@Fl_Light_Button@@8 0048e8f4     fltk:Fl_Light_Button.obj
 0002:0000a910       ??_R4Fl_Radio_Light_Button@@6B@ 0048e910     fltk:Fl_Light_Button.obj
 0002:0000a924       ??_R3Fl_Radio_Light_Button@@8 0048e924     fltk:Fl_Light_Button.obj
 0002:0000a934       ??_R2Fl_Radio_Light_Button@@8 0048e934     fltk:Fl_Light_Button.obj
 0002:0000a948       ??_R1A@?0A@EA@Fl_Radio_Light_Button@@8 0048e948     fltk:Fl_Light_Button.obj
 0002:0000a964       ??_R4Fl_Widget@@6B@        0048e964     fltk:Fl_Widget.obj
 0002:0000a978       ??_R4Fl_TooltipBox@@6B@    0048e978     fltk:Fl_Tooltip.obj
 0002:0000a98c       ??_R3Fl_TooltipBox@@8      0048e98c     fltk:Fl_Tooltip.obj
 0002:0000a99c       ??_R2Fl_TooltipBox@@8      0048e99c     fltk:Fl_Tooltip.obj
 0002:0000a9b8       ??_R1A@?0A@EA@Fl_TooltipBox@@8 0048e9b8     fltk:Fl_Tooltip.obj
 0002:0000a9d4       ??_R1A@?0A@EA@Fl_Menu_Window@@8 0048e9d4     fltk:Fl_Tooltip.obj
 0002:0000a9f0       ??_R3Fl_Menu_Window@@8     0048e9f0     fltk:Fl_Tooltip.obj
 0002:0000aa00       ??_R2Fl_Menu_Window@@8     0048ea00     fltk:Fl_Tooltip.obj
 0002:0000aa18       ??_R1A@?0A@EA@Fl_Single_Window@@8 0048ea18     fltk:Fl_Tooltip.obj
 0002:0000aa34       ??_R3Fl_Single_Window@@8   0048ea34     fltk:Fl_Tooltip.obj
 0002:0000aa44       ??_R2Fl_Single_Window@@8   0048ea44     fltk:Fl_Tooltip.obj
 0002:0000aa58       ??_R4Fl_Double_Window@@6B@ 0048ea58     fltk:Fl_Double_Window.obj
 0002:0000aa6c       ??_R3Fl_Double_Window@@8   0048ea6c     fltk:Fl_Double_Window.obj
 0002:0000aa7c       ??_R2Fl_Double_Window@@8   0048ea7c     fltk:Fl_Double_Window.obj
 0002:0000aa90       ??_R1A@?0A@EA@Fl_Double_Window@@8 0048ea90     fltk:Fl_Double_Window.obj
 0002:0000aaac       ??_R4Fl_Overlay_Window@@6B@ 0048eaac     fltk:Fl_Double_Window.obj
 0002:0000aac0       ??_R3Fl_Overlay_Window@@8  0048eac0     fltk:Fl_Double_Window.obj
 0002:0000aad0       ??_R2Fl_Overlay_Window@@8  0048ead0     fltk:Fl_Double_Window.obj
 0002:0000aae8       ??_R1A@?0A@EA@Fl_Overlay_Window@@8 0048eae8     fltk:Fl_Double_Window.obj
 0002:0000ab04       ??_R4Fl_Preferences@@6B@   0048eb04     fltk:Fl_Preferences.obj
 0002:0000ab18       ??_R3Fl_Preferences@@8     0048eb18     fltk:Fl_Preferences.obj
 0002:0000ab28       ??_R2Fl_Preferences@@8     0048eb28     fltk:Fl_Preferences.obj
 0002:0000ab30       ??_R1A@?0A@EA@Fl_Preferences@@8 0048eb30     fltk:Fl_Preferences.obj
 0002:0000ab4c       ??_R4Fl_Plugin@@6B@        0048eb4c     fltk:Fl_Preferences.obj
 0002:0000ab60       ??_R3Fl_Plugin@@8          0048eb60     fltk:Fl_Preferences.obj
 0002:0000ab70       ??_R2Fl_Plugin@@8          0048eb70     fltk:Fl_Preferences.obj
 0002:0000ab78       ??_R1A@?0A@EA@Fl_Plugin@@8 0048eb78     fltk:Fl_Preferences.obj
 0002:0000ab94       ??_R4Fl_Plugin_Manager@@6B@ 0048eb94     fltk:Fl_Preferences.obj
 0002:0000aba8       ??_R3Fl_Plugin_Manager@@8  0048eba8     fltk:Fl_Preferences.obj
 0002:0000abb8       ??_R2Fl_Plugin_Manager@@8  0048ebb8     fltk:Fl_Preferences.obj
 0002:0000abc4       ??_R1A@?0A@EA@Fl_Plugin_Manager@@8 0048ebc4     fltk:Fl_Preferences.obj
 0002:0000abe0       ??_R4Fl_Display_Device@@6B@ 0048ebe0     fltk:Fl_Device.obj
 0002:0000abf4       ??_R3Fl_Display_Device@@8  0048ebf4     fltk:Fl_Device.obj
 0002:0000ac04       ??_R2Fl_Display_Device@@8  0048ec04     fltk:Fl_Device.obj
 0002:0000ac14       ??_R1A@?0A@EA@Fl_Display_Device@@8 0048ec14     fltk:Fl_Device.obj
 0002:0000ac30       ??_R4Fl_Pixmap@@6B@        0048ec30     fltk:Fl_Pixmap.obj
 0002:0000ac44       ??_R3Fl_Pixmap@@8          0048ec44     fltk:Fl_Pixmap.obj
 0002:0000ac54       ??_R2Fl_Pixmap@@8          0048ec54     fltk:Fl_Pixmap.obj
 0002:0000ac60       ??_R1A@?0A@EA@Fl_Pixmap@@8 0048ec60     fltk:Fl_Pixmap.obj
 0002:0000ac7c       ??_R4Fl_Bitmap@@6B@        0048ec7c     fltk:Fl_Bitmap.obj
 0002:0000ac90       ??_R3Fl_Bitmap@@8          0048ec90     fltk:Fl_Bitmap.obj
 0002:0000aca0       ??_R2Fl_Bitmap@@8          0048eca0     fltk:Fl_Bitmap.obj
 0002:0000acac       ??_R1A@?0A@EA@Fl_Bitmap@@8 0048ecac     fltk:Fl_Bitmap.obj
 0002:0000acc8       ??_R3IUnknown@@8           0048ecc8     fltk:fl_dnd.obj
 0002:0000acd8       ??_R2IUnknown@@8           0048ecd8     fltk:fl_dnd.obj
 0002:0000ace0       ??_R1A@?0A@EA@IUnknown@@8  0048ece0     fltk:fl_dnd.obj
 0002:0000acfc       ??_R3IDataObject@@8        0048ecfc     fltk:fl_dnd.obj
 0002:0000ad0c       ??_R2IDataObject@@8        0048ed0c     fltk:fl_dnd.obj
 0002:0000ad18       ??_R1A@?0A@EA@IDataObject@@8 0048ed18     fltk:fl_dnd.obj
 0002:0000ad34       ??_R3IDropSource@@8        0048ed34     fltk:fl_dnd.obj
 0002:0000ad44       ??_R2IDropSource@@8        0048ed44     fltk:fl_dnd.obj
 0002:0000ad50       ??_R1A@?0A@EA@IDropSource@@8 0048ed50     fltk:fl_dnd.obj
 0002:0000ad6c       ??_R3IDropTarget@@8        0048ed6c     fltk:fl_dnd.obj
 0002:0000ad7c       ??_R2IDropTarget@@8        0048ed7c     fltk:fl_dnd.obj
 0002:0000ad88       ??_R1A@?0A@EA@IDropTarget@@8 0048ed88     fltk:fl_dnd.obj
 0002:0000ada4       ??_R4FLDropTarget@@6B@     0048eda4     fltk:fl_dnd.obj
 0002:0000adb8       ??_R3FLDropTarget@@8       0048edb8     fltk:fl_dnd.obj
 0002:0000adc8       ??_R2FLDropTarget@@8       0048edc8     fltk:fl_dnd.obj
 0002:0000add8       ??_R1A@?0A@EA@FLDropTarget@@8 0048edd8     fltk:fl_dnd.obj
 0002:0000adf4       ??_R4FLDropSource@@6B@     0048edf4     fltk:fl_dnd.obj
 0002:0000ae08       ??_R3FLDropSource@@8       0048ee08     fltk:fl_dnd.obj
 0002:0000ae18       ??_R2FLDropSource@@8       0048ee18     fltk:fl_dnd.obj
 0002:0000ae28       ??_R1A@?0A@EA@FLDropSource@@8 0048ee28     fltk:fl_dnd.obj
 0002:0000ae44       ??_R4FLDataObject@@6B@     0048ee44     fltk:fl_dnd.obj
 0002:0000ae58       ??_R3FLDataObject@@8       0048ee58     fltk:fl_dnd.obj
 0002:0000ae68       ??_R2FLDataObject@@8       0048ee68     fltk:fl_dnd.obj
 0002:0000ae78       ??_R1A@?0A@EA@FLDataObject@@8 0048ee78     fltk:fl_dnd.obj
 0002:0000ae94       ??_R4Fl_Box@@6B@           0048ee94     fltk:Fl_Box.obj
 0002:0000aea8       ??_R3Fl_Box@@8             0048eea8     fltk:Fl_Box.obj
 0002:0000aeb8       ??_R2Fl_Box@@8             0048eeb8     fltk:Fl_Box.obj
 0002:0000aec4       ??_R1A@?0A@EA@Fl_Box@@8    0048eec4     fltk:Fl_Box.obj
 0002:0000aee0       ??_R4Fl_Return_Button@@6B@ 0048eee0     fltk:Fl_Return_Button.obj
 0002:0000aef4       ??_R3Fl_Return_Button@@8   0048eef4     fltk:Fl_Return_Button.obj
 0002:0000af04       ??_R2Fl_Return_Button@@8   0048ef04     fltk:Fl_Return_Button.obj
 0002:0000af14       ??_R1A@?0A@EA@Fl_Return_Button@@8 0048ef14     fltk:Fl_Return_Button.obj
 0002:0000af30       ??_R4Fl_Input_@@6B@        0048ef30     fltk:Fl_Input_.obj
 0002:0000af44       ??_R3Fl_Input_@@8          0048ef44     fltk:Fl_Input_.obj
 0002:0000af54       ??_R2Fl_Input_@@8          0048ef54     fltk:Fl_Input_.obj
 0002:0000af60       ??_R1A@?0A@EA@Fl_Input_@@8 0048ef60     fltk:Fl_Input_.obj
 0002:0000af7c       ??_R4Fl_Input@@6B@         0048ef7c     fltk:Fl_Input.obj
 0002:0000af90       ??_R3Fl_Input@@8           0048ef90     fltk:Fl_Input.obj
 0002:0000afa0       ??_R2Fl_Input@@8           0048efa0     fltk:Fl_Input.obj
 0002:0000afb0       ??_R1A@?0A@EA@Fl_Input@@8  0048efb0     fltk:Fl_Input.obj
 0002:0000afcc       ??_R4Fl_Float_Input@@6B@   0048efcc     fltk:Fl_Input.obj
 0002:0000afe0       ??_R3Fl_Float_Input@@8     0048efe0     fltk:Fl_Input.obj
 0002:0000aff0       ??_R2Fl_Float_Input@@8     0048eff0     fltk:Fl_Input.obj
 0002:0000b004       ??_R1A@?0A@EA@Fl_Float_Input@@8 0048f004     fltk:Fl_Input.obj
 0002:0000b020       ??_R4Fl_Int_Input@@6B@     0048f020     fltk:Fl_Input.obj
 0002:0000b034       ??_R3Fl_Int_Input@@8       0048f034     fltk:Fl_Input.obj
 0002:0000b044       ??_R2Fl_Int_Input@@8       0048f044     fltk:Fl_Input.obj
 0002:0000b058       ??_R1A@?0A@EA@Fl_Int_Input@@8 0048f058     fltk:Fl_Input.obj
 0002:0000b074       ??_R4Fl_Multiline_Input@@6B@ 0048f074     fltk:Fl_Input.obj
 0002:0000b088       ??_R3Fl_Multiline_Input@@8 0048f088     fltk:Fl_Input.obj
 0002:0000b098       ??_R2Fl_Multiline_Input@@8 0048f098     fltk:Fl_Input.obj
 0002:0000b0ac       ??_R1A@?0A@EA@Fl_Multiline_Input@@8 0048f0ac     fltk:Fl_Input.obj
 0002:0000b0c8       ??_R4Fl_Output@@6B@        0048f0c8     fltk:Fl_Input.obj
 0002:0000b0dc       ??_R3Fl_Output@@8          0048f0dc     fltk:Fl_Input.obj
 0002:0000b0ec       ??_R2Fl_Output@@8          0048f0ec     fltk:Fl_Input.obj
 0002:0000b100       ??_R1A@?0A@EA@Fl_Output@@8 0048f100     fltk:Fl_Input.obj
 0002:0000b11c       ??_R4Fl_Multiline_Output@@6B@ 0048f11c     fltk:Fl_Input.obj
 0002:0000b130       ??_R3Fl_Multiline_Output@@8 0048f130     fltk:Fl_Input.obj
 0002:0000b140       ??_R2Fl_Multiline_Output@@8 0048f140     fltk:Fl_Input.obj
 0002:0000b158       ??_R1A@?0A@EA@Fl_Multiline_Output@@8 0048f158     fltk:Fl_Input.obj
 0002:0000b174       ??_R4Fl_Secret_Input@@6B@  0048f174     fltk:Fl_Input.obj
 0002:0000b188       ??_R3Fl_Secret_Input@@8    0048f188     fltk:Fl_Input.obj
 0002:0000b198       ??_R2Fl_Secret_Input@@8    0048f198     fltk:Fl_Input.obj
 0002:0000b1ac       ??_R1A@?0A@EA@Fl_Secret_Input@@8 0048f1ac     fltk:Fl_Input.obj
 0002:0000b1c8       ??_R4Fl_Menu_Button@@6B@   0048f1c8     fltk:Fl_Menu_Button.obj
 0002:0000b1dc       ??_R4Fl_Repeat_Button@@6B@ 0048f1dc     fltk:Fl_Repeat_Button.obj
 0002:0000b1f0       ??_R3Fl_Repeat_Button@@8   0048f1f0     fltk:Fl_Repeat_Button.obj
 0002:0000b200       ??_R2Fl_Repeat_Button@@8   0048f200     fltk:Fl_Repeat_Button.obj
 0002:0000b210       ??_R1A@?0A@EA@Fl_Repeat_Button@@8 0048f210     fltk:Fl_Repeat_Button.obj
 0002:0000b22c       ??_R4menutitle@@6B@        0048f22c     fltk:Fl_Menu.obj
 0002:0000b240       ??_R3menutitle@@8          0048f240     fltk:Fl_Menu.obj
 0002:0000b250       ??_R2menutitle@@8          0048f250     fltk:Fl_Menu.obj
 0002:0000b26c       ??_R1A@?0A@EA@menutitle@@8 0048f26c     fltk:Fl_Menu.obj
 0002:0000b288       ??_R4menuwindow@@6B@       0048f288     fltk:Fl_Menu.obj
 0002:0000b29c       ??_R3menuwindow@@8         0048f29c     fltk:Fl_Menu.obj
 0002:0000b2ac       ??_R2menuwindow@@8         0048f2ac     fltk:Fl_Menu.obj
 0002:0000b2c8       ??_R1A@?0A@EA@menuwindow@@8 0048f2c8     fltk:Fl_Menu.obj
 0002:0000b2e4       ??_R4Fl_Slider@@6B@        0048f2e4     fltk:Fl_Slider.obj
 0002:0000b2f8       ??_R4Fl_Fill_Slider@@6B@   0048f2f8     fltk:Fl_Slider.obj
 0002:0000b30c       ??_R3Fl_Fill_Slider@@8     0048f30c     fltk:Fl_Slider.obj
 0002:0000b31c       ??_R2Fl_Fill_Slider@@8     0048f31c     fltk:Fl_Slider.obj
 0002:0000b330       ??_R1A@?0A@EA@Fl_Fill_Slider@@8 0048f330     fltk:Fl_Slider.obj
 0002:0000b34c       ??_R4Fl_Hor_Slider@@6B@    0048f34c     fltk:Fl_Slider.obj
 0002:0000b360       ??_R3Fl_Hor_Slider@@8      0048f360     fltk:Fl_Slider.obj
 0002:0000b370       ??_R2Fl_Hor_Slider@@8      0048f370     fltk:Fl_Slider.obj
 0002:0000b384       ??_R1A@?0A@EA@Fl_Hor_Slider@@8 0048f384     fltk:Fl_Slider.obj
 0002:0000b3a0       ??_R4Fl_Hor_Fill_Slider@@6B@ 0048f3a0     fltk:Fl_Slider.obj
 0002:0000b3b4       ??_R3Fl_Hor_Fill_Slider@@8 0048f3b4     fltk:Fl_Slider.obj
 0002:0000b3c4       ??_R2Fl_Hor_Fill_Slider@@8 0048f3c4     fltk:Fl_Slider.obj
 0002:0000b3d8       ??_R1A@?0A@EA@Fl_Hor_Fill_Slider@@8 0048f3d8     fltk:Fl_Slider.obj
 0002:0000b3f4       ??_R4Fl_Hor_Nice_Slider@@6B@ 0048f3f4     fltk:Fl_Slider.obj
 0002:0000b408       ??_R3Fl_Hor_Nice_Slider@@8 0048f408     fltk:Fl_Slider.obj
 0002:0000b418       ??_R2Fl_Hor_Nice_Slider@@8 0048f418     fltk:Fl_Slider.obj
 0002:0000b42c       ??_R1A@?0A@EA@Fl_Hor_Nice_Slider@@8 0048f42c     fltk:Fl_Slider.obj
 0002:0000b448       ??_R4Fl_Nice_Slider@@6B@   0048f448     fltk:Fl_Slider.obj
 0002:0000b45c       ??_R3Fl_Nice_Slider@@8     0048f45c     fltk:Fl_Slider.obj
 0002:0000b46c       ??_R2Fl_Nice_Slider@@8     0048f46c     fltk:Fl_Slider.obj
 0002:0000b480       ??_R1A@?0A@EA@Fl_Nice_Slider@@8 0048f480     fltk:Fl_Slider.obj
 0002:0000b49c       ??_R4Fl_Menu_Window@@6B@   0048f49c     fltk:Fl_Menu_Window.obj
 0002:0000b4b0       ??_R4Fl_Tiled_Image@@6B@   0048f4b0     fltk:Fl_Tiled_Image.obj
 0002:0000b4c4       ??_R3Fl_Tiled_Image@@8     0048f4c4     fltk:Fl_Tiled_Image.obj
 0002:0000b4d4       ??_R2Fl_Tiled_Image@@8     0048f4d4     fltk:Fl_Tiled_Image.obj
 0002:0000b4e0       ??_R1A@?0A@EA@Fl_Tiled_Image@@8 0048f4e0     fltk:Fl_Tiled_Image.obj
 0002:0000b4fc       ??_R4Fl_Choice@@6B@        0048f4fc     fltk:Fl_Choice.obj
 0002:0000b510       ??_R3Fl_Choice@@8          0048f510     fltk:Fl_Choice.obj
 0002:0000b520       ??_R2Fl_Choice@@8          0048f520     fltk:Fl_Choice.obj
 0002:0000b530       ??_R1A@?0A@EA@Fl_Choice@@8 0048f530     fltk:Fl_Choice.obj
 0002:0000b54c       ??_R4Fl_Tile@@6B@          0048f54c     fltk:Fl_Tile.obj
 0002:0000b560       ??_R3Fl_Tile@@8            0048f560     fltk:Fl_Tile.obj
 0002:0000b570       ??_R2Fl_Tile@@8            0048f570     fltk:Fl_Tile.obj
 0002:0000b580       ??_R1A@?0A@EA@Fl_Tile@@8   0048f580     fltk:Fl_Tile.obj
 0002:0000b59c       ??_R4Fl_Browser_@@6B@      0048f59c     fltk:Fl_Browser_.obj
 0002:0000b5b0       ??_R3Fl_Browser_@@8        0048f5b0     fltk:Fl_Browser_.obj
 0002:0000b5c0       ??_R2Fl_Browser_@@8        0048f5c0     fltk:Fl_Browser_.obj
 0002:0000b5d0       ??_R1A@?0A@EA@Fl_Browser_@@8 0048f5d0     fltk:Fl_Browser_.obj
 0002:0000b5ec       ??_R4Fl_Browser@@6B@       0048f5ec     fltk:Fl_File_Browser.obj
 0002:0000b600       ??_R3Fl_Browser@@8         0048f600     fltk:Fl_File_Browser.obj
 0002:0000b610       ??_R2Fl_Browser@@8         0048f610     fltk:Fl_File_Browser.obj
 0002:0000b624       ??_R1A@?0A@EA@Fl_Browser@@8 0048f624     fltk:Fl_File_Browser.obj
 0002:0000b640       ??_R4Fl_File_Browser@@6B@  0048f640     fltk:Fl_File_Browser.obj
 0002:0000b654       ??_R3Fl_File_Browser@@8    0048f654     fltk:Fl_File_Browser.obj
 0002:0000b664       ??_R2Fl_File_Browser@@8    0048f664     fltk:Fl_File_Browser.obj
 0002:0000b67c       ??_R1A@?0A@EA@Fl_File_Browser@@8 0048f67c     fltk:Fl_File_Browser.obj
 0002:0000b698       ??_R4Fl_Check_Button@@6B@  0048f698     fltk:Fl_Check_Button.obj
 0002:0000b6ac       ??_R3Fl_Check_Button@@8    0048f6ac     fltk:Fl_Check_Button.obj
 0002:0000b6bc       ??_R2Fl_Check_Button@@8    0048f6bc     fltk:Fl_Check_Button.obj
 0002:0000b6d0       ??_R1A@?0A@EA@Fl_Check_Button@@8 0048f6d0     fltk:Fl_Check_Button.obj
 0002:0000b6ec       ??_R4Fl_File_Input@@6B@    0048f6ec     fltk:Fl_File_Input.obj
 0002:0000b700       ??_R3Fl_File_Input@@8      0048f700     fltk:Fl_File_Input.obj
 0002:0000b710       ??_R2Fl_File_Input@@8      0048f710     fltk:Fl_File_Input.obj
 0002:0000b724       ??_R1A@?0A@EA@Fl_File_Input@@8 0048f724     fltk:Fl_File_Input.obj
 0002:0000b740       ??_R4Fl_Hold_Browser@@6B@  0048f740     fltk:Fl_Browser.obj
 0002:0000b754       ??_R3Fl_Hold_Browser@@8    0048f754     fltk:Fl_Browser.obj
 0002:0000b764       ??_R2Fl_Hold_Browser@@8    0048f764     fltk:Fl_Browser.obj
 0002:0000b77c       ??_R1A@?0A@EA@Fl_Hold_Browser@@8 0048f77c     fltk:Fl_Browser.obj
 0002:0000b798       ??_R4Fl_Multi_Browser@@6B@ 0048f798     fltk:Fl_Browser.obj
 0002:0000b7ac       ??_R3Fl_Multi_Browser@@8   0048f7ac     fltk:Fl_Browser.obj
 0002:0000b7bc       ??_R2Fl_Multi_Browser@@8   0048f7bc     fltk:Fl_Browser.obj
 0002:0000b7d4       ??_R1A@?0A@EA@Fl_Multi_Browser@@8 0048f7d4     fltk:Fl_Browser.obj
 0002:0000b7f0       ??_R4Fl_Select_Browser@@6B@ 0048f7f0     fltk:Fl_Browser.obj
 0002:0000b804       ??_R3Fl_Select_Browser@@8  0048f804     fltk:Fl_Browser.obj
 0002:0000b814       ??_R2Fl_Select_Browser@@8  0048f814     fltk:Fl_Browser.obj
 0002:0000b82c       ??_R1A@?0A@EA@Fl_Select_Browser@@8 0048f82c     fltk:Fl_Browser.obj
 0002:0000b848       ??_R4Fl_Shared_Image@@6B@  0048f848     fltk:Fl_Shared_Image.obj
 0002:0000b85c       ??_R3Fl_Shared_Image@@8    0048f85c     fltk:Fl_Shared_Image.obj
 0002:0000b86c       ??_R2Fl_Shared_Image@@8    0048f86c     fltk:Fl_Shared_Image.obj
 0002:0000b878       ??_R1A@?0A@EA@Fl_Shared_Image@@8 0048f878     fltk:Fl_Shared_Image.obj
 0002:0000b894       ??_R4Fl_Single_Window@@6B@ 0048f894     fltk:Fl_Single_Window.obj
 0002:0000b8a8       ??_R4Fl_Scrollbar@@6B@     0048f8a8     fltk:Fl_Scrollbar.obj
 0002:0000b8bc       ??_R3Fl_Scrollbar@@8       0048f8bc     fltk:Fl_Scrollbar.obj
 0002:0000b8cc       ??_R2Fl_Scrollbar@@8       0048f8cc     fltk:Fl_Scrollbar.obj
 0002:0000b8e0       ??_R1A@?0A@EA@Fl_Scrollbar@@8 0048f8e0     fltk:Fl_Scrollbar.obj
 0002:0000b8fc       ??_R4Fl_XBM_Image@@6B@     0048f8fc     fltk:Fl_XBM_Image.obj
 0002:0000b910       ??_R3Fl_XBM_Image@@8       0048f910     fltk:Fl_XBM_Image.obj
 0002:0000b920       ??_R2Fl_XBM_Image@@8       0048f920     fltk:Fl_XBM_Image.obj
 0002:0000b930       ??_R1A@?0A@EA@Fl_XBM_Image@@8 0048f930     fltk:Fl_XBM_Image.obj
 0002:0000b94c       ??_R4Fl_XPM_Image@@6B@     0048f94c     fltk:Fl_XPM_Image.obj
 0002:0000b960       ??_R3Fl_XPM_Image@@8       0048f960     fltk:Fl_XPM_Image.obj
 0002:0000b970       ??_R2Fl_XPM_Image@@8       0048f970     fltk:Fl_XPM_Image.obj
 0002:0000b980       ??_R1A@?0A@EA@Fl_XPM_Image@@8 0048f980     fltk:Fl_XPM_Image.obj
 0002:0000b99c       ??_R4Fl_Device_Plugin@@6B@ 0048f99c     fltkgl:Fl_Gl_Device_Plugin.obj
 0002:0000b9b0       ??_R3Fl_Device_Plugin@@8   0048f9b0     fltkgl:Fl_Gl_Device_Plugin.obj
 0002:0000b9c0       ??_R2Fl_Device_Plugin@@8   0048f9c0     fltkgl:Fl_Gl_Device_Plugin.obj
 0002:0000b9cc       ??_R1A@?0A@EA@Fl_Device_Plugin@@8 0048f9cc     fltkgl:Fl_Gl_Device_Plugin.obj
 0002:0000b9e8       ??_R4Fl_Gl_Device_Plugin@@6B@ 0048f9e8     fltkgl:Fl_Gl_Device_Plugin.obj
 0002:0000b9fc       ??_R3Fl_Gl_Device_Plugin@@8 0048f9fc     fltkgl:Fl_Gl_Device_Plugin.obj
 0002:0000ba0c       ??_R2Fl_Gl_Device_Plugin@@8 0048fa0c     fltkgl:Fl_Gl_Device_Plugin.obj
 0002:0000ba1c       ??_R1A@?0A@EA@Fl_Gl_Device_Plugin@@8 0048fa1c     fltkgl:Fl_Gl_Device_Plugin.obj
 0002:0000ba38       ??_R4type_info@@6B@        0048fa38     MSVCRT:std_type_info_static.obj
 0002:0000ba4c       ??_R3type_info@@8          0048fa4c     MSVCRT:std_type_info_static.obj
 0002:0000ba5c       ??_R2type_info@@8          0048fa5c     MSVCRT:std_type_info_static.obj
 0002:0000ba64       ??_R1A@?0A@EA@type_info@@8 0048fa64     MSVCRT:std_type_info_static.obj
 0002:0000ba80       ??_R4bad_alloc@std@@6B@    0048fa80     MSVCRT:throw_bad_alloc.obj
 0002:0000ba94       ??_R3bad_alloc@std@@8      0048fa94     MSVCRT:throw_bad_alloc.obj
 0002:0000baa4       ??_R2bad_alloc@std@@8      0048faa4     MSVCRT:throw_bad_alloc.obj
 0002:0000bab0       ??_R1A@?0A@EA@bad_alloc@std@@8 0048fab0     MSVCRT:throw_bad_alloc.obj
 0002:0000bacc       ??_R4bad_array_new_length@std@@6B@ 0048facc     MSVCRT:throw_bad_alloc.obj
 0002:0000bae0       ??_R3bad_array_new_length@std@@8 0048fae0     MSVCRT:throw_bad_alloc.obj
 0002:0000baf0       ??_R2bad_array_new_length@std@@8 0048faf0     MSVCRT:throw_bad_alloc.obj
 0002:0000bb00       ??_R1A@?0A@EA@bad_array_new_length@std@@8 0048fb00     MSVCRT:throw_bad_alloc.obj
 0002:0000bee0       ___rtc_iaa                 0048fee0     MSVCRT:_initsect_.obj
 0002:0000bee4       ___rtc_izz                 0048fee4     MSVCRT:_initsect_.obj
 0002:0000bee8       ___rtc_taa                 0048fee8     MSVCRT:_initsect_.obj
 0002:0000beec       ___rtc_tzz                 0048feec     MSVCRT:_initsect_.obj
 0002:0000daa0       __TI4?AVsystem_error@std@@ 00491aa0     TraceUI.obj
 0002:0000dab0       __CTA4?AVsystem_error@std@@ 00491ab0     TraceUI.obj
 0002:0000dac4       __CT??_R0?AVsystem_error@std@@@8??0system_error@std@@QAE@ABV01@@Z20 00491ac4     TraceUI.obj
 0002:0000dae0       __CT??_R0?AV_System_error@std@@@8??0_System_error@std@@QAE@ABV01@@Z20 00491ae0     TraceUI.obj
 0002:0000dafc       __CT??_R0?AVruntime_error@std@@@8??0runtime_error@std@@QAE@ABV01@@Z12 00491afc     TraceUI.obj
 0002:0000db18       __CT??_R0?AVexception@std@@@8??0exception@std@@QAE@ABV01@@Z12 00491b18     TraceUI.obj
 0002:0000db34       __TI2?AVruntime_error@std@@ 00491b34     TraceUI.obj
 0002:0000db44       __CTA2?AVruntime_error@std@@ 00491b44     TraceUI.obj
 0002:0000db50       __TI2?AVinvalid_operation@Concurrency@@ 00491b50     TraceUI.obj
 0002:0000db60       __CTA2?AVinvalid_operation@Concurrency@@ 00491b60     TraceUI.obj
 0002:0000db6c       __CT??_R0?AVinvalid_operation@Concurrency@@@8??0invalid_operation@Concurrency@@QAE@ABV01@@Z12 00491b6c     TraceUI.obj
 0002:0000e3cc       __TI3?AVObjTypeMismatch@@  004923cc     parse.obj
 0002:0000e3dc       __CTA3?AVObjTypeMismatch@@ 004923dc     parse.obj
 0002:0000e3ec       __CT??_R0?AVObjTypeMismatch@@@8??0ObjTypeMismatch@@QAE@ABV0@@Z24 004923ec     parse.obj
 0002:0000e408       __CT??_R0?AVParseError@@@8??0ParseError@@QAE@ABV0@@Z24 00492408     parse.obj
 0002:0000e424       __CT??_R0?AVException@@@8??0Exception@@QAE@ABV0@@Z24 00492424     parse.obj
 0002:0000e440       __TI2?AVParseError@@       00492440     parse.obj
 0002:0000e450       __CTA2?AVParseError@@      00492450     parse.obj
 0002:0000edb8       __TI2?AVbad_cast@std@@     00492db8     read.obj
 0002:0000edc8       __CTA2?AVbad_cast@std@@    00492dc8     read.obj
 0002:0000edd4       __CT??_R0?AVbad_cast@std@@@8??0bad_cast@std@@QAE@ABV01@@Z12 00492dd4     read.obj
 0002:0000edf0       __TI1?AVSingularMatrixException@@ 00492df0     vecmath.obj
 0002:0000ee00       __CTA1?AVSingularMatrixException@@ 00492e00     vecmath.obj
 0002:0000ee08       __CT??_R0?AVSingularMatrixException@@@81 00492e08     vecmath.obj
 0002:0000fe7c       __TI2?AVbad_alloc@std@@    00493e7c     MSVCRT:throw_bad_alloc.obj
 0002:0000fe8c       __CTA2?AVbad_alloc@std@@   00493e8c     MSVCRT:throw_bad_alloc.obj
 0002:0000fe98       __CT??_R0?AVbad_alloc@std@@@8??0bad_alloc@std@@QAE@ABV01@@Z12 00493e98     MSVCRT:throw_bad_alloc.obj
 0002:0000feb4       __TI3?AVbad_array_new_length@std@@ 00493eb4     MSVCRT:throw_bad_alloc.obj
 0002:0000fec4       __CTA3?AVbad_array_new_length@std@@ 00493ec4     MSVCRT:throw_bad_alloc.obj
 0002:0000fed4       __CT??_R0?AVbad_array_new_length@std@@@8??0bad_array_new_length@std@@QAE@ABV01@@Z12 00493ed4     MSVCRT:throw_bad_alloc.obj
 0002:0000ff14       __IMPORT_DESCRIPTOR_OPENGL32 00493f14     opengl32:OPENGL32.dll
 0002:0000ff28       __IMPORT_DESCRIPTOR_KERNEL32 00493f28     kernel32:KERNEL32.dll
 0002:0000ff3c       __IMPORT_DESCRIPTOR_USER32 00493f3c     user32:USER32.dll
 0002:0000ff50       __IMPORT_DESCRIPTOR_GDI32  00493f50     gdi32:GDI32.dll
 0002:0000ff64       __IMPORT_DESCRIPTOR_ADVAPI32 00493f64     advapi32:ADVAPI32.dll
 0002:0000ff78       __IMPORT_DESCRIPTOR_SHELL32 00493f78     shell32:SHELL32.dll
 0002:0000ff8c       __IMPORT_DESCRIPTOR_ole32  00493f8c     ole32:ole32.dll
 0002:0000ffa0       __IMPORT_DESCRIPTOR_MSVCP140 00493fa0     msvcprt:MSVCP140.dll
 0002:0000ffb4       __IMPORT_DESCRIPTOR_COMCTL32 00493fb4     comctl32:COMCTL32.dll
 0002:0000ffc8       __IMPORT_DESCRIPTOR_VCRUNTIME140 00493fc8     vcruntime:VCRUNTIME140.dll
 0002:0000ffdc       __IMPORT_DESCRIPTOR_api-ms-win-crt-string-l1-1-0 00493fdc     ucrt:api-ms-win-crt-string-l1-1-0.dll
 0002:0000fff0       __IMPORT_DESCRIPTOR_api-ms-win-crt-stdio-l1-1-0 00493ff0     ucrt:api-ms-win-crt-stdio-l1-1-0.dll
 0002:00010004       __IMPORT_DESCRIPTOR_api-ms-win-crt-runtime-l1-1-0 00494004     ucrt:api-ms-win-crt-runtime-l1-1-0.dll
 0002:00010018       __IMPORT_DESCRIPTOR_api-ms-win-crt-convert-l1-1-0 00494018     ucrt:api-ms-win-crt-convert-l1-1-0.dll
 0002:0001002c       __IMPORT_DESCRIPTOR_api-ms-win-crt-time-l1-1-0 0049402c     ucrt:api-ms-win-crt-time-l1-1-0.dll
 0002:00010040       __IMPORT_DESCRIPTOR_api-ms-win-crt-utility-l1-1-0 00494040     ucrt:api-ms-win-crt-utility-l1-1-0.dll
 0002:00010054       __IMPORT_DESCRIPTOR_api-ms-win-crt-math-l1-1-0 00494054     ucrt:api-ms-win-crt-math-l1-1-0.dll
 0002:00010068       __IMPORT_DESCRIPTOR_api-ms-win-crt-heap-l1-1-0 00494068     ucrt:api-ms-win-crt-heap-l1-1-0.dll
 0002:0001007c       __IMPORT_DESCRIPTOR_api-ms-win-crt-filesystem-l1-1-0 0049407c     ucrt:api-ms-win-crt-filesystem-l1-1-0.dll
 0002:00010090       __IMPORT_DESCRIPTOR_api-ms-win-crt-environment-l1-1-0 00494090     ucrt:api-ms-win-crt-environment-l1-1-0.dll
 0002:000100a4       __IMPORT_DESCRIPTOR_api-ms-win-crt-process-l1-1-0 004940a4     ucrt:api-ms-win-crt-process-l1-1-0.dll
 0002:000100b8       __IMPORT_DESCRIPTOR_api-ms-win-crt-locale-l1-1-0 004940b8     ucrt:api-ms-win-crt-locale-l1-1-0.dll
 0002:000100cc       __NULL_IMPORT_DESCRIPTOR   004940cc     opengl32:OPENGL32.dll
 0003:00000004       ?g_width@@3HA              00498004     main.obj
 0003:00000008       ?menuitems@TraceUI@@0PAUFl_Menu_Item@@A 00498008     TraceUI.obj
 0003:00000150       ?e_text@Fl@@2PADA          00498150     fltk:Fl.obj
 0003:00000154       ?e_clipboard_type@Fl@@2PBDB 00498154     fltk:Fl.obj
 0003:00000158       ?scrollbar_size_@Fl@@2HA   00498158     fltk:Fl.obj
 0003:0000015c       ?fl_lock_function@@3P6AXXZA 0049815c     fltk:Fl.obj
 0003:00000160       ?fl_unlock_function@@3P6AXXZA 00498160     fltk:Fl.obj
 0003:00000164       ?_display@Fl_Display_Device@@0PAV1@A 00498164     fltk:Fl.obj
 0003:00000168       ?enter@Fl_Tooltip@@2P6AXPAVFl_Widget@@@ZA 00498168     fltk:Fl.obj
 0003:0000016c       ?exit@Fl_Tooltip@@2P6AXPAVFl_Widget@@@ZA 0049816c     fltk:Fl.obj
 0003:00000178       ?fl_message_size_@@3HA     00498178     fltk:fl_ask.obj
 0003:0000017c       ?fl_no@@3PBDB              0049817c     fltk:fl_ask.obj
 0003:00000180       ?fl_yes@@3PBDB             00498180     fltk:fl_ask.obj
 0003:00000184       ?fl_ok@@3PBDB              00498184     fltk:fl_ask.obj
 0003:00000188       ?fl_cancel@@3PBDB          00498188     fltk:fl_ask.obj
 0003:0000018c       ?fl_close@@3PBDB           0049818c     fltk:fl_ask.obj
 0003:00000190       ?atclose@Fl@@2P6AXPAVFl_Window@@PAX@ZA 00498190     fltk:Fl_Window.obj
 0003:00000220       ?FL_NORMAL_SIZE@@3HA       00498220     fltk:Fl_Widget.obj
 0003:00000224       ?max_size_@Fl_RGB_Image@@0IA 00498224     fltk:Fl_Image.obj
 0003:00000228       ?delay_@Fl_Tooltip@@0MA    00498228     fltk:Fl_Tooltip.obj
 0003:0000022c       ?hoverdelay_@Fl_Tooltip@@0MA 0049822c     fltk:Fl_Tooltip.obj
 0003:00000230       ?textcolor_@Fl_Tooltip@@0IA 00498230     fltk:Fl_Tooltip.obj
 0003:00000234       ?size_@Fl_Tooltip@@0HA     00498234     fltk:Fl_Tooltip.obj
 0003:0000063c       ?lastEntrySet@Node@Fl_Preferences@@2HA 0049863c     fltk:Fl_Preferences.obj
 0003:00000654       ?class_id@Fl_Graphics_Driver@@2PBDB 00498654     fltk:Fl_Device.obj
 0003:00000658       ?class_id@Fl_GDI_Graphics_Driver@@2PBDB 00498658     fltk:Fl_Device.obj
 0003:0000065c       ?class_id@Fl_GDI_Printer_Graphics_Driver@@2PBDB 0049865c     fltk:Fl_Device.obj
 0003:00000660       ?class_id@Fl_Surface_Device@@2PBDB 00498660     fltk:Fl_Device.obj
 0003:00000664       ?class_id@Fl_Display_Device@@2PBDB 00498664     fltk:Fl_Device.obj
 0003:00000668       ?class_id@Fl_Device@@2PBDB 00498668     fltk:Fl_Device.obj
 0003:00000f10       ?fl_fonts@@3PAUFl_Fontdesc@@A 00498f10     fltk:fl_font.obj
 0003:000010ac       ?warning@Fl@@2P6AXPBDZZA   004990ac     fltk:Fl_abort.obj
 0003:000010b0       ?error@Fl@@2P6AXPBDZZA     004990b0     fltk:Fl_abort.obj
 0003:000010b4       ?fatal@Fl@@2P6AXPBDZZA     004990b4     fltk:Fl_abort.obj
 0003:000010b8       ?fullscreen_screen_top@Fl_Window@@0HA 004990b8     fltk:Fl_Window_fullscreen.obj
 0003:000010bc       ?fullscreen_screen_bottom@Fl_Window@@0HA 004990bc     fltk:Fl_Window_fullscreen.obj
 0003:000010c0       ?fullscreen_screen_left@Fl_Window@@0HA 004990c0     fltk:Fl_Window_fullscreen.obj
 0003:000010c4       ?fullscreen_screen_right@Fl_Window@@0HA 004990c4     fltk:Fl_Window_fullscreen.obj
 0003:000010c8       ?flIDropTarget@@3PAUIDropTarget@@A 004990c8     fltk:fl_dnd.obj
 0003:00001df8       ?add_favorites_label@Fl_File_Chooser@@2PBDB 00499df8     fltk:Fl_File_Chooser2.obj
 0003:00001dfc       ?all_files_label@Fl_File_Chooser@@2PBDB 00499dfc     fltk:Fl_File_Chooser2.obj
 0003:00001e00       ?custom_filter_label@Fl_File_Chooser@@2PBDB 00499e00     fltk:Fl_File_Chooser2.obj
 0003:00001e04       ?existing_file_label@Fl_File_Chooser@@2PBDB 00499e04     fltk:Fl_File_Chooser2.obj
 0003:00001e08       ?favorites_label@Fl_File_Chooser@@2PBDB 00499e08     fltk:Fl_File_Chooser2.obj
 0003:00001e0c       ?filename_label@Fl_File_Chooser@@2PBDB 00499e0c     fltk:Fl_File_Chooser2.obj
 0003:00001e10       ?filesystems_label@Fl_File_Chooser@@2PBDB 00499e10     fltk:Fl_File_Chooser2.obj
 0003:00001e14       ?manage_favorites_label@Fl_File_Chooser@@2PBDB 00499e14     fltk:Fl_File_Chooser2.obj
 0003:00001e18       ?new_directory_label@Fl_File_Chooser@@2PBDB 00499e18     fltk:Fl_File_Chooser2.obj
 0003:00001e1c       ?new_directory_tooltip@Fl_File_Chooser@@2PBDB 00499e1c     fltk:Fl_File_Chooser2.obj
 0003:00001e20       ?preview_label@Fl_File_Chooser@@2PBDB 00499e20     fltk:Fl_File_Chooser2.obj
 0003:00001e24       ?save_label@Fl_File_Chooser@@2PBDB 00499e24     fltk:Fl_File_Chooser2.obj
 0003:00001e28       ?show_label@Fl_File_Chooser@@2PBDB 00499e28     fltk:Fl_File_Chooser2.obj
 0003:00001e2c       ?hidden_label@Fl_File_Chooser@@2PBDB 00499e2c     fltk:Fl_File_Chooser2.obj
 0003:00001e30       ?sort@Fl_File_Chooser@@2P6AHPAPAUdirent@@0@ZA 00499e30     fltk:Fl_File_Chooser2.obj
 0003:00001e58       ___security_cookie_complement 00499e58     MSVCRT:gs_cookie.obj
 0003:00001e5c       ___security_cookie         00499e5c     MSVCRT:gs_cookie.obj
 0003:00001e60       __fltused                  00499e60     MSVCRT:fltused.obj
 0003:00001e64       ___scrt_native_dllmain_reason 00499e64     MSVCRT:utility.obj
 0003:00001e68       __Init_global_epoch        00499e68     MSVCRT:thread_safe_statics.obj
 0003:00001e70       ___isa_enabled             00499e70     MSVCRT:_cpu_disp_.obj
 0003:00001e80       ___scrt_default_matherr    00499e80     MSVCRT:matherr.obj
 0003:00001e84       ___scrt_ucrt_dll_is_in_use 00499e84     MSVCRT:ucrt_stubs.obj
 0003:00001e88       ??_R0?AVParseError@@@8     00499e88     RayTracer.obj
 0003:00001ea4       ??_R0?AVMaterial@@@8       00499ea4     RayTracer.obj
 0003:00001ebc       ??_R0?AVFl_Gl_Window@@@8   00499ebc     TraceGLWindow.obj
 0003:00001ed8       ??_R0?AVFl_Window@@@8      00499ed8     TraceGLWindow.obj
 0003:00001ef0       ??_R0?AVFl_Group@@@8       00499ef0     TraceGLWindow.obj
 0003:00001f08       ??_R0?AVFl_Widget@@@8      00499f08     TraceGLWindow.obj
 0003:00001f20       ??_R0?AVTraceGLWindow@@@8  00499f20     TraceGLWindow.obj
 0003:00001f3c       ??_R0?AVsystem_error@std@@@8 00499f3c     TraceUI.obj
 0003:00001f5c       ??_R0?AV_System_error@std@@@8 00499f5c     TraceUI.obj
 0003:00001f7c       ??_R0?AVruntime_error@std@@@8 00499f7c     TraceUI.obj
 0003:00001f9c       ??_R0?AVexception@std@@@8  00499f9c     TraceUI.obj
 0003:00001fb8       ??_R0?AVtask_canceled@Concurrency@@@8 00499fb8     TraceUI.obj
 0003:00001fe0       ??_R0?AVinvalid_operation@Concurrency@@@8 00499fe0     TraceUI.obj
 0003:0000200c       ??_R0?AV_Interruption_exception@details@Concurrency@@@8 0049a00c     TraceUI.obj
 0003:00002128       ??_R0?AV?$_Fake_no_copy_callable_adapter@A6AXPAVTraceUI@@HHH@ZAAPAV1@HAAHAAH@std@@@8 0049a128     TraceUI.obj
 0003:00002180       ??_R0?AV?$_Fake_no_copy_callable_adapter@A6AXPAVTraceUI@@HHH@ZAAPAV1@HHAAH@std@@@8 0049a180     TraceUI.obj
 0003:000022b8       ??_R0?AVerror_category@std@@@8 0049a2b8     TraceUI.obj
 0003:000022dc       ??_R0?AV_Generic_error_category@std@@@8 0049a2dc     TraceUI.obj
 0003:00002308       ??_R0?AV_Ref_count_base@std@@@8 0049a308     TraceUI.obj
 0003:0000232c       ??_R0?AUscheduler_interface@Concurrency@@@8 0049a32c     TraceUI.obj
 0003:0000235c       ??_R0?AV_DefaultPPLTaskScheduler@details@Concurrency@@@8 0049a35c     TraceUI.obj
 0003:00002398       ??_R0?AV_RefCounter@details@Concurrency@@@8 0049a398     TraceUI.obj
 0003:000023c8       ??_R0?AV_CancellationTokenRegistration@details@Concurrency@@@8 0049a3c8     TraceUI.obj
 0003:0000240c       ??_R0?AU_TaskProcHandle@details@Concurrency@@@8 0049a40c     TraceUI.obj
 0003:00002440       ??_R0?AV?$_Func_base@X$$V@std@@@8 0049a440     TraceUI.obj
 0003:00002464       ??_R0?AU_Task_impl_base@details@Concurrency@@@8 0049a464     TraceUI.obj
 0003:00002504       ??_R0?AV?$_Func_base@E$$V@std@@@8 0049a504     TraceUI.obj
 0003:00002528       ??_R0?AU?$_Task_impl@E@details@Concurrency@@@8 0049a528     TraceUI.obj
 0003:0000255c       ??_R0?AV_Future_error_category@std@@@8 0049a55c     TraceUI.obj
 0003:00002588       ??_R0?AV?$_Associated_state@H@std@@@8 0049a588     TraceUI.obj
 0003:000025b0       ??_R0?AV?$_Ref_count_obj@U_ExceptionHolder@details@Concurrency@@@std@@@8 0049a5b0     TraceUI.obj
 0003:00002600       ??_R0?AV?$_Ref_count_obj@U?$_Task_impl@E@details@Concurrency@@@std@@@8 0049a600     TraceUI.obj
 0003:0000264c       ??_R0?AV?$_Task_async_state@X$0A@@std@@@8 0049a64c     TraceUI.obj
 0003:00002678       ??_R0?AV?$_Packaged_state@$$A6AXXZ@std@@@8 0049a678     TraceUI.obj
 0003:000026a8       ??_R0?AV?$_Deferred_async_state@X@std@@@8 0049a6a8     TraceUI.obj
 0003:000026d4       ??_R0?AV?$_Task_async_state@X$00@std@@@8 0049a6d4     TraceUI.obj
 0003:000028a0       ??_R0?AV?$_Func_impl@V?$_Fake_no_copy_callable_adapter@A6AXPAVTraceUI@@HHH@ZAAPAV1@HHAAH@std@@V?$allocator@H@2@X$$V@std@@@8 0049a8a0     TraceUI.obj
 0003:00002c00       ??_R0?AV?$_Func_impl@V?$_Fake_no_copy_callable_adapter@A6AXPAVTraceUI@@HHH@ZAAPAV1@HAAHAAH@std@@V?$allocator@H@2@X$$V@std@@@8 0049ac00     TraceUI.obj
 0003:000030fc       ??_R0?AVObjTypeMismatch@@@8 0049b0fc     parse.obj
 0003:0000311c       ??_R0?AVException@@@8      0049b11c     parse.obj
 0003:00003134       ??_R0?AVObj@@@8            0049b134     parse.obj
 0003:00003148       ??_R0?AVScalarObj@@@8      0049b148     parse.obj
 0003:00003160       ??_R0?AVBooleanObj@@@8     0049b160     parse.obj
 0003:0000317c       ??_R0?AVIdObj@@@8          0049b17c     parse.obj
 0003:00003190       ??_R0?AVStringObj@@@8      0049b190     parse.obj
 0003:000031a8       ??_R0?AVTupleObj@@@8       0049b1a8     parse.obj
 0003:000031c0       ??_R0?AVDictObj@@@8        0049b1c0     parse.obj
 0003:000031d8       ??_R0?AVNamedObj@@@8       0049b1d8     parse.obj
 0003:000031f0       ??_R0?AVbad_cast@std@@@8   0049b1f0     read.obj
 0003:0000320c       ??_R0?AV?$basic_filebuf@DU?$char_traits@D@std@@@std@@@8 0049b20c     read.obj
 0003:00003248       ??_R0?AV?$basic_streambuf@DU?$char_traits@D@std@@@std@@@8 0049b248     read.obj
 0003:00003284       ??_R0?AV?$basic_ifstream@DU?$char_traits@D@std@@@std@@@8 0049b284     read.obj
 0003:000032c0       ??_R0?AV?$basic_istream@DU?$char_traits@D@std@@@std@@@8 0049b2c0     read.obj
 0003:000032fc       ??_R0?AV?$basic_ios@DU?$char_traits@D@std@@@std@@@8 0049b2fc     read.obj
 0003:00003334       ??_R0?AVios_base@std@@@8   0049b334     read.obj
 0003:00003350       ??_R0?AV?$_Iosb@H@std@@@8  0049b350     read.obj
 0003:0000336c       ??_R0?AVstrstreambuf@std@@@8 0049b36c     read.obj
 0003:0000338c       ??_R0?AVostrstream@std@@@8 0049b38c     read.obj
 0003:000033ac       ??_R0?AV?$basic_ostream@DU?$char_traits@D@std@@@std@@@8 0049b3ac     read.obj
 0003:000033e8       ??_R0?AVScene@@@8          0049b3e8     read.obj
 0003:000033fc       ??_R0?AVSceneObject@@@8    0049b3fc     read.obj
 0003:00003418       ??_R0?AVGeometry@@@8       0049b418     read.obj
 0003:00003430       ??_R0?AVSceneElement@@@8   0049b430     read.obj
 0003:0000344c       ??_R0?AVLight@@@8          0049b44c     read.obj
 0003:00003460       ??_R0?AVMaterialSceneObject@@@8 0049b460     read.obj
 0003:00003484       ??_R0?AVTrimesh@@@8        0049b484     read.obj
 0003:0000349c       ??_R0?AVBox@@@8            0049b49c     read.obj
 0003:000034b0       ??_R0?AVCone@@@8           0049b4b0     read.obj
 0003:000034c4       ??_R0?AVCylinder@@@8       0049b4c4     read.obj
 0003:000034dc       ??_R0?AVSphere@@@8         0049b4dc     read.obj
 0003:000034f4       ??_R0?AVSquare@@@8         0049b4f4     read.obj
 0003:0000350c       ??_R0?AVDirectionalLight@@@8 0049b50c     read.obj
 0003:0000352c       ??_R0?AVSingularMatrixException@@@8 0049b52c     vecmath.obj
 0003:00003554       ??_R0?AVPointLight@@@8     0049b554     light.obj
 0003:00003570       ??_R0?AVTrimeshFace@@@8    0049b570     trimesh.obj
 0003:0000358c       ??_R0?AVFl_Image@@@8       0049b58c     fltk:Fl.obj
 0003:000035a4       ??_R0?AVFl_RGB_Image@@@8   0049b5a4     fltk:Fl.obj
 0003:000035c0       ??_R0?AVFl_GDI_Graphics_Driver@@@8 0049b5c0     fltk:Fl.obj
 0003:000035e8       ??_R0?AVFl_Graphics_Driver@@@8 0049b5e8     fltk:Fl.obj
 0003:0000360c       ??_R0?AVFl_Device@@@8      0049b60c     fltk:Fl.obj
 0003:00003624       ??_R0?AVFl_Surface_Device@@@8 0049b624     fltk:Fl.obj
 0003:00003644       ??_R0?AVFl_Input_Choice@@@8 0049b644     fltk:Fl_Group.obj
 0003:00003664       ??_R0?AVInputMenuButton@Fl_Input_Choice@@@8 0049b664     fltk:Fl_Group.obj
 0003:00003694       ??_R0?AVFl_Menu_Button@@@8 0049b694     fltk:Fl_Group.obj
 0003:000036b4       ??_R0?AVFl_Menu_@@@8       0049b6b4     fltk:Fl_Group.obj
 0003:000036cc       ??_R0?AVFl_Spinner@@@8     0049b6cc     fltk:Fl_Group.obj
 0003:000036e8       ??_R0?AVFl_Menu_Bar@@@8    0049b6e8     fltk:Fl_Menu_Bar.obj
 0003:00003704       ??_R0?AVFl_Valuator@@@8    0049b704     fltk:Fl_Valuator.obj
 0003:00003720       ??_R0?AVFl_Value_Slider@@@8 0049b720     fltk:Fl_Value_Slider.obj
 0003:00003740       ??_R0?AVFl_Slider@@@8      0049b740     fltk:Fl_Value_Slider.obj
 0003:00003758       ??_R0?AVFl_Hor_Value_Slider@@@8 0049b758     fltk:Fl_Value_Slider.obj
 0003:0000377c       ??_R0?AVFl_Button@@@8      0049b77c     fltk:Fl_Button.obj
 0003:00003794       ??_R0?AVFl_Radio_Button@@@8 0049b794     fltk:Fl_Button.obj
 0003:000037b4       ??_R0?AVFl_Toggle_Button@@@8 0049b7b4     fltk:Fl_Button.obj
 0003:000037d4       ??_R0?AVFl_Light_Button@@@8 0049b7d4     fltk:Fl_Light_Button.obj
 0003:000037f4       ??_R0?AVFl_Radio_Light_Button@@@8 0049b7f4     fltk:Fl_Light_Button.obj
 0003:00003818       ??_R0?AVFl_TooltipBox@@@8  0049b818     fltk:Fl_Tooltip.obj
 0003:00003834       ??_R0?AVFl_Menu_Window@@@8 0049b834     fltk:Fl_Tooltip.obj
 0003:00003854       ??_R0?AVFl_Single_Window@@@8 0049b854     fltk:Fl_Tooltip.obj
 0003:00003874       ??_R0?AVFl_Double_Window@@@8 0049b874     fltk:Fl_Double_Window.obj
 0003:00003894       ??_R0?AVFl_Overlay_Window@@@8 0049b894     fltk:Fl_Double_Window.obj
 0003:000038b4       ??_R0?AVFl_Preferences@@@8 0049b8b4     fltk:Fl_Preferences.obj
 0003:000038d4       ??_R0?AVFl_Plugin@@@8      0049b8d4     fltk:Fl_Preferences.obj
 0003:000038ec       ??_R0?AVFl_Plugin_Manager@@@8 0049b8ec     fltk:Fl_Preferences.obj
 0003:0000390c       ??_R0?AVFl_Display_Device@@@8 0049b90c     fltk:Fl_Device.obj
 0003:0000392c       ??_R0?AVFl_Pixmap@@@8      0049b92c     fltk:Fl_Pixmap.obj
 0003:00003944       ??_R0?AVFl_Bitmap@@@8      0049b944     fltk:Fl_Bitmap.obj
 0003:0000395c       ??_R0?AUIUnknown@@@8       0049b95c     fltk:fl_dnd.obj
 0003:00003974       ??_R0?AUIDataObject@@@8    0049b974     fltk:fl_dnd.obj
 0003:00003990       ??_R0?AUIDropSource@@@8    0049b990     fltk:fl_dnd.obj
 0003:000039ac       ??_R0?AUIDropTarget@@@8    0049b9ac     fltk:fl_dnd.obj
 0003:000039c8       ??_R0?AVFLDropTarget@@@8   0049b9c8     fltk:fl_dnd.obj
 0003:000039e4       ??_R0?AVFLDropSource@@@8   0049b9e4     fltk:fl_dnd.obj
 0003:00003a00       ??_R0?AVFLDataObject@@@8   0049ba00     fltk:fl_dnd.obj
 0003:00003a1c       ??_R0?AVFl_Box@@@8         0049ba1c     fltk:Fl_Box.obj
 0003:00003a34       ??_R0?AVFl_Return_Button@@@8 0049ba34     fltk:Fl_Return_Button.obj
 0003:00003a54       ??_R0?AVFl_Input_@@@8      0049ba54     fltk:Fl_Input_.obj
 0003:00003a6c       ??_R0?AVFl_Input@@@8       0049ba6c     fltk:Fl_Input.obj
 0003:00003a84       ??_R0?AVFl_Float_Input@@@8 0049ba84     fltk:Fl_Input.obj
 0003:00003aa4       ??_R0?AVFl_Int_Input@@@8   0049baa4     fltk:Fl_Input.obj
 0003:00003ac0       ??_R0?AVFl_Multiline_Input@@@8 0049bac0     fltk:Fl_Input.obj
 0003:00003ae4       ??_R0?AVFl_Output@@@8      0049bae4     fltk:Fl_Input.obj
 0003:00003afc       ??_R0?AVFl_Multiline_Output@@@8 0049bafc     fltk:Fl_Input.obj
 0003:00003b20       ??_R0?AVFl_Secret_Input@@@8 0049bb20     fltk:Fl_Input.obj
 0003:00003b40       ??_R0?AVFl_Repeat_Button@@@8 0049bb40     fltk:Fl_Repeat_Button.obj
 0003:00003b60       ??_R0?AVmenutitle@@@8      0049bb60     fltk:Fl_Menu.obj
 0003:00003b78       ??_R0?AVmenuwindow@@@8     0049bb78     fltk:Fl_Menu.obj
 0003:00003b94       ??_R0?AVFl_Fill_Slider@@@8 0049bb94     fltk:Fl_Slider.obj
 0003:00003bb4       ??_R0?AVFl_Hor_Slider@@@8  0049bbb4     fltk:Fl_Slider.obj
 0003:00003bd0       ??_R0?AVFl_Hor_Fill_Slider@@@8 0049bbd0     fltk:Fl_Slider.obj
 0003:00003bf4       ??_R0?AVFl_Hor_Nice_Slider@@@8 0049bbf4     fltk:Fl_Slider.obj
 0003:00003c18       ??_R0?AVFl_Nice_Slider@@@8 0049bc18     fltk:Fl_Slider.obj
 0003:00003c38       ??_R0?AVFl_Tiled_Image@@@8 0049bc38     fltk:Fl_Tiled_Image.obj
 0003:00003c58       ??_R0?AVFl_Choice@@@8      0049bc58     fltk:Fl_Choice.obj
 0003:00003c70       ??_R0?AVFl_Tile@@@8        0049bc70     fltk:Fl_Tile.obj
 0003:00003c88       ??_R0?AVFl_Browser_@@@8    0049bc88     fltk:Fl_Browser_.obj
 0003:00003ca4       ??_R0?AVFl_Browser@@@8     0049bca4     fltk:Fl_File_Browser.obj
 0003:00003cc0       ??_R0?AVFl_File_Browser@@@8 0049bcc0     fltk:Fl_File_Browser.obj
 0003:00003ce0       ??_R0?AVFl_Check_Button@@@8 0049bce0     fltk:Fl_Check_Button.obj
 0003:00003d00       ??_R0?AVFl_File_Input@@@8  0049bd00     fltk:Fl_File_Input.obj
 0003:00003d1c       ??_R0?AVFl_Hold_Browser@@@8 0049bd1c     fltk:Fl_Browser.obj
 0003:00003d3c       ??_R0?AVFl_Multi_Browser@@@8 0049bd3c     fltk:Fl_Browser.obj
 0003:00003d5c       ??_R0?AVFl_Select_Browser@@@8 0049bd5c     fltk:Fl_Browser.obj
 0003:00003d7c       ??_R0?AVFl_Shared_Image@@@8 0049bd7c     fltk:Fl_Shared_Image.obj
 0003:00003d9c       ??_R0?AVFl_Scrollbar@@@8   0049bd9c     fltk:Fl_Scrollbar.obj
 0003:00003db8       ??_R0?AVFl_XBM_Image@@@8   0049bdb8     fltk:Fl_XBM_Image.obj
 0003:00003dd4       ??_R0?AVFl_XPM_Image@@@8   0049bdd4     fltk:Fl_XPM_Image.obj
 0003:00003df0       ??_R0?AVFl_Device_Plugin@@@8 0049bdf0     fltkgl:Fl_Gl_Device_Plugin.obj
 0003:00003e10       ??_R0?AVFl_Gl_Device_Plugin@@@8 0049be10     fltkgl:Fl_Gl_Device_Plugin.obj
 0003:00003e34       ??_R0?AVtype_info@@@8      0049be34     MSVCRT:std_type_info_static.obj
 0003:00003e4c       ??_R0?AVbad_alloc@std@@@8  0049be4c     MSVCRT:throw_bad_alloc.obj
 0003:00003e68       ??_R0?AVbad_array_new_length@std@@@8 0049be68     MSVCRT:throw_bad_alloc.obj
 0003:00003e90       ?optarg@@3PADA             0049be90     getopt.obj
 0003:00003e94       ?optind@@3HA               0049be94     getopt.obj
 0003:00003e98       ?opterr@@3HA               0049be98     getopt.obj
 0003:00003e9c       ?optopt@@3HA               0049be9c     getopt.obj
 0003:00003ea0       ?theRayTracer@@3PAVRayTracer@@A 0049bea0     main.obj
 0003:00003ea4       ?traceUI@@3PAVTraceUI@@A   0049bea4     main.obj
 0003:00003ea8       ?recursion_depth@@3HA      0049bea8     main.obj
 0003:00003eac       ?g_height@@3HA             0049beac     main.obj
 0003:00003eb0       ?bReport@@3_NA             0049beb0     main.obj
 0003:00003eb4       ?progname@@3PADA           0049beb4     main.obj
 0003:00003eb8       ?rayName@@3PADA            0049beb8     main.obj
 0003:00003ebc       ?imgName@@3PADA            0049bebc     main.obj
 0003:00003ec0       ?_OptionsStorage@?1??__local_stdio_printf_options@@9@4_KA 0049bec0     main.obj
 0003:00003ec8       ?_S_scheduler@?1??_GetStaticAmbientSchedulerRef@details@Concurrency@@YAAAV?$shared_ptr@Uscheduler_interface@Concurrency@@@std@@XZ@4V45@A 0049bec8     TraceUI.obj
 0003:00003ed0       ?$TSS0@?1??_GetStaticAmbientSchedulerRef@details@Concurrency@@YAAAV?$shared_ptr@Uscheduler_interface@Concurrency@@@std@@XZ@4HA 0049bed0     TraceUI.obj
 0003:00003ed8       ?_Static@?1???$_Immortalize@V_Generic_error_category@std@@@std@@YAAAV_Generic_error_category@1@XZ@4U?$_Immortalizer@V_Generic_error_category@std@@@1@A 0049bed8     TraceUI.obj
 0003:00003ee0       ?$TSS0@?1???$_Immortalize@V_Generic_error_category@std@@@std@@YAAAV_Generic_error_category@1@XZ@4HA 0049bee0     TraceUI.obj
 0003:00003ee4       ?_Static@?1???$_Immortalize@V_Future_error_category@std@@@std@@YAAAV_Future_error_category@1@XZ@4U?$_Immortalizer@V_Future_error_category@std@@@1@A 0049bee4     TraceUI.obj
 0003:00003eec       ?$TSS0@?1???$_Immortalize@V_Future_error_category@std@@@std@@YAAAV_Future_error_category@1@XZ@4HA 0049beec     TraceUI.obj
 0003:00003ef0       ?bmfh@@3UBMP_BITMAPFILEHEADER@@A 0049bef0     bitmap.obj
 0003:00003f00       ?bmih@@3UBMP_BITMAPINFOHEADER@@A 0049bf00     bitmap.obj
 0003:00003f28       ?_Stinit@?1??_Init@?$basic_filebuf@DU?$char_traits@D@std@@@std@@IAEXPAU_iobuf@@W4_Initfl@23@@Z@4U_Mbstatet@@A 0049bf28     read.obj
 0003:00003f30       ?_Psave@?$_Facetptr@V?$codecvt@DDU_Mbstatet@@@std@@@std@@2PBVfacet@locale@2@B 0049bf30     read.obj
 0003:00003f3c       ?first@Fl_X@@2PAV1@A       0049bf3c     fltk:Fl.obj
 0003:00003f40       ?fl_wake_msg@@3IA          0049bf40     fltk:Fl.obj
 0003:00003f5c       ?fl_window@@3PAUHWND__@@A  0049bf5c     fltk:Fl.obj
 0003:00003f60       ?fl_gc@@3PAUHDC__@@A       0049bf60     fltk:Fl.obj
 0003:00003f64       ?fl_msg@@3UtagMSG@@A       0049bf64     fltk:Fl.obj
 0003:00003f80       ?fl_local_grab@@3P6AHH@ZA  0049bf80     fltk:Fl.obj
 0003:00003f8c       ?fl_show_iconic@@3DA       0049bf8c     fltk:Fl.obj
 0003:00003f8e       ?options_read_@Fl@@0EA     0049bf8e     fltk:Fl.obj
 0003:00003f94       ?fl_disable_transient_for@@3HA 0049bf94     fltk:Fl.obj
 0003:00003fb4       ?e_number@Fl@@2HA          0049bfb4     fltk:Fl.obj
 0003:00003fb8       ?e_x@Fl@@2HA               0049bfb8     fltk:Fl.obj
 0003:00003fbc       ?e_y@Fl@@2HA               0049bfbc     fltk:Fl.obj
 0003:00003fc0       ?e_x_root@Fl@@2HA          0049bfc0     fltk:Fl.obj
 0003:00003fc4       ?e_y_root@Fl@@2HA          0049bfc4     fltk:Fl.obj
 0003:00003fc8       ?e_dx@Fl@@2HA              0049bfc8     fltk:Fl.obj
 0003:00003fcc       ?e_dy@Fl@@2HA              0049bfcc     fltk:Fl.obj
 0003:00003fd0       ?e_state@Fl@@2HA           0049bfd0     fltk:Fl.obj
 0003:00003fd4       ?fl_oldfocus@@3PAVFl_Widget@@A 0049bfd4     fltk:Fl.obj
 0003:00003fd8       ?e_clicks@Fl@@2HA          0049bfd8     fltk:Fl.obj
 0003:00003fe0       ?e_is_click@Fl@@2HA        0049bfe0     fltk:Fl.obj
 0003:00003fe4       ?e_keysym@Fl@@2HA          0049bfe4     fltk:Fl.obj
 0003:00003fe8       ?e_length@Fl@@2HA          0049bfe8     fltk:Fl.obj
 0003:00003fec       ?e_clipboard_data@Fl@@2PAXA 0049bfec     fltk:Fl.obj
 0003:00003ff0       ?e_dispatch@Fl@@2P6AHHPAVFl_Window@@@ZA 0049bff0     fltk:Fl.obj
 0003:00003ff4       ?belowmouse_@Fl@@2PAVFl_Widget@@A 0049bff4     fltk:Fl.obj
 0003:00003ff8       ?pushed_@Fl@@2PAVFl_Widget@@A 0049bff8     fltk:Fl.obj
 0003:00003ffc       ?focus_@Fl@@2PAVFl_Widget@@A 0049bffc     fltk:Fl.obj
 0003:00004000       ?damage_@Fl@@2HA           0049c000     fltk:Fl.obj
 0003:00004004       ?selection_owner_@Fl@@2PAVFl_Widget@@A 0049c004     fltk:Fl.obj
 0003:00004008       ?modal_@Fl@@2PAVFl_Window@@A 0049c008     fltk:Fl.obj
 0003:0000400c       ?grab_@Fl@@2PAVFl_Window@@A 0049c00c     fltk:Fl.obj
 0003:00004010       ?options_@Fl@@0PAEA        0049c010     fltk:Fl.obj
 0003:00004018       ?idle@Fl@@2P6AXXZA         0049c018     fltk:Fl.obj
 0003:0000401c       ?e_original_keysym@Fl@@2HA 0049c01c     fltk:Fl.obj
 0003:00004020       ?fl_selection_buffer@@3PAPADA 0049c020     fltk:Fl.obj
 0003:00004028       ?fl_selection_length@@3PAHA 0049c028     fltk:Fl.obj
 0003:00004030       ?fl_selection_buffer_length@@3PAHA 0049c030     fltk:Fl.obj
 0003:00004038       ?fl_i_own_selection@@3PADA 0049c038     fltk:Fl.obj
 0003:00004048       ?fl_capture@@3PAUHWND__@@A 0049c048     fltk:Fl.obj
 0003:0000404c       ?current_@Fl_Window@@1PAV1@A 0049c04c     fltk:Fl.obj
 0003:00004068       ?fl_xfocus@@3PAVFl_Window@@A 0049c068     fltk:Fl.obj
 0003:0000406c       ?fl_xmousewin@@3PAVFl_Window@@A 0049c06c     fltk:Fl.obj
 0003:0000407c       ?fl_display@@3PAUHINSTANCE__@@A 0049c07c     fltk:Fl.obj
 0003:000052d0       ?fl_message_font_@@3HA     0049d2d0     fltk:fl_ask.obj
 0003:000052f8       ?default_xclass_@Fl_Window@@0PADA 0049d2f8     fltk:Fl_Window.obj
 0003:000052fc       ?current_@Fl_Group@@0PAV1@A 0049d2fc     fltk:Fl_Group.obj
 0003:00005300       ?fl_menu_array_owner@@3PAVFl_Menu_@@A 0049d300     fltk:Fl_Menu_.obj
 0003:00005304       ?key_release_tracker@Fl_Button@@1PAVFl_Widget_Tracker@@A 0049d304     fltk:Fl_Button.obj
 0003:000065a0       ?awake_ring_@Fl@@2PAP6AXPAX@ZA 0049e5a0     fltk:Fl_lock.obj
 0003:000065a4       ?awake_data_@Fl@@2PAPAXA   0049e5a4     fltk:Fl_lock.obj
 0003:000065a8       ?awake_ring_size_@Fl@@2HA  0049e5a8     fltk:Fl_lock.obj
 0003:000065ac       ?awake_ring_head_@Fl@@2HA  0049e5ac     fltk:Fl_lock.obj
 0003:000065b0       ?awake_ring_tail_@Fl@@2HA  0049e5b0     fltk:Fl_lock.obj
 0003:000065b4       ?cs@@3U_RTL_CRITICAL_SECTION@@A 0049e5b4     fltk:Fl_lock.obj
 0003:000065cc       ?cs_ring@@3PAU_RTL_CRITICAL_SECTION@@A 0049e5cc     fltk:Fl_lock.obj
 0003:000065d4       ?compose_state@Fl@@2HA     0049e5d4     fltk:Fl_compose.obj
 0003:00006670       ?RGB_scaling_@Fl_Image@@0W4Fl_RGB_Scaling@@A 0049e670     fltk:Fl_Image.obj
 0003:00006674       ?font_@Fl_Tooltip@@0HA     0049e674     fltk:Fl_Tooltip.obj
 0003:00006678       ?widget_@Fl_Tooltip@@0PAVFl_Widget@@A 0049e678     fltk:Fl_Tooltip.obj
 0003:00006680       ?color_@Fl_Tooltip@@0IA    0049e680     fltk:Fl_Tooltip.obj
 0003:00006698       ?fl_palette@@3PAUHPALETTE__@@A 0049e698     fltk:fl_color.obj
 0003:0000669c       ?fl_current_xmap@@3PAUFl_XMap@@A 0049e69c     fltk:fl_color.obj
 0003:000066a0       ?fl_xmap@@3PAUFl_XMap@@A   0049e6a0     fltk:fl_color.obj
 0003:00007388       ?nameBuffer@Fl_Preferences@@0PADA 0049f388     fltk:Fl_Preferences.obj
 0003:00007408       ?uuidBuffer@Fl_Preferences@@0PADA 0049f408     fltk:Fl_Preferences.obj
 0003:00007430       ?runtimePrefs@Fl_Preferences@@0PAV1@A 0049f430     fltk:Fl_Preferences.obj
 0003:00007438       ?_surface@Fl_Surface_Device@@0PAV1@A 0049f438     fltk:Fl_Device.obj
 0003:0000743c       ?fl_graphics_driver@@3PAVFl_Graphics_Driver@@A 0049f43c     fltk:Fl_Device.obj
 0003:00007440       ?fl_line_width_@@3HA       0049f440     fltk:fl_line_style.obj
 0003:00007464       ?pixmap_bg_color@Fl_Pixmap@@0IA 0049f464     fltk:Fl_Pixmap.obj
 0003:00007468       ?_OptionsStorage@?1??__local_stdio_scanf_options@@9@4_KA 0049f468     fltk:Fl_Pixmap.obj
 0003:000078d8       ?scheme_@Fl@@2PBDB         0049f8d8     fltk:Fl_get_system_colors.obj
 0003:000078dc       ?scheme_bg_@Fl@@2PAVFl_Image@@A 0049f8dc     fltk:Fl_get_system_colors.obj
 0003:000078e4       ?fl_fg@@3PBDB              0049f8e4     fltk:Fl_get_system_colors.obj
 0003:000078e8       ?fl_bg@@3PBDB              0049f8e8     fltk:Fl_get_system_colors.obj
 0003:000078ec       ?fl_bg2@@3PBDB             0049f8ec     fltk:Fl_get_system_colors.obj
 0003:00007d18       ?no_fullscreen_x@Fl_Window@@0HA 0049fd18     fltk:Fl_Window_fullscreen.obj
 0003:00007d1c       ?no_fullscreen_y@Fl_Window@@0HA 0049fd1c     fltk:Fl_Window_fullscreen.obj
 0003:00007d20       ?no_fullscreen_w@Fl_Window@@0HA 0049fd20     fltk:Fl_Window_fullscreen.obj
 0003:00007d24       ?no_fullscreen_h@Fl_Window@@0HA 0049fd24     fltk:Fl_Window_fullscreen.obj
 0003:00007d28       ?fl_dnd_target_window@@3PAVFl_Window@@A 0049fd28     fltk:fl_dnd.obj
 0003:00007d2c       ?currDragRef@FLDropTarget@@0PAUIDataObject@@A 0049fd2c     fltk:fl_dnd.obj
 0003:00007d30       ?currDragData@FLDropTarget@@0PADA 0049fd30     fltk:fl_dnd.obj
 0003:00007d34       ?currDragSize@FLDropTarget@@0HA 0049fd34     fltk:fl_dnd.obj
 0003:00007d38       ?currDragResult@FLDropTarget@@0DA 0049fd38     fltk:fl_dnd.obj
 0003:00007d3c       ?flDropTarget@@3VFLDropTarget@@A 0049fd3c     fltk:fl_dnd.obj
 0003:00007d54       ?fl_codepage@@3IA          0049fd54     fltk:fl_utf8.obj
 0003:00007da8       ?up_down_pos@Fl_Input_@@0NA 0049fda8     fltk:Fl_Input_.obj
 0003:00007db0       ?was_up_down@Fl_Input_@@0HA 0049fdb0     fltk:Fl_Input_.obj
 0003:00007de8       ?fl_draw_shortcut@@3DA     0049fde8     fltk:fl_draw.obj
 0003:00007df8       ?shape_data_@Fl_Window@@1PAUshape_data_type@1@A 0049fdf8     fltk:Fl_Window_shape.obj
 0003:00007e64       ?prefs_@Fl_File_Chooser@@0VFl_Preferences@@A 0049fe64     fltk:Fl_File_Chooser2.obj
 0003:00008670       ?fl_mask_bitmap@@3PAPAEA   004a0670     fltk:fl_draw_pixmap.obj
 0003:00008674       ?win_pixmap_bg_color@@3IA  004a0674     fltk:fl_draw_pixmap.obj
 0003:0000909c       ?first_@Fl_File_Icon@@0PAV1@A 004a109c     fltk:Fl_File_Icon.obj
 0003:000090a0       ?images_@Fl_Shared_Image@@1PAPAV1@A 004a10a0     fltk:Fl_Shared_Image.obj
 0003:000090a4       ?num_images_@Fl_Shared_Image@@1HA 004a10a4     fltk:Fl_Shared_Image.obj
 0003:000090a8       ?alloc_images_@Fl_Shared_Image@@1HA 004a10a8     fltk:Fl_Shared_Image.obj
 0003:000090ac       ?handlers_@Fl_Shared_Image@@1PAP6APAVFl_Image@@PBDPAEH@ZA 004a10ac     fltk:Fl_Shared_Image.obj
 0003:000090b0       ?num_handlers_@Fl_Shared_Image@@1HA 004a10b0     fltk:Fl_Shared_Image.obj
 0003:000090b4       ?alloc_handlers_@Fl_Shared_Image@@1HA 004a10b4     fltk:Fl_Shared_Image.obj
 0003:000090b9       ?fl_overlay@@3EA           004a10b9     fltkgl:Fl_Gl_Window.obj
 0003:000090bc       ?fl_overlay_depth@@3HA     004a10bc     fltkgl:Fl_Gl_Window.obj
 0003:000090e0       ?fl_gl_load_plugin@@3HA    004a10e0     fltkgl:Fl_Gl_Device_Plugin.obj
 0003:000090f8       ___scrt_current_native_startup_state 004a10f8     MSVCRT:utility.obj
 0003:000090fc       ___scrt_native_startup_lock 004a10fc     MSVCRT:utility.obj
 0003:00009144       __tls_index                004a1144     MSVCRT:tlssup.obj
 0003:00009464       ___isa_available           004a1464     MSVCRT:_cpu_disp_.obj
 0003:00009468       ___favor                   004a1468     MSVCRT:_cpu_disp_.obj
 0003:0000946c       ___scrt_debugger_hook_flag 004a146c     MSVCRT:utility_desktop.obj
 0003:00009470       ?__type_info_root_node@@3U__type_info_node@@A 004a1470     MSVCRT:tncleanup.obj
 0003:00009488       ?_OptionsStorage@?1??__local_stdio_printf_options@@9@9 004a1488     <common>
 0003:00009490       ___dyn_tls_dtor_callback   004a1490     <common>
 0003:00009494       ___dyn_tls_init_callback   004a1494     <common>
 0004:00000000       __tls_start                004a2000     MSVCRT:tlssup.obj
 0004:00000004       __Init_thread_epoch        004a2004     MSVCRT:thread_safe_statics.obj
 0004:00000008       __tls_end                  004a2008     MSVCRT:tlssup.obj

 entry point at        0001:0007dc2e

 Static symbols

 0000:fff5c000       .debug$S                   00400000     ucrt:api-ms-win-crt-locale-l1-1-0.dll
 0000:fff5c000       .debug$S                   00400000     kernel32:KERNEL32.dll
 0000:fff5c000       .debug$S                   00400000     ucrt:api-ms-win-crt-string-l1-1-0.dll
 0000:fff5c000       .debug$S                   00400000     ucrt:api-ms-win-crt-string-l1-1-0.dll
 0000:fff5c000       .debug$S                   00400000     ucrt:api-ms-win-crt-string-l1-1-0.dll
 0000:fff5c000       .debug$S                   00400000     kernel32:KERNEL32.dll
 0000:fff5c000       .debug$S                   00400000     kernel32:KERNEL32.dll
 0000:fff5c000       .debug$S                   00400000     kernel32:KERNEL32.dll
 0000:fff5c000       .debug$S                   00400000     ucrt:api-ms-win-crt-heap-l1-1-0.dll
 0000:fff5c000       .debug$S                   00400000     ucrt:api-ms-win-crt-heap-l1-1-0.dll
 0000:fff5c000       .debug$S                   00400000     kernel32:KERNEL32.dll
 0000:fff5c000       .debug$S                   00400000     kernel32:KERNEL32.dll
 0002:fff7c000       __guard_fids__             00400000     MSVCRT:exe_winmain.obj
 0000:fff5c000       .debug$S                   00400000     kernel32:KERNEL32.dll
 0000:fff5c000       .debug$S                   00400000     msvcprt:MSVCP140.dll
 0000:fff5c000       .debug$S                   00400000     msvcprt:MSVCP140.dll
 0000:fff5c000       .debug$S                   00400000     kernel32:KERNEL32.dll
 0002:fff7c000       __guard_fids_?pre_c_initialization@@YAHXZ 00400000     MSVCRT:exe_winmain.obj
 0000:fff5c000       .debug$S                   00400000     ucrt:api-ms-win-crt-heap-l1-1-0.dll
 0000:fff5c000       .debug$S                   00400000     ucrt:api-ms-win-crt-string-l1-1-0.dll
 0000:fff5c000       .debug$S                   00400000     kernel32:KERNEL32.dll
 0000:fff5c000       .debug$S                   00400000     kernel32:KERNEL32.dll
 0002:fff7c000       __catchsym$?_Copy@?$basic_string@DU?$char_traits@D@std@@V?$allocator@D@2@@std@@QAEXI@Z$18 00400000     TraceUI.obj
 0000:fff5c000       .debug$S                   00400000     kernel32:KERNEL32.dll
 0002:fff7c000       __guard_fids_?__scrt_initialize_thread_safe_statics@@YAHXZ 00400000     MSVCRT:thread_safe_statics.obj
 0000:fff5c000       .debug$S                   00400000     ucrt:api-ms-win-crt-heap-l1-1-0.dll
 0000:fff5c000       .debug$S                   00400000     ucrt:api-ms-win-crt-string-l1-1-0.dll
 0000:fff5c000       .debug$S                   00400000     ucrt:api-ms-win-crt-string-l1-1-0.dll
 0000:fff5c000       .debug$S                   00400000     kernel32:KERNEL32.dll
 0002:fff7c000       __guard_fids__             00400000     MSVCRT:thread_safe_statics.obj
 0000:fff5c000       .debug$S                   00400000     ucrt:api-ms-win-crt-string-l1-1-0.dll
 0000:fff5c000       .debug$S                   00400000     kernel32:KERNEL32.dll
 0000:fff5c000       .debug$S                   00400000     kernel32:KERNEL32.dll
 0000:fff5c000       .debug$S                   00400000     kernel32:KERNEL32.dll
 0000:fff5c000       .debug$S                   00400000     kernel32:KERNEL32.dll
 0002:fff7c000       __guard_fids__             00400000     MSVCRT:throw_bad_alloc.obj
 0002:fff7c000       __guard_fids__             00400000     MSVCRT:throw_bad_alloc.obj
 0002:fff7c000       __guard_fids__             00400000     MSVCRT:throw_bad_alloc.obj
 0002:fff7c000       __guard_fids__             00400000     MSVCRT:throw_bad_alloc.obj
 0000:fff5c000       .debug$S                   00400000     kernel32:KERNEL32.dll
 0000:fff5c000       .debug$S                   00400000     kernel32:KERNEL32.dll
 0000:fff5c000       .debug$S                   00400000     kernel32:KERNEL32.dll
 0000:fff5c000       .debug$S                   00400000     kernel32:KERNEL32.dll
 0000:fff5c000       .debug$S                   00400000     kernel32:KERNEL32.dll
 0000:fff5c000       .debug$S                   00400000     kernel32:KERNEL32.dll
 0000:fff5c000       .debug$S                   00400000     kernel32:KERNEL32.dll
 0000:fff5c000       .debug$S                   00400000     kernel32:KERNEL32.dll
 0000:fff5c000       .debug$S                   00400000     kernel32:KERNEL32.dll
 0000:fff5c000       .debug$S                   00400000     kernel32:KERNEL32.dll
 0000:fff5c000       .debug$S                   00400000     kernel32:KERNEL32.dll
 0000:fff5c000       .debug$S                   00400000     kernel32:KERNEL32.dll
 0000:fff5c000       .debug$S                   00400000     kernel32:KERNEL32.dll
 0000:fff5c000       .debug$S                   00400000     kernel32:KERNEL32.dll
 0000:fff5c000       .debug$S                   00400000     kernel32:KERNEL32.dll
 0001:fffff000       __ehhandler$?_Copy@?$basic_string@DU?$char_traits@D@std@@V?$allocator@D@2@@std@@QAEXI@Z 00400000 f   read.obj
 0000:fff5c000       .debug$S                   00400000     kernel32:KERNEL32.dll
 0000:fff5c000       .debug$S                   00400000     ucrt:api-ms-win-crt-string-l1-1-0.dll
 0000:fff5c000       .debug$S                   00400000     ucrt:api-ms-win-crt-string-l1-1-0.dll
 0000:fff5c000       .debug$S                   00400000     ucrt:api-ms-win-crt-string-l1-1-0.dll
 0000:fff5c000       .debug$S                   00400000     kernel32:KERNEL32.dll
 0000:fff5c000       .debug$S                   00400000     ucrt:api-ms-win-crt-heap-l1-1-0.dll
 0002:fff7c000       __ehfuncinfo$??1Fl_Browser@@UAE@XZ 00400000     fltk:Fl_Browser.obj
 0001:fffff000       __ehhandler$??1Fl_Browser@@UAE@XZ 00400000 f   fltk:Fl_Browser.obj
 0000:fff5c000       .debug$S                   00400000     msvcprt:MSVCP140.dll
 0000:fff5c000       .debug$S                   00400000     kernel32:KERNEL32.dll
 0000:fff5c000       .debug$S                   00400000     opengl32:OPENGL32.dll
 0001:fffff000       __unwindfunclet$??$?6U?$char_traits@D@std@@@std@@YAAAV?$basic_ostream@DU?$char_traits@D@std@@@0@AAV10@PBD@Z$4 00400000 f   read.obj
 0000:fff5c000       .debug$S                   00400000     opengl32:OPENGL32.dll
 0000:fff5c000       .debug$S                   00400000     msvcprt:MSVCP140.dll
 0000:fff5c000       .debug$S                   00400000     msvcprt:MSVCP140.dll
 0000:fff5c000       .debug$S                   00400000     msvcprt:MSVCP140.dll
 0000:fff5c000       .debug$S                   00400000     ucrt:api-ms-win-crt-filesystem-l1-1-0.dll
 0000:fff5c000       .debug$S                   00400000     msvcprt:MSVCP140.dll
 0000:fff5c000       .debug$S                   00400000     opengl32:OPENGL32.dll
 0000:fff5c000       .debug$S                   00400000     ucrt:api-ms-win-crt-string-l1-1-0.dll
 0000:fff5c000       .debug$S                   00400000     opengl32:OPENGL32.dll
 0001:fffff000       __unwindfunclet$??0Fl_Pixmap@@QAE@PBQBD@Z$0 00400000 f   fltk:fl_cursor.obj
 0000:fff5c000       .debug$S                   00400000     opengl32:OPENGL32.dll
 0000:fff5c000       .debug$S                   00400000     opengl32:OPENGL32.dll
 0000:fff5c000       .debug$S                   00400000     opengl32:OPENGL32.dll
 0000:fff5c000       .debug$S                   00400000     opengl32:OPENGL32.dll
 0002:fff7c000       __unwindtable$??0Fl_Pixmap@@QAE@PBQBD@Z 00400000     fltk:fl_cursor.obj
 0000:fff5c000       .debug$S                   00400000     ucrt:api-ms-win-crt-string-l1-1-0.dll
 0000:fff5c000       .debug$S                   00400000     opengl32:OPENGL32.dll
 0000:fff5c000       .debug$S                   00400000     ucrt:api-ms-win-crt-string-l1-1-0.dll
 0000:fff5c000       .debug$S                   00400000     ucrt:api-ms-win-crt-string-l1-1-0.dll
 0000:fff5c000       .debug$S                   00400000     ucrt:api-ms-win-crt-stdio-l1-1-0.dll
 0000:fff5c000       .debug$S                   00400000     ucrt:api-ms-win-crt-stdio-l1-1-0.dll
 0000:fff5c000       .debug$S                   00400000     ucrt:api-ms-win-crt-stdio-l1-1-0.dll
 0000:fff5c000       .debug$S                   00400000     ucrt:api-ms-win-crt-stdio-l1-1-0.dll
 0000:fff5c000       .debug$S                   00400000     ucrt:api-ms-win-crt-stdio-l1-1-0.dll
 0000:fff5c000       .debug$S                   00400000     ucrt:api-ms-win-crt-string-l1-1-0.dll
 0000:fff5c000       .debug$S                   00400000     ucrt:api-ms-win-crt-string-l1-1-0.dll
 0000:fff5c000       .debug$S                   00400000     opengl32:OPENGL32.dll
 0000:fff5c000       .debug$S                   00400000     opengl32:OPENGL32.dll
 0000:fff5c000       .debug$S                   00400000     ucrt:api-ms-win-crt-string-l1-1-0.dll
 0000:fff5c000       .debug$S                   00400000     ucrt:api-ms-win-crt-string-l1-1-0.dll
 0000:fff5c000       .debug$S                   00400000     ucrt:api-ms-win-crt-stdio-l1-1-0.dll
 0000:fff5c000       .debug$S                   00400000     ucrt:api-ms-win-crt-stdio-l1-1-0.dll
 0000:fff5c000       .debug$S                   00400000     ucrt:api-ms-win-crt-stdio-l1-1-0.dll
 0000:fff5c000       .debug$S                   00400000     ucrt:api-ms-win-crt-stdio-l1-1-0.dll
 0000:fff5c000       .debug$S                   00400000     ucrt:api-ms-win-crt-stdio-l1-1-0.dll
 0000:fff5c000       .debug$S                   00400000     ucrt:api-ms-win-crt-stdio-l1-1-0.dll
 0000:fff5c000       .debug$S                   00400000     ucrt:api-ms-win-crt-stdio-l1-1-0.dll
 0000:fff5c000       .debug$S                   00400000     ucrt:api-ms-win-crt-string-l1-1-0.dll
 0000:fff5c000       .debug$S                   00400000     ucrt:api-ms-win-crt-string-l1-1-0.dll
 0000:fff5c000       .debug$S                   00400000     opengl32:OPENGL32.dll
 0000:fff5c000       .debug$S                   00400000     opengl32:OPENGL32.dll
 0000:fff5c000       .debug$S                   00400000     opengl32:OPENGL32.dll
 0000:fff5c000       .debug$S                   00400000     opengl32:OPENGL32.dll
 0000:fff5c000       .debug$S                   00400000     opengl32:OPENGL32.dll
 0000:fff5c000       .debug$S                   00400000     opengl32:OPENGL32.dll
 0000:fff5c000       .debug$S                   00400000     opengl32:OPENGL32.dll
 0000:fff5c000       .debug$S                   00400000     opengl32:OPENGL32.dll
 0000:fff5c000       .debug$S                   00400000     opengl32:OPENGL32.dll
 0000:fff5c000       .debug$S                   00400000     opengl32:OPENGL32.dll
 0000:fff5c000       .debug$S                   00400000     opengl32:OPENGL32.dll
 0000:fff5c000       .debug$S                   00400000     ucrt:api-ms-win-crt-string-l1-1-0.dll
 0000:fff5c000       .debug$S                   00400000     ucrt:api-ms-win-crt-string-l1-1-0.dll
 0000:fff5c000       .debug$S                   00400000     ucrt:api-ms-win-crt-string-l1-1-0.dll
 0000:fff5c000       .debug$S                   00400000     ucrt:api-ms-win-crt-time-l1-1-0.dll
 0000:fff5c000       .debug$S                   00400000     ucrt:api-ms-win-crt-time-l1-1-0.dll
 0000:fff5c000       .debug$S                   00400000     ucrt:api-ms-win-crt-stdio-l1-1-0.dll
 0000:fff5c000       .debug$S                   00400000     ucrt:api-ms-win-crt-stdio-l1-1-0.dll
 0000:fff5c000       .debug$S                   00400000     ucrt:api-ms-win-crt-utility-l1-1-0.dll
 0000:fff5c000       .debug$S                   00400000     ucrt:api-ms-win-crt-stdio-l1-1-0.dll
 0000:fff5c000       .debug$S                   00400000     opengl32:OPENGL32.dll
 0000:fff5c000       .debug$S                   00400000     ucrt:api-ms-win-crt-utility-l1-1-0.dll
 0000:fff5c000       .debug$S                   00400000     opengl32:OPENGL32.dll
 0000:fff5c000       .debug$S                   00400000     ucrt:api-ms-win-crt-utility-l1-1-0.dll
 0000:fff5c000       .debug$S                   00400000     opengl32:OPENGL32.dll
 0000:fff5c000       .debug$S                   00400000     opengl32:OPENGL32.dll
 0000:fff5c000       .debug$S                   00400000     ucrt:api-ms-win-crt-utility-l1-1-0.dll
 0000:fff5c000       .debug$S                   00400000     vcruntime:VCRUNTIME140.dll
 0000:fff5c000       .debug$S                   00400000     opengl32:OPENGL32.dll
 0000:fff5c000       .debug$S                   00400000     vcruntime:VCRUNTIME140.dll
 0000:fff5c000       .debug$S                   00400000     ucrt:api-ms-win-crt-stdio-l1-1-0.dll
 0000:fff5c000       .debug$S                   00400000     ucrt:api-ms-win-crt-stdio-l1-1-0.dll
 0000:fff5c000       .debug$S                   00400000     ucrt:api-ms-win-crt-stdio-l1-1-0.dll
 0000:fff5c000       .debug$S                   00400000     ucrt:api-ms-win-crt-stdio-l1-1-0.dll
 0000:fff5c000       .debug$S                   00400000     ucrt:api-ms-win-crt-stdio-l1-1-0.dll
 0000:fff5c000       .debug$S                   00400000     ucrt:api-ms-win-crt-stdio-l1-1-0.dll
 0000:fff5c000       .debug$S                   00400000     ucrt:api-ms-win-crt-stdio-l1-1-0.dll
 0000:fff5c000       .debug$S                   00400000     ucrt:api-ms-win-crt-stdio-l1-1-0.dll
 0000:fff5c000       .debug$S                   00400000     vcruntime:VCRUNTIME140.dll
 0000:fff5c000       .debug$S                   00400000     ucrt:api-ms-win-crt-runtime-l1-1-0.dll
 0000:fff5c000       .debug$S                   00400000     ucrt:api-ms-win-crt-runtime-l1-1-0.dll
 0000:fff5c000       .debug$S                   00400000     ucrt:api-ms-win-crt-runtime-l1-1-0.dll
 0000:fff5c000       .debug$S                   00400000     ucrt:api-ms-win-crt-runtime-l1-1-0.dll
 0000:fff5c000       .debug$S                   00400000     ucrt:api-ms-win-crt-runtime-l1-1-0.dll
 0000:fff5c000       .debug$S                   00400000     ucrt:api-ms-win-crt-runtime-l1-1-0.dll
 0000:fff5c000       .debug$S                   00400000     ucrt:api-ms-win-crt-runtime-l1-1-0.dll
 0000:fff5c000       .debug$S                   00400000     ucrt:api-ms-win-crt-runtime-l1-1-0.dll
 0000:fff5c000       .debug$S                   00400000     ucrt:api-ms-win-crt-runtime-l1-1-0.dll
 0000:fff5c000       .debug$S                   00400000     ucrt:api-ms-win-crt-runtime-l1-1-0.dll
 0000:fff5c000       .debug$S                   00400000     ucrt:api-ms-win-crt-runtime-l1-1-0.dll
 0000:fff5c000       .debug$S                   00400000     ucrt:api-ms-win-crt-runtime-l1-1-0.dll
 0000:fff5c000       .debug$S                   00400000     ucrt:api-ms-win-crt-runtime-l1-1-0.dll
 0000:fff5c000       .debug$S                   00400000     ucrt:api-ms-win-crt-runtime-l1-1-0.dll
 0000:fff5c000       .debug$S                   00400000     ucrt:api-ms-win-crt-runtime-l1-1-0.dll
 0000:fff5c000       .debug$S                   00400000     ucrt:api-ms-win-crt-runtime-l1-1-0.dll
 0000:fff5c000       .debug$S                   00400000     ucrt:api-ms-win-crt-runtime-l1-1-0.dll
 0000:fff5c000       .debug$S                   00400000     ucrt:api-ms-win-crt-runtime-l1-1-0.dll
 0000:fff5c000       .debug$S                   00400000     vcruntime:VCRUNTIME140.dll
 0000:fff5c000       .debug$S                   00400000     vcruntime:VCRUNTIME140.dll
 0000:fff5c000       .debug$S                   00400000     opengl32:OPENGL32.dll
 0000:fff5c000       .debug$S                   00400000     vcruntime:VCRUNTIME140.dll
 0000:fff5c000       .debug$S                   00400000     opengl32:OPENGL32.dll
 0000:fff5c000       .debug$S                   00400000     opengl32:OPENGL32.dll
 0000:fff5c000       .debug$S                   00400000     opengl32:OPENGL32.dll
 0000:fff5c000       .debug$S                   00400000     opengl32:OPENGL32.dll
 0000:fff5c000       .debug$S                   00400000     opengl32:OPENGL32.dll
 0000:fff5c000       .debug$S                   00400000     opengl32:OPENGL32.dll
 0000:fff5c000       .debug$S                   00400000     opengl32:OPENGL32.dll
 0002:fff7c000       __guard_fids_??__E_Fac_tidy_reg@std@@YAXXZ 00400000     msvcprt:locale0_implib.obj
 0002:fff7c000       __guard_fids__             00400000     msvcprt:locale0_implib.obj
 0000:fff5c000       .debug$S                   00400000     msvcprt:MSVCP140.dll
 0000:fff5c000       .debug$S                   00400000     msvcprt:MSVCP140.dll
 0000:fff5c000       .debug$S                   00400000     msvcprt:MSVCP140.dll
 0000:fff5c000       .debug$S                   00400000     msvcprt:MSVCP140.dll
 0000:fff5c000       .debug$S                   00400000     msvcprt:MSVCP140.dll
 0000:fff5c000       .debug$S                   00400000     msvcprt:MSVCP140.dll
 0000:fff5c000       .debug$S                   00400000     msvcprt:MSVCP140.dll
 0000:fff5c000       .debug$S                   00400000     msvcprt:MSVCP140.dll
 0000:fff5c000       .debug$S                   00400000     msvcprt:MSVCP140.dll
 0000:fff5c000       .debug$S                   00400000     msvcprt:MSVCP140.dll
 0000:fff5c000       .debug$S                   00400000     msvcprt:MSVCP140.dll
 0000:fff5c000       .debug$S                   00400000     msvcprt:MSVCP140.dll
 0000:fff5c000       .debug$S                   00400000     msvcprt:MSVCP140.dll
 0000:fff5c000       .debug$S                   00400000     msvcprt:MSVCP140.dll
 0000:fff5c000       .debug$S                   00400000     msvcprt:MSVCP140.dll
 0000:fff5c000       .debug$S                   00400000     msvcprt:MSVCP140.dll
 0000:fff5c000       .debug$S                   00400000     msvcprt:MSVCP140.dll
 0000:fff5c000       .debug$S                   00400000     msvcprt:MSVCP140.dll
 0002:fff7c000       __unwindtable$??0Fl_Pixmap@@QAE@PBQAD@Z 00400000     fltk:Fl_XPM_Image.obj
 0001:fffff000       __unwindfunclet$??0Fl_Pixmap@@QAE@PBQAD@Z$0 00400000 f   fltk:Fl_XPM_Image.obj
 0000:fff5c000       .debug$S                   00400000     vcruntime:VCRUNTIME140.dll
 0000:fff5c000       .debug$S                   00400000     msvcprt:MSVCP140.dll
 0001:fffff000       __ehhandler$??1_Sentry_base@?$basic_ostream@DU?$char_traits@D@std@@@std@@QAE@XZ 00400000 f   read.obj
 0001:fffff000       __ehhandler$??1sentry@?$basic_ostream@DU?$char_traits@D@std@@@std@@QAE@XZ 00400000 f   read.obj
 0000:fff5c000       .debug$S                   00400000     msvcprt:MSVCP140.dll
 0000:fff5c000       .debug$S                   00400000     msvcprt:MSVCP140.dll
 0001:fffff000       __unwindfunclet$??$_Insert_string@DU?$char_traits@D@std@@I@std@@YAAAV?$basic_ostream@DU?$char_traits@D@std@@@0@AAV10@QBDI@Z$3 00400000 f   read.obj
 0000:fff5c000       .debug$S                   00400000     msvcprt:MSVCP140.dll
 0000:fff5c000       .debug$S                   00400000     vcruntime:VCRUNTIME140.dll
 0000:fff5c000       .debug$S                   00400000     msvcprt:MSVCP140.dll
 0000:fff5c000       .debug$S                   00400000     msvcprt:MSVCP140.dll
 0000:fff5c000       .debug$S                   00400000     msvcprt:MSVCP140.dll
 0000:fff5c000       .debug$S                   00400000     msvcprt:MSVCP140.dll
 0000:fff5c000       .debug$S                   00400000     msvcprt:MSVCP140.dll
 0000:fff5c000       .debug$S                   00400000     msvcprt:MSVCP140.dll
 0000:fff5c000       .debug$S                   00400000     msvcprt:MSVCP140.dll
 0000:fff5c000       .debug$S                   00400000     msvcprt:MSVCP140.dll
 0000:fff5c000       .debug$S                   00400000     msvcprt:MSVCP140.dll
 0002:fff7c000       __catchsym$?_Copy@?$basic_string@DU?$char_traits@D@std@@V?$allocator@D@2@@std@@QAEXI@Z$18 00400000     read.obj
 0002:fff7c000       __guard_fids__             00400000     MSVCRT:throw_bad_alloc.obj
 0002:fff7c000       __guard_fids__             00400000     MSVCRT:throw_bad_alloc.obj
 0002:fff7c000       __guard_fids__             00400000     MSVCRT:throw_bad_alloc.obj
 0002:fff7c000       __guard_fids__             00400000     MSVCRT:throw_bad_alloc.obj
 0002:fff7c000       __guard_fids__             00400000     MSVCRT:std_type_info_static.obj
 0002:fff7c000       __guard_fids___guard_icall_checks_enforced 00400000     MSVCRT:guard_support.obj
 0002:fff7c000       __guard_fids__             00400000     MSVCRT:guard_support.obj
 0002:fff7c000       __guard_fids____scrt_set_unhandled_exception_filter 00400000     MSVCRT:utility_desktop.obj
 0000:fff5c000       .debug$S                   00400000     msvcprt:MSVCP140.dll
 0000:fff5c000       .debug$S                   00400000     msvcprt:MSVCP140.dll
 0000:fff5c000       .debug$S                   00400000     msvcprt:MSVCP140.dll
 0002:fff7c000       __catchsym$??$?6U?$char_traits@D@std@@@std@@YAAAV?$basic_ostream@DU?$char_traits@D@std@@@0@AAV10@PBD@Z$11 00400000     read.obj
 0000:fff5c000       .debug$S                   00400000     ucrt:api-ms-win-crt-filesystem-l1-1-0.dll
 0000:fff5c000       .debug$S                   00400000     msvcprt:MSVCP140.dll
 0000:fff5c000       .debug$S                   00400000     msvcprt:MSVCP140.dll
 0000:fff5c000       .debug$S                   00400000     msvcprt:MSVCP140.dll
 0002:fff7c000       __guard_fids___except_handler4 00400000     MSVCRT:_chandler4gs_.obj
 0000:fff5c000       .debug$S                   00400000     msvcprt:MSVCP140.dll
 0000:fff5c000       .debug$S                   00400000     ucrt:api-ms-win-crt-filesystem-l1-1-0.dll
 0000:fff5c000       .debug$S                   00400000     msvcprt:MSVCP140.dll
 0000:fff5c000       .debug$S                   00400000     ole32:ole32.dll
 0000:fff5c000       .debug$S                   00400000     ole32:ole32.dll
 0000:fff5c000       .debug$S                   00400000     ole32:ole32.dll
 0000:fff5c000       .debug$S                   00400000     ole32:ole32.dll
 0000:fff5c000       .debug$S                   00400000     ole32:ole32.dll
 0000:fff5c000       .debug$S                   00400000     shell32:SHELL32.dll
 0000:fff5c000       .debug$S                   00400000     advapi32:ADVAPI32.dll
 0000:fff5c000       .debug$S                   00400000     advapi32:ADVAPI32.dll
 0000:fff5c000       .debug$S                   00400000     advapi32:ADVAPI32.dll
 0000:fff5c000       .debug$S                   00400000     gdi32:GDI32.dll
 0000:fff5c000       .debug$S                   00400000     gdi32:GDI32.dll
 0000:fff5c000       .debug$S                   00400000     gdi32:GDI32.dll
 0000:fff5c000       .debug$S                   00400000     gdi32:GDI32.dll
 0000:fff5c000       .debug$S                   00400000     gdi32:GDI32.dll
 0000:fff5c000       .debug$S                   00400000     gdi32:GDI32.dll
 0000:fff5c000       .debug$S                   00400000     gdi32:GDI32.dll
 0000:fff5c000       .debug$S                   00400000     gdi32:GDI32.dll
 0000:fff5c000       .debug$S                   00400000     gdi32:GDI32.dll
 0000:fff5c000       .debug$S                   00400000     gdi32:GDI32.dll
 0000:fff5c000       .debug$S                   00400000     gdi32:GDI32.dll
 0000:fff5c000       .debug$S                   00400000     gdi32:GDI32.dll
 0000:fff5c000       .debug$S                   00400000     gdi32:GDI32.dll
 0000:fff5c000       .debug$S                   00400000     gdi32:GDI32.dll
 0000:fff5c000       .debug$S                   00400000     gdi32:GDI32.dll
 0000:fff5c000       .debug$S                   00400000     gdi32:GDI32.dll
 0000:fff5c000       .debug$S                   00400000     gdi32:GDI32.dll
 0000:fff5c000       .debug$S                   00400000     gdi32:GDI32.dll
 0000:fff5c000       .debug$S                   00400000     gdi32:GDI32.dll
 0000:fff5c000       .debug$S                   00400000     gdi32:GDI32.dll
 0000:fff5c000       .debug$S                   00400000     gdi32:GDI32.dll
 0000:fff5c000       .debug$S                   00400000     gdi32:GDI32.dll
 0000:fff5c000       .debug$S                   00400000     gdi32:GDI32.dll
 0000:fff5c000       .debug$S                   00400000     gdi32:GDI32.dll
 0000:fff5c000       .debug$S                   00400000     gdi32:GDI32.dll
 0000:fff5c000       .debug$S                   00400000     gdi32:GDI32.dll
 0000:fff5c000       .debug$S                   00400000     gdi32:GDI32.dll
 0000:fff5c000       .debug$S                   00400000     gdi32:GDI32.dll
 0000:fff5c000       .debug$S                   00400000     gdi32:GDI32.dll
 0000:fff5c000       .debug$S                   00400000     gdi32:GDI32.dll
 0000:fff5c000       .debug$S                   00400000     gdi32:GDI32.dll
 0000:fff5c000       .debug$S                   00400000     gdi32:GDI32.dll
 0000:fff5c000       .debug$S                   00400000     gdi32:GDI32.dll
 0000:fff5c000       .debug$S                   00400000     gdi32:GDI32.dll
 0000:fff5c000       .debug$S                   00400000     gdi32:GDI32.dll
 0000:fff5c000       .debug$S                   00400000     gdi32:GDI32.dll
 0000:fff5c000       .debug$S                   00400000     gdi32:GDI32.dll
 0000:fff5c000       .debug$S                   00400000     gdi32:GDI32.dll
 0002:fff7c000       __ehfuncinfo$??1_Sentry_base@?$basic_ostream@DU?$char_traits@D@std@@@std@@QAE@XZ 00400000     read.obj
 0000:fff5c000       .debug$S                   00400000     msvcprt:MSVCP140.dll
 0002:fff7c000       __unwindtable$??1sentry@?$basic_ostream@DU?$char_traits@D@std@@@std@@QAE@XZ 00400000     read.obj
 0000:fff5c000       .debug$S                   00400000     msvcprt:MSVCP140.dll
 0000:fff5c000       .debug$S                   00400000     msvcprt:MSVCP140.dll
 0000:fff5c000       .debug$S                   00400000     msvcprt:MSVCP140.dll
 0002:fff7c000       __catchsym$??$_Insert_string@DU?$char_traits@D@std@@I@std@@YAAAV?$basic_ostream@DU?$char_traits@D@std@@@0@AAV10@QBDI@Z$10 00400000     read.obj
 0000:fff5c000       .debug$S                   00400000     gdi32:GDI32.dll
 0000:fff5c000       .debug$S                   00400000     gdi32:GDI32.dll
 0000:fff5c000       .debug$S                   00400000     gdi32:GDI32.dll
 0000:fff5c000       .debug$S                   00400000     gdi32:GDI32.dll
 0000:fff5c000       .debug$S                   00400000     gdi32:GDI32.dll
 0000:fff5c000       .debug$S                   00400000     gdi32:GDI32.dll
 0000:fff5c000       .debug$S                   00400000     gdi32:GDI32.dll
 0000:fff5c000       .debug$S                   00400000     gdi32:GDI32.dll
 0000:fff5c000       .debug$S                   00400000     gdi32:GDI32.dll
 0000:fff5c000       .debug$S                   00400000     gdi32:GDI32.dll
 0000:fff5c000       .debug$S                   00400000     gdi32:GDI32.dll
 0000:fff5c000       .debug$S                   00400000     gdi32:GDI32.dll
 0000:fff5c000       .debug$S                   00400000     gdi32:GDI32.dll
 0000:fff5c000       .debug$S                   00400000     msvcprt:MSVCP140.dll
 0000:fff5c000       .debug$S                   00400000     msvcprt:MSVCP140.dll
 0000:fff5c000       .debug$S                   00400000     msvcprt:MSVCP140.dll
 0000:fff5c000       .debug$S                   00400000     msvcprt:MSVCP140.dll
 0000:fff5c000       .debug$S                   00400000     msvcprt:MSVCP140.dll
 0000:fff5c000       .debug$S                   00400000     msvcprt:MSVCP140.dll
 0000:fff5c000       .debug$S                   00400000     msvcprt:MSVCP140.dll
 0000:fff5c000       .debug$S                   00400000     msvcprt:MSVCP140.dll
 0001:fffff000       __ehhandler$?_Copy@?$basic_string@DU?$char_traits@D@std@@V?$allocator@D@2@@std@@QAEXI@Z 00400000 f   parse.obj
 0000:fff5c000       .debug$S                   00400000     msvcprt:MSVCP140.dll
 0000:fff5c000       .debug$S                   00400000     msvcprt:MSVCP140.dll
 0000:fff5c000       .debug$S                   00400000     msvcprt:MSVCP140.dll
 0000:fff5c000       .debug$S                   00400000     msvcprt:MSVCP140.dll
 0000:fff5c000       .debug$S                   00400000     msvcprt:MSVCP140.dll
 0000:fff5c000       .debug$S                   00400000     vcruntime:VCRUNTIME140.dll
 0000:fff5c000       .debug$S                   00400000     msvcprt:MSVCP140.dll
 0000:fff5c000       .debug$S                   00400000     msvcprt:MSVCP140.dll
 0000:fff5c000       .debug$S                   00400000     ucrt:api-ms-win-crt-convert-l1-1-0.dll
 0000:fff5c000       .debug$S                   00400000     vcruntime:VCRUNTIME140.dll
 0000:fff5c000       .debug$S                   00400000     vcruntime:VCRUNTIME140.dll
 0000:fff5c000       .debug$S                   00400000     vcruntime:VCRUNTIME140.dll
 0000:fff5c000       .debug$S                   00400000     msvcprt:MSVCP140.dll
 0000:fff5c000       .debug$S                   00400000     msvcprt:MSVCP140.dll
 0000:fff5c000       .debug$S                   00400000     msvcprt:MSVCP140.dll
 0000:fff5c000       .debug$S                   00400000     ucrt:api-ms-win-crt-filesystem-l1-1-0.dll
 0000:fff5c000       .debug$S                   00400000     msvcprt:MSVCP140.dll
 0000:fff5c000       .debug$S                   00400000     vcruntime:VCRUNTIME140.dll
 0000:fff5c000       .debug$S                   00400000     vcruntime:VCRUNTIME140.dll
 0000:fff5c000       .debug$S                   00400000     vcruntime:VCRUNTIME140.dll
 0000:fff5c000       .debug$S                   00400000     vcruntime:VCRUNTIME140.dll
 0000:fff5c000       .debug$S                   00400000     comctl32:COMCTL32.dll
 0000:fff5c000       .debug$S                   00400000     msvcprt:MSVCP140.dll
 0000:fff5c000       .debug$S                   00400000     ucrt:api-ms-win-crt-convert-l1-1-0.dll
 0000:fff5c000       .debug$S                   00400000     ucrt:api-ms-win-crt-convert-l1-1-0.dll
 0000:fff5c000       .debug$S                   00400000     ucrt:api-ms-win-crt-convert-l1-1-0.dll
 0000:fff5c000       .debug$S                   00400000     ucrt:api-ms-win-crt-convert-l1-1-0.dll
 0000:fff5c000       .debug$S                   00400000     ucrt:api-ms-win-crt-runtime-l1-1-0.dll
 0000:fff5c000       .debug$S                   00400000     ucrt:api-ms-win-crt-runtime-l1-1-0.dll
 0000:fff5c000       .debug$S                   00400000     ucrt:api-ms-win-crt-runtime-l1-1-0.dll
 0000:fff5c000       .debug$S                   00400000     ucrt:api-ms-win-crt-runtime-l1-1-0.dll
 0000:fff5c000       .debug$S                   00400000     ucrt:api-ms-win-crt-runtime-l1-1-0.dll
 0000:fff5c000       .debug$S                   00400000     ucrt:api-ms-win-crt-runtime-l1-1-0.dll
 0000:fff5c000       .debug$S                   00400000     msvcprt:MSVCP140.dll
 0000:fff5c000       .debug$S                   00400000     msvcprt:MSVCP140.dll
 0000:fff5c000       .debug$S                   00400000     msvcprt:MSVCP140.dll
 0000:fff5c000       .debug$S                   00400000     ucrt:api-ms-win-crt-runtime-l1-1-0.dll
 0000:fff5c000       .debug$S                   00400000     msvcprt:MSVCP140.dll
 0000:fff5c000       .debug$S                   00400000     ucrt:api-ms-win-crt-runtime-l1-1-0.dll
 0000:fff5c000       .debug$S                   00400000     ucrt:api-ms-win-crt-runtime-l1-1-0.dll
 0000:fff5c000       .debug$S                   00400000     msvcprt:MSVCP140.dll
 0000:fff5c000       .debug$S                   00400000     ucrt:api-ms-win-crt-runtime-l1-1-0.dll
 0000:fff5c000       .debug$S                   00400000     msvcprt:MSVCP140.dll
 0000:fff5c000       .debug$S                   00400000     msvcprt:MSVCP140.dll
 0000:fff5c000       .debug$S                   00400000     msvcprt:MSVCP140.dll
 0000:fff5c000       .debug$S                   00400000     msvcprt:MSVCP140.dll
 0000:fff5c000       .debug$S                   00400000     msvcprt:MSVCP140.dll
 0000:fff5c000       .debug$S                   00400000     ucrt:api-ms-win-crt-convert-l1-1-0.dll
 0000:fff5c000       .debug$S                   00400000     ucrt:api-ms-win-crt-environment-l1-1-0.dll
 0000:fff5c000       .debug$S                   00400000     ucrt:api-ms-win-crt-runtime-l1-1-0.dll
 0000:fff5c000       .debug$S                   00400000     ucrt:api-ms-win-crt-environment-l1-1-0.dll
 0000:fff5c000       .debug$S                   00400000     ucrt:api-ms-win-crt-process-l1-1-0.dll
 0000:fff5c000       .debug$S                   00400000     ucrt:api-ms-win-crt-math-l1-1-0.dll
 0000:fff5c000       .debug$S                   00400000     ucrt:api-ms-win-crt-math-l1-1-0.dll
 0000:fff5c000       .debug$S                   00400000     ucrt:api-ms-win-crt-math-l1-1-0.dll
 0000:fff5c000       .debug$S                   00400000     ucrt:api-ms-win-crt-environment-l1-1-0.dll
 0000:fff5c000       .debug$S                   00400000     ucrt:api-ms-win-crt-environment-l1-1-0.dll
 0000:fff5c000       .debug$S                   00400000     msvcprt:MSVCP140.dll
 0001:fffff000       __unwindfunclet$??0Fl_Pixmap@@QAE@PBQBD@Z$0 00400000 f   fltk:Fl_get_system_colors.obj
 0000:fff5c000       .debug$S                   00400000     msvcprt:MSVCP140.dll
 0002:fff7c000       __unwindtable$??0Fl_Pixmap@@QAE@PBQBD@Z 00400000     fltk:Fl_get_system_colors.obj
 0000:fff5c000       .debug$S                   00400000     ucrt:api-ms-win-crt-math-l1-1-0.dll
 0000:fff5c000       .debug$S                   00400000     ucrt:api-ms-win-crt-math-l1-1-0.dll
 0000:fff5c000       .debug$S                   00400000     ucrt:api-ms-win-crt-math-l1-1-0.dll
 0000:fff5c000       .debug$S                   00400000     ucrt:api-ms-win-crt-math-l1-1-0.dll
 0000:fff5c000       .debug$S                   00400000     ucrt:api-ms-win-crt-math-l1-1-0.dll
 0000:fff5c000       .debug$S                   00400000     ucrt:api-ms-win-crt-math-l1-1-0.dll
 0000:fff5c000       .debug$S                   00400000     msvcprt:MSVCP140.dll
 0000:fff5c000       .debug$S                   00400000     msvcprt:MSVCP140.dll
 0000:fff5c000       .debug$S                   00400000     msvcprt:MSVCP140.dll
 0000:fff5c000       .debug$S                   00400000     ucrt:api-ms-win-crt-filesystem-l1-1-0.dll
 0000:fff5c000       .debug$S                   00400000     msvcprt:MSVCP140.dll
 0000:fff5c000       .debug$S                   00400000     msvcprt:MSVCP140.dll
 0000:fff5c000       .debug$S                   00400000     ucrt:api-ms-win-crt-math-l1-1-0.dll
 0000:fff5c000       .debug$S                   00400000     ucrt:api-ms-win-crt-math-l1-1-0.dll
 0000:fff5c000       .debug$S                   00400000     ucrt:api-ms-win-crt-math-l1-1-0.dll
 0000:fff5c000       .debug$S                   00400000     ucrt:api-ms-win-crt-filesystem-l1-1-0.dll
 0000:fff5c000       .debug$S                   00400000     ucrt:api-ms-win-crt-math-l1-1-0.dll
 0000:fff5c000       .debug$S                   00400000     ucrt:api-ms-win-crt-math-l1-1-0.dll
 0000:fff5c000       .debug$S                   00400000     ucrt:api-ms-win-crt-math-l1-1-0.dll
 0000:fff5c000       .debug$S                   00400000     ucrt:api-ms-win-crt-filesystem-l1-1-0.dll
 0000:fff5c000       .debug$S                   00400000     ucrt:api-ms-win-crt-math-l1-1-0.dll
 0000:fff5c000       .debug$S                   00400000     ucrt:api-ms-win-crt-filesystem-l1-1-0.dll
 0000:fff5c000       .debug$S                   00400000     ucrt:api-ms-win-crt-locale-l1-1-0.dll
 0000:fff5c000       .debug$S                   00400000     msvcprt:MSVCP140.dll
 0000:fff5c000       .debug$S                   00400000     msvcprt:MSVCP140.dll
 0000:fff5c000       .debug$S                   00400000     ucrt:api-ms-win-crt-heap-l1-1-0.dll
 0000:fff5c000       .debug$S                   00400000     msvcprt:MSVCP140.dll
 0000:fff5c000       .debug$S                   00400000     ucrt:api-ms-win-crt-filesystem-l1-1-0.dll
 0000:fff5c000       .debug$S                   00400000     msvcprt:MSVCP140.dll
 0000:fff5c000       .debug$S                   00400000     ucrt:api-ms-win-crt-filesystem-l1-1-0.dll
 0000:fff5c000       .debug$S                   00400000     msvcprt:MSVCP140.dll
 0000:fff5c000       .debug$S                   00400000     ucrt:api-ms-win-crt-filesystem-l1-1-0.dll
 0000:fff5c000       .debug$S                   00400000     msvcprt:MSVCP140.dll
 0002:fff7c000       __catchsym$?_Copy@?$basic_string@DU?$char_traits@D@std@@V?$allocator@D@2@@std@@QAEXI@Z$18 00400000     parse.obj
 0000:fff5c000       .debug$S                   00400000     gdi32:GDI32.dll
 0000:fff5c000       .debug$S                   00400000     gdi32:GDI32.dll
 0000:fff5c000       .debug$S                   00400000     gdi32:GDI32.dll
 0000:fff5c000       .debug$S                   00400000     gdi32:GDI32.dll
 0000:fff5c000       .debug$S                   00400000     user32:USER32.dll
 0000:fff5c000       .debug$S                   00400000     user32:USER32.dll
 0000:fff5c000       .debug$S                   00400000     user32:USER32.dll
 0000:fff5c000       .debug$S                   00400000     user32:USER32.dll
 0000:fff5c000       .debug$S                   00400000     user32:USER32.dll
 0000:fff5c000       .debug$S                   00400000     user32:USER32.dll
 0000:fff5c000       .debug$S                   00400000     user32:USER32.dll
 0000:fff5c000       .debug$S                   00400000     user32:USER32.dll
 0000:fff5c000       .debug$S                   00400000     user32:USER32.dll
 0000:fff5c000       .debug$S                   00400000     user32:USER32.dll
 0000:fff5c000       .debug$S                   00400000     user32:USER32.dll
 0000:fff5c000       .debug$S                   00400000     user32:USER32.dll
 0000:fff5c000       .debug$S                   00400000     user32:USER32.dll
 0000:fff5c000       .debug$S                   00400000     user32:USER32.dll
 0000:fff5c000       .debug$S                   00400000     user32:USER32.dll
 0000:fff5c000       .debug$S                   00400000     user32:USER32.dll
 0000:fff5c000       .debug$S                   00400000     user32:USER32.dll
 0000:fff5c000       .debug$S                   00400000     user32:USER32.dll
 0000:fff5c000       .debug$S                   00400000     user32:USER32.dll
 0000:fff5c000       .debug$S                   00400000     user32:USER32.dll
 0000:fff5c000       .debug$S                   00400000     user32:USER32.dll
 0000:fff5c000       .debug$S                   00400000     user32:USER32.dll
 0000:fff5c000       .debug$S                   00400000     user32:USER32.dll
 0000:fff5c000       .debug$S                   00400000     user32:USER32.dll
 0000:fff5c000       .debug$S                   00400000     user32:USER32.dll
 0000:fff5c000       .debug$S                   00400000     user32:USER32.dll
 0000:fff5c000       .debug$S                   00400000     user32:USER32.dll
 0000:fff5c000       .debug$S                   00400000     user32:USER32.dll
 0000:fff5c000       .debug$S                   00400000     user32:USER32.dll
 0000:fff5c000       .debug$S                   00400000     user32:USER32.dll
 0000:fff5c000       .debug$S                   00400000     user32:USER32.dll
 0000:fff5c000       .debug$S                   00400000     user32:USER32.dll
 0000:fff5c000       .debug$S                   00400000     user32:USER32.dll
 0000:fff5c000       .debug$S                   00400000     user32:USER32.dll
 0000:fff5c000       .debug$S                   00400000     user32:USER32.dll
 0000:fff5c000       .debug$S                   00400000     user32:USER32.dll
 0000:fff5c000       .debug$S                   00400000     user32:USER32.dll
 0000:fff5c000       .debug$S                   00400000     user32:USER32.dll
 0000:fff5c000       .debug$S                   00400000     user32:USER32.dll
 0000:fff5c000       .debug$S                   00400000     user32:USER32.dll
 0000:fff5c000       .debug$S                   00400000     user32:USER32.dll
 0000:fff5c000       .debug$S                   00400000     user32:USER32.dll
 0000:fff5c000       .debug$S                   00400000     user32:USER32.dll
 0000:fff5c000       .debug$S                   00400000     user32:USER32.dll
 0000:fff5c000       .debug$S                   00400000     user32:USER32.dll
 0000:fff5c000       .debug$S                   00400000     user32:USER32.dll
 0000:fff5c000       .debug$S                   00400000     user32:USER32.dll
 0000:fff5c000       .debug$S                   00400000     user32:USER32.dll
 0000:fff5c000       .debug$S                   00400000     user32:USER32.dll
 0000:fff5c000       .debug$S                   00400000     user32:USER32.dll
 0000:fff5c000       .debug$S                   00400000     user32:USER32.dll
 0000:fff5c000       .debug$S                   00400000     user32:USER32.dll
 0000:fff5c000       .debug$S                   00400000     user32:USER32.dll
 0000:fff5c000       .debug$S                   00400000     user32:USER32.dll
 0000:fff5c000       .debug$S                   00400000     user32:USER32.dll
 0000:fff5c000       .debug$S                   00400000     user32:USER32.dll
 0000:fff5c000       .debug$S                   00400000     user32:USER32.dll
 0000:fff5c000       .debug$S                   00400000     user32:USER32.dll
 0000:fff5c000       .debug$S                   00400000     user32:USER32.dll
 0000:fff5c000       .debug$S                   00400000     user32:USER32.dll
 0000:fff5c000       .debug$S                   00400000     user32:USER32.dll
 0000:fff5c000       .debug$S                   00400000     user32:USER32.dll
 0000:fff5c000       .debug$S                   00400000     user32:USER32.dll
 0000:fff5c000       .debug$S                   00400000     user32:USER32.dll
 0000:fff5c000       .debug$S                   00400000     user32:USER32.dll
 0000:fff5c000       .debug$S                   00400000     user32:USER32.dll
 0000:fff5c000       .debug$S                   00400000     user32:USER32.dll
 0000:fff5c000       .debug$S                   00400000     user32:USER32.dll
 0000:fff5c000       .debug$S                   00400000     user32:USER32.dll
 0000:fff5c000       .debug$S                   00400000     user32:USER32.dll
 0000:fff5c000       .debug$S                   00400000     user32:USER32.dll
 0000:fff5c000       .debug$S                   00400000     user32:USER32.dll
 0000:fff5c000       .debug$S                   00400000     user32:USER32.dll
 0000:fff5c000       .debug$S                   00400000     kernel32:KERNEL32.dll
 0000:fff5c000       .debug$S                   00400000     kernel32:KERNEL32.dll
 0000:fff5c000       .debug$S                   00400000     kernel32:KERNEL32.dll
 0000:fff5c000       .debug$S                   00400000     kernel32:KERNEL32.dll
 0000:fff5c000       .debug$S                   00400000     msvcprt:MSVCP140.dll
 0000:fff5c000       .debug$S                   00400000     msvcprt:MSVCP140.dll
 0001:fffff000       __ehhandler$?_Copy@?$basic_string@DU?$char_traits@D@std@@V?$allocator@D@2@@std@@QAEXI@Z 00400000 f   TraceUI.obj
 0000:fff5c000       .debug$S                   00400000     kernel32:KERNEL32.dll
 0002:fff7c004       __guard_fids__             00400004     MSVCRT:exe_winmain.obj
 0002:fff7c008       __guard_fids__             00400008     MSVCRT:exe_winmain.obj
 0001:fffff008       __ehhandler$??0Fl_Pixmap@@QAE@PBQAD@Z 00400008 f   fltk:Fl_XPM_Image.obj
 0001:fffff008       __ehhandler$??0Fl_Pixmap@@QAE@PBQBD@Z 00400008 f   fltk:Fl_get_system_colors.obj
 0001:fffff008       __unwindfunclet$??$_Insert_string@DU?$char_traits@D@std@@I@std@@YAAAV?$basic_ostream@DU?$char_traits@D@std@@@0@AAV10@QBDI@Z$2 00400008 f   read.obj
 0002:fff7c008       __ehfuncinfo$??0Fl_Pixmap@@QAE@PBQBD@Z 00400008     fltk:fl_cursor.obj
 0001:fffff008       __ehhandler$??0Fl_Pixmap@@QAE@PBQBD@Z 00400008 f   fltk:fl_cursor.obj
 0002:fff7c008       __ehfuncinfo$??0Fl_Pixmap@@QAE@PBQAD@Z 00400008     fltk:Fl_XPM_Image.obj
 0002:fff7c008       __ehfuncinfo$??1sentry@?$basic_ostream@DU?$char_traits@D@std@@@std@@QAE@XZ 00400008     read.obj
 0001:fffff008       __unwindfunclet$??$?6U?$char_traits@D@std@@@std@@YAAAV?$basic_ostream@DU?$char_traits@D@std@@@0@AAV10@PBD@Z$2 00400008 f   read.obj
 0002:fff7c008       __ehfuncinfo$??0Fl_Pixmap@@QAE@PBQBD@Z 00400008     fltk:Fl_get_system_colors.obj
 0002:fff7c010       __unwindtable$?_Copy@?$basic_string@DU?$char_traits@D@std@@V?$allocator@D@2@@std@@QAEXI@Z 00400010     read.obj
 0002:fff7c010       __unwindtable$?_Copy@?$basic_string@DU?$char_traits@D@std@@V?$allocator@D@2@@std@@QAEXI@Z 00400010     TraceUI.obj
 0002:fff7c010       __unwindtable$?_Copy@?$basic_string@DU?$char_traits@D@std@@V?$allocator@D@2@@std@@QAEXI@Z 00400010     parse.obj
 0001:fffff010       __ehhandler$??$_Insert_string@DU?$char_traits@D@std@@I@std@@YAAAV?$basic_ostream@DU?$char_traits@D@std@@@0@AAV10@QBDI@Z 00400010 f   read.obj
 0002:fff7c010       __tryblocktable$??$_Insert_string@DU?$char_traits@D@std@@I@std@@YAAAV?$basic_ostream@DU?$char_traits@D@std@@@0@AAV10@QBDI@Z 00400010     read.obj
 0002:fff7c010       __tryblocktable$??$?6U?$char_traits@D@std@@@std@@YAAAV?$basic_ostream@DU?$char_traits@D@std@@@0@AAV10@PBD@Z 00400010     read.obj
 0001:fffff010       __ehhandler$??$?6U?$char_traits@D@std@@@std@@YAAAV?$basic_ostream@DU?$char_traits@D@std@@@0@AAV10@PBD@Z 00400010 f   read.obj
 0002:fff7c020       __tryblocktable$?_Copy@?$basic_string@DU?$char_traits@D@std@@V?$allocator@D@2@@std@@QAEXI@Z 00400020     parse.obj
 0002:fff7c020       __tryblocktable$?_Copy@?$basic_string@DU?$char_traits@D@std@@V?$allocator@D@2@@std@@QAEXI@Z 00400020     TraceUI.obj
 0002:fff7c020       __tryblocktable$?_Copy@?$basic_string@DU?$char_traits@D@std@@V?$allocator@D@2@@std@@QAEXI@Z 00400020     read.obj
 0002:fff7c024       __ehfuncinfo$??$_Insert_string@DU?$char_traits@D@std@@I@std@@YAAAV?$basic_ostream@DU?$char_traits@D@std@@@0@AAV10@QBDI@Z 00400024     read.obj
 0002:fff7c024       __ehfuncinfo$??$?6U?$char_traits@D@std@@@std@@YAAAV?$basic_ostream@DU?$char_traits@D@std@@@0@AAV10@PBD@Z 00400024     read.obj
 0002:fff7c034       __ehfuncinfo$?_Copy@?$basic_string@DU?$char_traits@D@std@@V?$allocator@D@2@@std@@QAEXI@Z 00400034     read.obj
 0002:fff7c034       __ehfuncinfo$?_Copy@?$basic_string@DU?$char_traits@D@std@@V?$allocator@D@2@@std@@QAEXI@Z 00400034     TraceUI.obj
 0002:fff7c034       __ehfuncinfo$?_Copy@?$basic_string@DU?$char_traits@D@std@@V?$allocator@D@2@@std@@QAEXI@Z 00400034     parse.obj
 0002:fff7c048       __unwindtable$??$_Insert_string@DU?$char_traits@D@std@@I@std@@YAAAV?$basic_ostream@DU?$char_traits@D@std@@@0@AAV10@QBDI@Z 00400048     read.obj
 0002:fff7c048       __unwindtable$??$?6U?$char_traits@D@std@@@std@@YAAAV?$basic_ostream@DU?$char_traits@D@std@@@0@AAV10@PBD@Z 00400048     read.obj
 0001:fffff08b       __catch$?_Copy@?$basic_string@DU?$char_traits@D@std@@V?$allocator@D@2@@std@@QAEXI@Z$0 0040008b f   read.obj
 0001:fffff08b       __catch$?_Copy@?$basic_string@DU?$char_traits@D@std@@V?$allocator@D@2@@std@@QAEXI@Z$0 0040008b f   parse.obj
 0001:fffff08b       __catch$?_Copy@?$basic_string@DU?$char_traits@D@std@@V?$allocator@D@2@@std@@QAEXI@Z$0 0040008b f   TraceUI.obj
 0001:fffff173       __catch$??$_Insert_string@DU?$char_traits@D@std@@I@std@@YAAAV?$basic_ostream@DU?$char_traits@D@std@@@0@AAV10@QBDI@Z$0 00400173 f   read.obj
 0001:fffff1a5       __catch$??$?6U?$char_traits@D@std@@@std@@YAAAV?$basic_ostream@DU?$char_traits@D@std@@@0@AAV10@PBD@Z$0 004001a5 f   read.obj
 0001:00000000       ??__Efl_display@@YAXXZ     00401000 f   fltk:Fl.obj
 0001:00000020       ??__Efl_gdi_display@@YAXXZ 00401020 f   fltk:Fl.obj
 0001:00000050       ??__Efl_gdi_driver@@YAXXZ  00401050 f   fltk:Fl.obj
 0001:00000080       ??__Ewin32_at_exit@@YAXXZ  00401080 f   fltk:Fl.obj
 0001:000000a0       ??__Ecurrent_label@@YAXXZ  004010a0 f   fltk:fl_file_dir.obj
 0001:000000b0       ??__E?color_@Fl_Tooltip@@0IA@@YAXXZ 004010b0 f   fltk:Fl_Tooltip.obj
 0001:000000d0       ??__Etile@@YAXXZ           004010d0 f   fltk:Fl_get_system_colors.obj
 0001:00000100       ??__EflDropTarget@@YAXXZ   00401100 f   fltk:fl_dnd.obj
 0001:00000130       ??__Eimage_new@@YAXXZ      00401130 f   fltk:Fl_File_Chooser.obj
 0001:00000160       ??__E?prefs_@Fl_File_Chooser@@0VFl_Preferences@@A@@YAXXZ 00401160 f   fltk:Fl_File_Chooser2.obj
 0001:00000190       ??__EGl_Device_Plugin@@YAXXZ 00401190 f   fltkgl:Fl_Gl_Device_Plugin.obj
 0001:000001ca       ??__E_Fac_tidy_reg@std@@YAXXZ 004011ca f   msvcprt:locale0_implib.obj
 0001:0000040c       $LN19                      0040140c     main.obj
 0001:00000420       $LN16                      00401420     main.obj
 0001:0000073a       __catch$??$_Construct@V?$_Deque_const_iterator@V?$_Deque_val@U?$_Deque_simple_types@PBVMaterial@@@std@@@std@@@std@@@?$deque@PBVMaterial@@V?$allocator@PBVMaterial@@@std@@@std@@QAEXV?$_Deque_const_iterator@V?$_Deque_val@U?$_Deque_simple_types@PBVMaterial@@@std@@@std@@@1@0@Z$0 0040173a f i RayTracer.obj
 0001:00000cd0       __catch$??$insert@V?$_Deque_const_iterator@V?$_Deque_val@U?$_Deque_simple_types@PBVMaterial@@@std@@@std@@@std@@@?$deque@PBVMaterial@@V?$allocator@PBVMaterial@@@std@@@std@@QAE?AV?$_Deque_iterator@V?$_Deque_val@U?$_Deque_simple_types@PBVMaterial@@@std@@@std@@@1@V?$_Deque_const_iterator@V?$_Deque_val@U?$_Deque_simple_types@PBVMaterial@@@std@@@std@@@1@00@Z$0 00401cd0 f i RayTracer.obj
 0001:00000dec       __catch$??$insert@V?$_Deque_const_iterator@V?$_Deque_val@U?$_Deque_simple_types@PBVMaterial@@@std@@@std@@@std@@@?$deque@PBVMaterial@@V?$allocator@PBVMaterial@@@std@@@std@@QAE?AV?$_Deque_iterator@V?$_Deque_val@U?$_Deque_simple_types@PBVMaterial@@@std@@@std@@@1@V?$_Deque_const_iterator@V?$_Deque_val@U?$_Deque_simple_types@PBVMaterial@@@std@@@std@@@1@00@Z$2 00401dec f i RayTracer.obj
 0001:000018ab       __catch$?_Copy@?$basic_string@DU?$char_traits@D@std@@V?$allocator@D@2@@std@@QAEXI@Z$0 004028ab f i RayTracer.obj
 0001:00002326       __catch$?loadScene@RayTracer@@QAE_NPBD@Z$0 00403326 f   RayTracer.obj
 0001:000041d0       ??$?0V<lambda_042c6af70ca74ab46830ae50c8c14c9e>@@@?$task@X@Concurrency@@QAE@V<lambda_042c6af70ca74ab46830ae50c8c14c9e>@@ABVtask_options@1@@Z 004051d0 f   TraceUI.obj
 0001:00004360       ??$?0V<lambda_0ebde0502725cf61f7686a2917d1749f>@@@?$task@X@Concurrency@@QAE@V<lambda_0ebde0502725cf61f7686a2917d1749f>@@ABVtask_options@1@@Z 00405360 f   TraceUI.obj
 0001:000044f0       ??$?0V<lambda_483208dc91e150c0c9b495b53fd62158>@@@?$task@X@Concurrency@@QAE@V<lambda_483208dc91e150c0c9b495b53fd62158>@@ABVtask_options@1@@Z 004054f0 f   TraceUI.obj
 0001:00004680       ??$?0V<lambda_855a1ef4dbee54ab7f2f1e055b9bdfad>@@@?$task@X@Concurrency@@QAE@V<lambda_855a1ef4dbee54ab7f2f1e055b9bdfad>@@ABVtask_options@1@@Z 00405680 f   TraceUI.obj
 0001:00004d60       ??$_Clone@X@?$_Func_impl@V<lambda_cab26a778e4185933e9c5b0cfaedfe5e>@@V?$allocator@H@std@@E$$V@std@@ABEPAV?$_Func_base@E$$V@1@PAXU?$integral_constant@_N$00@1@@Z 00405d60 f   TraceUI.obj
 0001:00004df2       __catch$??$_Clone@X@?$_Func_impl@V<lambda_cab26a778e4185933e9c5b0cfaedfe5e>@@V?$allocator@H@std@@E$$V@std@@ABEPAV?$_Func_base@E$$V@1@PAXU?$integral_constant@_N$00@1@@Z$0 00405df2 f   TraceUI.obj
 0001:00005190       ??$_LogWorkItemAndInvokeUserLambda@V?$function@$$A6AEXZ@std@@@?$_InitialTaskHandle@XV<lambda_042c6af70ca74ab46830ae50c8c14c9e>@@U_TypeSelectorNoAsync@details@Concurrency@@@?$task@E@Concurrency@@QBEEV?$function@$$A6AEXZ@std@@@Z 00406190 f   TraceUI.obj
 0001:00005230       ??$_LogWorkItemAndInvokeUserLambda@V?$function@$$A6AEXZ@std@@@?$_InitialTaskHandle@XV<lambda_0ebde0502725cf61f7686a2917d1749f>@@U_TypeSelectorNoAsync@details@Concurrency@@@?$task@E@Concurrency@@QBEEV?$function@$$A6AEXZ@std@@@Z 00406230 f   TraceUI.obj
 0001:000052d0       ??$_LogWorkItemAndInvokeUserLambda@V?$function@$$A6AEXZ@std@@@?$_InitialTaskHandle@XV<lambda_483208dc91e150c0c9b495b53fd62158>@@U_TypeSelectorNoAsync@details@Concurrency@@@?$task@E@Concurrency@@QBEEV?$function@$$A6AEXZ@std@@@Z 004062d0 f   TraceUI.obj
 0001:00005370       ??$_LogWorkItemAndInvokeUserLambda@V?$function@$$A6AEXZ@std@@@?$_InitialTaskHandle@XV<lambda_855a1ef4dbee54ab7f2f1e055b9bdfad>@@U_TypeSelectorNoAsync@details@Concurrency@@@?$task@E@Concurrency@@QBEEV?$function@$$A6AEXZ@std@@@Z 00406370 f   TraceUI.obj
 0001:00005410       ??$_Reset_impl@V<lambda_cab26a778e4185933e9c5b0cfaedfe5e>@@V?$allocator@H@std@@V?$_Func_impl@V<lambda_cab26a778e4185933e9c5b0cfaedfe5e>@@V?$allocator@H@std@@E$$V@3@U?$_Wrap_alloc@V?$allocator@V?$_Func_impl@V<lambda_cab26a778e4185933e9c5b0cfaedfe5e>@@V?$allocator@H@std@@E$$V@std@@@std@@@3@@?$_Func_class@E$$V@std@@IAEX$$QAV<lambda_cab26a778e4185933e9c5b0cfaedfe5e>@@ABV?$allocator@H@1@PAV?$_Func_impl@V<lambda_cab26a778e4185933e9c5b0cfaedfe5e>@@V?$allocator@H@std@@E$$V@1@AAU?$_Wrap_alloc@V?$allocator@V?$_Func_impl@V<lambda_cab26a778e4185933e9c5b0cfaedfe5e>@@V?$allocator@H@std@@E$$V@std@@@std@@@1@U?$integral_constant@_N$00@1@@Z 00406410 f   TraceUI.obj
 0001:000054a6       __catch$??$_Reset_impl@V<lambda_cab26a778e4185933e9c5b0cfaedfe5e>@@V?$allocator@H@std@@V?$_Func_impl@V<lambda_cab26a778e4185933e9c5b0cfaedfe5e>@@V?$allocator@H@std@@E$$V@3@U?$_Wrap_alloc@V?$allocator@V?$_Func_impl@V<lambda_cab26a778e4185933e9c5b0cfaedfe5e>@@V?$allocator@H@std@@E$$V@std@@@std@@@3@@?$_Func_class@E$$V@std@@IAEX$$QAV<lambda_cab26a778e4185933e9c5b0cfaedfe5e>@@ABV?$allocator@H@1@PAV?$_Func_impl@V<lambda_cab26a778e4185933e9c5b0cfaedfe5e>@@V?$allocator@H@std@@E$$V@1@AAU?$_Wrap_alloc@V?$allocator@V?$_Func_impl@V<lambda_cab26a778e4185933e9c5b0cfaedfe5e>@@V?$allocator@H@std@@E$$V@std@@@std@@@1@U?$integral_constant@_N$00@1@@Z$0 004064a6 f   TraceUI.obj
 0001:000054c0       ??$_TaskInitWithFunctor@XV<lambda_042c6af70ca74ab46830ae50c8c14c9e>@@@?$task@E@Concurrency@@AAEXABV<lambda_042c6af70ca74ab46830ae50c8c14c9e>@@@Z 004064c0 f   TraceUI.obj
 0001:00005540       ??$_TaskInitWithFunctor@XV<lambda_0ebde0502725cf61f7686a2917d1749f>@@@?$task@E@Concurrency@@AAEXABV<lambda_0ebde0502725cf61f7686a2917d1749f>@@@Z 00406540 f   TraceUI.obj
 0001:000055c0       ??$_TaskInitWithFunctor@XV<lambda_483208dc91e150c0c9b495b53fd62158>@@@?$task@E@Concurrency@@AAEXABV<lambda_483208dc91e150c0c9b495b53fd62158>@@@Z 004065c0 f   TraceUI.obj
 0001:00005640       ??$_TaskInitWithFunctor@XV<lambda_855a1ef4dbee54ab7f2f1e055b9bdfad>@@@?$task@E@Concurrency@@AAEXABV<lambda_855a1ef4dbee54ab7f2f1e055b9bdfad>@@@Z 00406640 f   TraceUI.obj
 0001:00005b90       ??$create_task@V<lambda_042c6af70ca74ab46830ae50c8c14c9e>@@@Concurrency@@YA?AV?$task@X@0@V<lambda_042c6af70ca74ab46830ae50c8c14c9e>@@Vtask_options@0@@Z 00406b90 f   TraceUI.obj
 0001:00005c50       ??$create_task@V<lambda_0ebde0502725cf61f7686a2917d1749f>@@@Concurrency@@YA?AV?$task@X@0@V<lambda_0ebde0502725cf61f7686a2917d1749f>@@Vtask_options@0@@Z 00406c50 f   TraceUI.obj
 0001:00005d10       ??$create_task@V<lambda_483208dc91e150c0c9b495b53fd62158>@@@Concurrency@@YA?AV?$task@X@0@V<lambda_483208dc91e150c0c9b495b53fd62158>@@Vtask_options@0@@Z 00406d10 f   TraceUI.obj
 0001:00005dd0       ??$create_task@V<lambda_855a1ef4dbee54ab7f2f1e055b9bdfad>@@@Concurrency@@YA?AV?$task@X@0@V<lambda_855a1ef4dbee54ab7f2f1e055b9bdfad>@@Vtask_options@0@@Z 00406dd0 f   TraceUI.obj
 0001:00006076       __catch$??$emplace_back@V?$future@X@std@@@?$vector@V?$future@X@std@@V?$allocator@V?$future@X@std@@@2@@std@@QAEX$$QAV?$future@X@1@@Z$0 00407076 f i TraceUI.obj
 0001:000061d0       ??$wait@V<lambda_cf8f1d893b3a87da856048d6f694e263>@@@condition_variable@std@@QAEXAAV?$unique_lock@Vmutex@std@@@1@V<lambda_cf8f1d893b3a87da856048d6f694e263>@@@Z 004071d0 f   TraceUI.obj
 0001:00006220       ??0<lambda_5e5ab22ea98f4361dbf159481d01f54d>@@QAE@ABQAU_ContinuationTaskHandleBase@details@Concurrency@@ABV?$shared_ptr@U_Task_impl_base@details@Concurrency@@@std@@@Z 00407220 f   TraceUI.obj
 0001:00006290       ??0<lambda_5e5ab22ea98f4361dbf159481d01f54d>@@QAE@ABV0@@Z 00407290 f   TraceUI.obj
 0001:00006310       ??0?$_CancellationTokenCallback@V<lambda_3b8ab8d2629adf61a42ee3fe177a046b>@@@details@Concurrency@@QAE@ABV<lambda_3b8ab8d2629adf61a42ee3fe177a046b>@@@Z 00407310 f   TraceUI.obj
 0001:00006400       ??0?$_PPLTaskHandle@EU?$_InitialTaskHandle@XV<lambda_042c6af70ca74ab46830ae50c8c14c9e>@@U_TypeSelectorNoAsync@details@Concurrency@@@?$task@E@Concurrency@@U_TaskProcHandle@details@3@@details@Concurrency@@QAE@ABV?$shared_ptr@U?$_Task_impl@E@details@Concurrency@@@std@@@Z 00407400 f   TraceUI.obj
 0001:00006470       ??0?$_PPLTaskHandle@EU?$_InitialTaskHandle@XV<lambda_0ebde0502725cf61f7686a2917d1749f>@@U_TypeSelectorNoAsync@details@Concurrency@@@?$task@E@Concurrency@@U_TaskProcHandle@details@3@@details@Concurrency@@QAE@ABV?$shared_ptr@U?$_Task_impl@E@details@Concurrency@@@std@@@Z 00407470 f   TraceUI.obj
 0001:000064e0       ??0?$_PPLTaskHandle@EU?$_InitialTaskHandle@XV<lambda_483208dc91e150c0c9b495b53fd62158>@@U_TypeSelectorNoAsync@details@Concurrency@@@?$task@E@Concurrency@@U_TaskProcHandle@details@3@@details@Concurrency@@QAE@ABV?$shared_ptr@U?$_Task_impl@E@details@Concurrency@@@std@@@Z 004074e0 f   TraceUI.obj
 0001:00006550       ??0?$_PPLTaskHandle@EU?$_InitialTaskHandle@XV<lambda_855a1ef4dbee54ab7f2f1e055b9bdfad>@@U_TypeSelectorNoAsync@details@Concurrency@@@?$task@E@Concurrency@@U_TaskProcHandle@details@3@@details@Concurrency@@QAE@ABV?$shared_ptr@U?$_Task_impl@E@details@Concurrency@@@std@@@Z 00407550 f   TraceUI.obj
 0001:00007890       ??1<lambda_3b8ab8d2629adf61a42ee3fe177a046b>@@QAE@XZ 00408890 f   TraceUI.obj
 0001:000078b0       ??1<lambda_cab26a778e4185933e9c5b0cfaedfe5e>@@QAE@XZ 004088b0 f   TraceUI.obj
 0001:000079d0       ??1?$_InitialTaskHandle@XV<lambda_042c6af70ca74ab46830ae50c8c14c9e>@@U_TypeSelectorNoAsync@details@Concurrency@@@?$task@E@Concurrency@@UAE@XZ 004089d0 f   TraceUI.obj
 0001:00007a60       ??1?$_InitialTaskHandle@XV<lambda_0ebde0502725cf61f7686a2917d1749f>@@U_TypeSelectorNoAsync@details@Concurrency@@@?$task@E@Concurrency@@UAE@XZ 00408a60 f   TraceUI.obj
 0001:00007af0       ??1?$_InitialTaskHandle@XV<lambda_483208dc91e150c0c9b495b53fd62158>@@U_TypeSelectorNoAsync@details@Concurrency@@@?$task@E@Concurrency@@UAE@XZ 00408af0 f   TraceUI.obj
 0001:00007b80       ??1?$_InitialTaskHandle@XV<lambda_855a1ef4dbee54ab7f2f1e055b9bdfad>@@U_TypeSelectorNoAsync@details@Concurrency@@@?$task@E@Concurrency@@UAE@XZ 00408b80 f   TraceUI.obj
 0001:00007c10       ??1?$_PPLTaskHandle@EU?$_InitialTaskHandle@XV<lambda_042c6af70ca74ab46830ae50c8c14c9e>@@U_TypeSelectorNoAsync@details@Concurrency@@@?$task@E@Concurrency@@U_TaskProcHandle@details@3@@details@Concurrency@@UAE@XZ 00408c10 f   TraceUI.obj
 0001:00007c90       ??1?$_PPLTaskHandle@EU?$_InitialTaskHandle@XV<lambda_0ebde0502725cf61f7686a2917d1749f>@@U_TypeSelectorNoAsync@details@Concurrency@@@?$task@E@Concurrency@@U_TaskProcHandle@details@3@@details@Concurrency@@UAE@XZ 00408c90 f   TraceUI.obj
 0001:00007d10       ??1?$_PPLTaskHandle@EU?$_InitialTaskHandle@XV<lambda_483208dc91e150c0c9b495b53fd62158>@@U_TypeSelectorNoAsync@details@Concurrency@@@?$task@E@Concurrency@@U_TaskProcHandle@details@3@@details@Concurrency@@UAE@XZ 00408d10 f   TraceUI.obj
 0001:00007d90       ??1?$_PPLTaskHandle@EU?$_InitialTaskHandle@XV<lambda_855a1ef4dbee54ab7f2f1e055b9bdfad>@@U_TypeSelectorNoAsync@details@Concurrency@@@?$task@E@Concurrency@@U_TaskProcHandle@details@3@@details@Concurrency@@UAE@XZ 00408d90 f   TraceUI.obj
 0001:00008a20       ??R<lambda_7c33b2c4310ad8c6be497d7a2a561bb8>@@QBEXXZ 00409a20 f   TraceUI.obj
 0001:00008b4b       __catch$??R<lambda_7c33b2c4310ad8c6be497d7a2a561bb8>@@QBEXXZ$0 00409b4b f   TraceUI.obj
 0001:00009952       __catch$?_Call_immediate@?$_Packaged_state@$$A6AXXZ@std@@QAEXXZ$0 0040a952 f i TraceUI.obj
 0001:00009cd0       ?_Copy@?$_Func_impl@V<lambda_042c6af70ca74ab46830ae50c8c14c9e>@@V?$allocator@H@std@@X$$V@std@@EBEPAV?$_Func_base@X$$V@2@PAX@Z 0040acd0 f   TraceUI.obj
 0001:00009cf0       ?_Copy@?$_Func_impl@V<lambda_0456396a71e3abd88ede77bdd2823d8e>@@V?$allocator@H@std@@X$$V@std@@EBEPAV?$_Func_base@X$$V@2@PAX@Z 0040acf0 f   TraceUI.obj
 0001:00009d10       ?_Copy@?$_Func_impl@V<lambda_0ebde0502725cf61f7686a2917d1749f>@@V?$allocator@H@std@@X$$V@std@@EBEPAV?$_Func_base@X$$V@2@PAX@Z 0040ad10 f   TraceUI.obj
 0001:00009d30       ?_Copy@?$_Func_impl@V<lambda_483208dc91e150c0c9b495b53fd62158>@@V?$allocator@H@std@@X$$V@std@@EBEPAV?$_Func_base@X$$V@2@PAX@Z 0040ad30 f   TraceUI.obj
 0001:00009d50       ?_Copy@?$_Func_impl@V<lambda_5e5ab22ea98f4361dbf159481d01f54d>@@V?$allocator@H@std@@X$$V@std@@EBEPAV?$_Func_base@X$$V@2@PAX@Z 0040ad50 f   TraceUI.obj
 0001:00009d80       ?_Copy@?$_Func_impl@V<lambda_7c33b2c4310ad8c6be497d7a2a561bb8>@@V?$allocator@H@std@@X$$V@std@@EBEPAV?$_Func_base@X$$V@2@PAX@Z 0040ad80 f   TraceUI.obj
 0001:00009da0       ?_Copy@?$_Func_impl@V<lambda_855a1ef4dbee54ab7f2f1e055b9bdfad>@@V?$allocator@H@std@@X$$V@std@@EBEPAV?$_Func_base@X$$V@2@PAX@Z 0040ada0 f   TraceUI.obj
 0001:00009dc0       ?_Copy@?$_Func_impl@V<lambda_cab26a778e4185933e9c5b0cfaedfe5e>@@V?$allocator@H@std@@E$$V@std@@EBEPAV?$_Func_base@E$$V@2@PAX@Z 0040adc0 f   TraceUI.obj
 0001:00009fd0       ?_Delete_this@?$_Func_impl@V<lambda_042c6af70ca74ab46830ae50c8c14c9e>@@V?$allocator@H@std@@X$$V@std@@EAEX_N@Z 0040afd0 f   TraceUI.obj
 0001:00009ff0       ?_Delete_this@?$_Func_impl@V<lambda_0456396a71e3abd88ede77bdd2823d8e>@@V?$allocator@H@std@@X$$V@std@@EAEX_N@Z 0040aff0 f   TraceUI.obj
 0001:0000a010       ?_Delete_this@?$_Func_impl@V<lambda_0ebde0502725cf61f7686a2917d1749f>@@V?$allocator@H@std@@X$$V@std@@EAEX_N@Z 0040b010 f   TraceUI.obj
 0001:0000a030       ?_Delete_this@?$_Func_impl@V<lambda_483208dc91e150c0c9b495b53fd62158>@@V?$allocator@H@std@@X$$V@std@@EAEX_N@Z 0040b030 f   TraceUI.obj
 0001:0000a050       ?_Delete_this@?$_Func_impl@V<lambda_5e5ab22ea98f4361dbf159481d01f54d>@@V?$allocator@H@std@@X$$V@std@@EAEX_N@Z 0040b050 f   TraceUI.obj
 0001:0000a0b0       ?_Delete_this@?$_Func_impl@V<lambda_7c33b2c4310ad8c6be497d7a2a561bb8>@@V?$allocator@H@std@@X$$V@std@@EAEX_N@Z 0040b0b0 f   TraceUI.obj
 0001:0000a0d0       ?_Delete_this@?$_Func_impl@V<lambda_855a1ef4dbee54ab7f2f1e055b9bdfad>@@V?$allocator@H@std@@X$$V@std@@EAEX_N@Z 0040b0d0 f   TraceUI.obj
 0001:0000a0f0       ?_Delete_this@?$_Func_impl@V<lambda_cab26a778e4185933e9c5b0cfaedfe5e>@@V?$allocator@H@std@@E$$V@std@@EAEX_N@Z 0040b0f0 f   TraceUI.obj
 0001:0000a2f4       $LN184                     0040b2f4     TraceUI.obj
 0001:0000a340       ?_Do_call@?$_Func_impl@V<lambda_042c6af70ca74ab46830ae50c8c14c9e>@@V?$allocator@H@std@@X$$V@std@@EAEXXZ 0040b340 f   TraceUI.obj
 0001:0000a350       ?_Do_call@?$_Func_impl@V<lambda_0456396a71e3abd88ede77bdd2823d8e>@@V?$allocator@H@std@@X$$V@std@@EAEXXZ 0040b350 f   TraceUI.obj
 0001:0000a360       ?_Do_call@?$_Func_impl@V<lambda_0ebde0502725cf61f7686a2917d1749f>@@V?$allocator@H@std@@X$$V@std@@EAEXXZ 0040b360 f   TraceUI.obj
 0001:0000a370       ?_Do_call@?$_Func_impl@V<lambda_483208dc91e150c0c9b495b53fd62158>@@V?$allocator@H@std@@X$$V@std@@EAEXXZ 0040b370 f   TraceUI.obj
 0001:0000a380       ?_Do_call@?$_Func_impl@V<lambda_5e5ab22ea98f4361dbf159481d01f54d>@@V?$allocator@H@std@@X$$V@std@@EAEXXZ 0040b380 f   TraceUI.obj
 0001:0000a390       ?_Do_call@?$_Func_impl@V<lambda_7c33b2c4310ad8c6be497d7a2a561bb8>@@V?$allocator@H@std@@X$$V@std@@EAEXXZ 0040b390 f   TraceUI.obj
 0001:0000a3a0       ?_Do_call@?$_Func_impl@V<lambda_855a1ef4dbee54ab7f2f1e055b9bdfad>@@V?$allocator@H@std@@X$$V@std@@EAEXXZ 0040b3a0 f   TraceUI.obj
 0001:0000a3b0       ?_Do_call@?$_Func_impl@V<lambda_cab26a778e4185933e9c5b0cfaedfe5e>@@V?$allocator@H@std@@E$$V@std@@EAEEXZ 0040b3b0 f   TraceUI.obj
 0001:0000a4b0       ?_Exec@?$_CancellationTokenCallback@V<lambda_3b8ab8d2629adf61a42ee3fe177a046b>@@@details@Concurrency@@MAEXXZ 0040b4b0 f   TraceUI.obj
 0001:0000a610       ?_Get@?$_Func_impl@V<lambda_042c6af70ca74ab46830ae50c8c14c9e>@@V?$allocator@H@std@@X$$V@std@@EBEPBXXZ 0040b610 f   TraceUI.obj
 0001:0000a620       ?_Get@?$_Func_impl@V<lambda_0456396a71e3abd88ede77bdd2823d8e>@@V?$allocator@H@std@@X$$V@std@@EBEPBXXZ 0040b620 f   TraceUI.obj
 0001:0000a630       ?_Get@?$_Func_impl@V<lambda_0ebde0502725cf61f7686a2917d1749f>@@V?$allocator@H@std@@X$$V@std@@EBEPBXXZ 0040b630 f   TraceUI.obj
 0001:0000a640       ?_Get@?$_Func_impl@V<lambda_483208dc91e150c0c9b495b53fd62158>@@V?$allocator@H@std@@X$$V@std@@EBEPBXXZ 0040b640 f   TraceUI.obj
 0001:0000a650       ?_Get@?$_Func_impl@V<lambda_5e5ab22ea98f4361dbf159481d01f54d>@@V?$allocator@H@std@@X$$V@std@@EBEPBXXZ 0040b650 f   TraceUI.obj
 0001:0000a660       ?_Get@?$_Func_impl@V<lambda_7c33b2c4310ad8c6be497d7a2a561bb8>@@V?$allocator@H@std@@X$$V@std@@EBEPBXXZ 0040b660 f   TraceUI.obj
 0001:0000a670       ?_Get@?$_Func_impl@V<lambda_855a1ef4dbee54ab7f2f1e055b9bdfad>@@V?$allocator@H@std@@X$$V@std@@EBEPBXXZ 0040b670 f   TraceUI.obj
 0001:0000a680       ?_Get@?$_Func_impl@V<lambda_cab26a778e4185933e9c5b0cfaedfe5e>@@V?$allocator@H@std@@E$$V@std@@EBEPBXXZ 0040b680 f   TraceUI.obj
 0001:0000abf0       ?_Move@?$_Func_impl@V<lambda_042c6af70ca74ab46830ae50c8c14c9e>@@V?$allocator@H@std@@X$$V@std@@EAEPAV?$_Func_base@X$$V@2@PAX@Z 0040bbf0 f   TraceUI.obj
 0001:0000ac10       ?_Move@?$_Func_impl@V<lambda_0456396a71e3abd88ede77bdd2823d8e>@@V?$allocator@H@std@@X$$V@std@@EAEPAV?$_Func_base@X$$V@2@PAX@Z 0040bc10 f   TraceUI.obj
 0001:0000ac30       ?_Move@?$_Func_impl@V<lambda_0ebde0502725cf61f7686a2917d1749f>@@V?$allocator@H@std@@X$$V@std@@EAEPAV?$_Func_base@X$$V@2@PAX@Z 0040bc30 f   TraceUI.obj
 0001:0000ac50       ?_Move@?$_Func_impl@V<lambda_483208dc91e150c0c9b495b53fd62158>@@V?$allocator@H@std@@X$$V@std@@EAEPAV?$_Func_base@X$$V@2@PAX@Z 0040bc50 f   TraceUI.obj
 0001:0000ac70       ?_Move@?$_Func_impl@V<lambda_5e5ab22ea98f4361dbf159481d01f54d>@@V?$allocator@H@std@@X$$V@std@@EAEPAV?$_Func_base@X$$V@2@PAX@Z 0040bc70 f   TraceUI.obj
 0001:0000acb0       ?_Move@?$_Func_impl@V<lambda_7c33b2c4310ad8c6be497d7a2a561bb8>@@V?$allocator@H@std@@X$$V@std@@EAEPAV?$_Func_base@X$$V@2@PAX@Z 0040bcb0 f   TraceUI.obj
 0001:0000acd0       ?_Move@?$_Func_impl@V<lambda_855a1ef4dbee54ab7f2f1e055b9bdfad>@@V?$allocator@H@std@@X$$V@std@@EAEPAV?$_Func_base@X$$V@2@PAX@Z 0040bcd0 f   TraceUI.obj
 0001:0000acf0       ?_Move@?$_Func_impl@V<lambda_cab26a778e4185933e9c5b0cfaedfe5e>@@V?$allocator@H@std@@E$$V@std@@EAEPAV?$_Func_base@E$$V@2@PAX@Z 0040bcf0 f   TraceUI.obj
 0001:0000b490       ?_ScheduleFuncWithAutoInline@details@Concurrency@@YAXABV?$function@$$A6AXXZ@std@@W4_TaskInliningMode@12@@Z 0040c490 f   TraceUI.obj
 0001:0000b617       __catch$?_ScheduleTask@_Task_impl_base@details@Concurrency@@QAEXPAU_TaskProcHandle@23@W4_TaskInliningMode@23@@Z$0 0040c617 f i TraceUI.obj
 0001:0000b631       __catch$?_ScheduleTask@_Task_impl_base@details@Concurrency@@QAEXPAU_TaskProcHandle@23@W4_TaskInliningMode@23@@Z$1 0040c631 f i TraceUI.obj
 0001:0000b64b       __catch$?_ScheduleTask@_Task_impl_base@details@Concurrency@@QAEXPAU_TaskProcHandle@23@W4_TaskInliningMode@23@@Z$2 0040c64b f i TraceUI.obj
 0001:0000b950       ?_Target_type@?$_Func_impl@V<lambda_042c6af70ca74ab46830ae50c8c14c9e>@@V?$allocator@H@std@@X$$V@std@@EBEABVtype_info@@XZ 0040c950 f   TraceUI.obj
 0001:0000b960       ?_Target_type@?$_Func_impl@V<lambda_0456396a71e3abd88ede77bdd2823d8e>@@V?$allocator@H@std@@X$$V@std@@EBEABVtype_info@@XZ 0040c960 f   TraceUI.obj
 0001:0000b970       ?_Target_type@?$_Func_impl@V<lambda_0ebde0502725cf61f7686a2917d1749f>@@V?$allocator@H@std@@X$$V@std@@EBEABVtype_info@@XZ 0040c970 f   TraceUI.obj
 0001:0000b980       ?_Target_type@?$_Func_impl@V<lambda_483208dc91e150c0c9b495b53fd62158>@@V?$allocator@H@std@@X$$V@std@@EBEABVtype_info@@XZ 0040c980 f   TraceUI.obj
 0001:0000b990       ?_Target_type@?$_Func_impl@V<lambda_5e5ab22ea98f4361dbf159481d01f54d>@@V?$allocator@H@std@@X$$V@std@@EBEABVtype_info@@XZ 0040c990 f   TraceUI.obj
 0001:0000b9a0       ?_Target_type@?$_Func_impl@V<lambda_7c33b2c4310ad8c6be497d7a2a561bb8>@@V?$allocator@H@std@@X$$V@std@@EBEABVtype_info@@XZ 0040c9a0 f   TraceUI.obj
 0001:0000b9b0       ?_Target_type@?$_Func_impl@V<lambda_855a1ef4dbee54ab7f2f1e055b9bdfad>@@V?$allocator@H@std@@X$$V@std@@EBEABVtype_info@@XZ 0040c9b0 f   TraceUI.obj
 0001:0000b9c0       ?_Target_type@?$_Func_impl@V<lambda_cab26a778e4185933e9c5b0cfaedfe5e>@@V?$allocator@H@std@@E$$V@std@@EBEABVtype_info@@XZ 0040c9c0 f   TraceUI.obj
 0001:0000bbea       __catch$?_Wait@_Task_impl_base@details@Concurrency@@QAE?AW4task_group_status@3@XZ$0 0040cbea f i TraceUI.obj
 0001:0000bc1f       __catch$?_Wait@_Task_impl_base@details@Concurrency@@QAE?AW4task_group_status@3@XZ$1 0040cc1f f i TraceUI.obj
 0001:0000bc43       __catch$?_Wait@_Task_impl_base@details@Concurrency@@QAE?AW4task_group_status@3@XZ$2 0040cc43 f i TraceUI.obj
 0001:0000c4f0       ?deallocate@?$_Wrap_alloc@V?$allocator@V?$_Func_impl@V<lambda_cab26a778e4185933e9c5b0cfaedfe5e>@@V?$allocator@H@std@@E$$V@std@@@std@@@std@@QAEXPAV?$_Func_impl@V<lambda_cab26a778e4185933e9c5b0cfaedfe5e>@@V?$allocator@H@std@@E$$V@2@I@Z 0040d4f0 f   TraceUI.obj
 0001:0000c610       ?invoke@?$_PPLTaskHandle@EU?$_InitialTaskHandle@XV<lambda_042c6af70ca74ab46830ae50c8c14c9e>@@U_TypeSelectorNoAsync@details@Concurrency@@@?$task@E@Concurrency@@U_TaskProcHandle@details@3@@details@Concurrency@@UBEXXZ 0040d610 f   TraceUI.obj
 0001:0000c70f       __catch$?invoke@?$_PPLTaskHandle@EU?$_InitialTaskHandle@XV<lambda_042c6af70ca74ab46830ae50c8c14c9e>@@U_TypeSelectorNoAsync@details@Concurrency@@@?$task@E@Concurrency@@U_TaskProcHandle@details@3@@details@Concurrency@@UBEXXZ$0 0040d70f f   TraceUI.obj
 0001:0000c755       __catch$?invoke@?$_PPLTaskHandle@EU?$_InitialTaskHandle@XV<lambda_042c6af70ca74ab46830ae50c8c14c9e>@@U_TypeSelectorNoAsync@details@Concurrency@@@?$task@E@Concurrency@@U_TaskProcHandle@details@3@@details@Concurrency@@UBEXXZ$1 0040d755 f   TraceUI.obj
 0001:0000c772       __catch$?invoke@?$_PPLTaskHandle@EU?$_InitialTaskHandle@XV<lambda_042c6af70ca74ab46830ae50c8c14c9e>@@U_TypeSelectorNoAsync@details@Concurrency@@@?$task@E@Concurrency@@U_TaskProcHandle@details@3@@details@Concurrency@@UBEXXZ$2 0040d772 f   TraceUI.obj
 0001:0000c7b0       ?invoke@?$_PPLTaskHandle@EU?$_InitialTaskHandle@XV<lambda_0ebde0502725cf61f7686a2917d1749f>@@U_TypeSelectorNoAsync@details@Concurrency@@@?$task@E@Concurrency@@U_TaskProcHandle@details@3@@details@Concurrency@@UBEXXZ 0040d7b0 f   TraceUI.obj
 0001:0000c8af       __catch$?invoke@?$_PPLTaskHandle@EU?$_InitialTaskHandle@XV<lambda_0ebde0502725cf61f7686a2917d1749f>@@U_TypeSelectorNoAsync@details@Concurrency@@@?$task@E@Concurrency@@U_TaskProcHandle@details@3@@details@Concurrency@@UBEXXZ$0 0040d8af f   TraceUI.obj
 0001:0000c8f5       __catch$?invoke@?$_PPLTaskHandle@EU?$_InitialTaskHandle@XV<lambda_0ebde0502725cf61f7686a2917d1749f>@@U_TypeSelectorNoAsync@details@Concurrency@@@?$task@E@Concurrency@@U_TaskProcHandle@details@3@@details@Concurrency@@UBEXXZ$1 0040d8f5 f   TraceUI.obj
 0001:0000c912       __catch$?invoke@?$_PPLTaskHandle@EU?$_InitialTaskHandle@XV<lambda_0ebde0502725cf61f7686a2917d1749f>@@U_TypeSelectorNoAsync@details@Concurrency@@@?$task@E@Concurrency@@U_TaskProcHandle@details@3@@details@Concurrency@@UBEXXZ$2 0040d912 f   TraceUI.obj
 0001:0000c950       ?invoke@?$_PPLTaskHandle@EU?$_InitialTaskHandle@XV<lambda_483208dc91e150c0c9b495b53fd62158>@@U_TypeSelectorNoAsync@details@Concurrency@@@?$task@E@Concurrency@@U_TaskProcHandle@details@3@@details@Concurrency@@UBEXXZ 0040d950 f   TraceUI.obj
 0001:0000ca4f       __catch$?invoke@?$_PPLTaskHandle@EU?$_InitialTaskHandle@XV<lambda_483208dc91e150c0c9b495b53fd62158>@@U_TypeSelectorNoAsync@details@Concurrency@@@?$task@E@Concurrency@@U_TaskProcHandle@details@3@@details@Concurrency@@UBEXXZ$0 0040da4f f   TraceUI.obj
 0001:0000ca95       __catch$?invoke@?$_PPLTaskHandle@EU?$_InitialTaskHandle@XV<lambda_483208dc91e150c0c9b495b53fd62158>@@U_TypeSelectorNoAsync@details@Concurrency@@@?$task@E@Concurrency@@U_TaskProcHandle@details@3@@details@Concurrency@@UBEXXZ$1 0040da95 f   TraceUI.obj
 0001:0000cab2       __catch$?invoke@?$_PPLTaskHandle@EU?$_InitialTaskHandle@XV<lambda_483208dc91e150c0c9b495b53fd62158>@@U_TypeSelectorNoAsync@details@Concurrency@@@?$task@E@Concurrency@@U_TaskProcHandle@details@3@@details@Concurrency@@UBEXXZ$2 0040dab2 f   TraceUI.obj
 0001:0000caf0       ?invoke@?$_PPLTaskHandle@EU?$_InitialTaskHandle@XV<lambda_855a1ef4dbee54ab7f2f1e055b9bdfad>@@U_TypeSelectorNoAsync@details@Concurrency@@@?$task@E@Concurrency@@U_TaskProcHandle@details@3@@details@Concurrency@@UBEXXZ 0040daf0 f   TraceUI.obj
 0001:0000cbef       __catch$?invoke@?$_PPLTaskHandle@EU?$_InitialTaskHandle@XV<lambda_855a1ef4dbee54ab7f2f1e055b9bdfad>@@U_TypeSelectorNoAsync@details@Concurrency@@@?$task@E@Concurrency@@U_TaskProcHandle@details@3@@details@Concurrency@@UBEXXZ$0 0040dbef f   TraceUI.obj
 0001:0000cc35       __catch$?invoke@?$_PPLTaskHandle@EU?$_InitialTaskHandle@XV<lambda_855a1ef4dbee54ab7f2f1e055b9bdfad>@@U_TypeSelectorNoAsync@details@Concurrency@@@?$task@E@Concurrency@@U_TaskProcHandle@details@3@@details@Concurrency@@UBEXXZ$1 0040dc35 f   TraceUI.obj
 0001:0000cc52       __catch$?invoke@?$_PPLTaskHandle@EU?$_InitialTaskHandle@XV<lambda_855a1ef4dbee54ab7f2f1e055b9bdfad>@@U_TypeSelectorNoAsync@details@Concurrency@@@?$task@E@Concurrency@@U_TaskProcHandle@details@3@@details@Concurrency@@UBEXXZ$2 0040dc52 f   TraceUI.obj
 0001:0000ce04       $LN45                      0040de04     TraceUI.obj
 0001:0000d472       __catch$??$?0U?$_Wrap_alloc@V?$allocator@U?$_Tree_node@U?$pair@$$CBV?$basic_string@DU?$char_traits@D@std@@V?$allocator@D@2@@std@@PAVObj@@@std@@PAX@std@@@std@@@std@@@?$_Tree@V?$_Tmap_traits@V?$basic_string@DU?$char_traits@D@std@@V?$allocator@D@2@@std@@PAVObj@@U?$less@V?$basic_string@DU?$char_traits@D@std@@V?$allocator@D@2@@std@@@2@V?$allocator@U?$pair@$$CBV?$basic_string@DU?$char_traits@D@std@@V?$allocator@D@2@@std@@PAVObj@@@std@@@2@$0A@@std@@@std@@QAE@ABV01@$$QAU?$_Wrap_alloc@V?$allocator@U?$_Tree_node@U?$pair@$$CBV?$basic_string@DU?$char_traits@D@std@@V?$allocator@D@2@@std@@PAVObj@@@std@@PAX@std@@@std@@@1@@Z$0 0040e472 f i parse.obj
 0001:0000d606       __catch$??$?6U?$char_traits@D@std@@@std@@YAAAV?$basic_ostream@DU?$char_traits@D@std@@@0@AAV10@D@Z$0 0040e606 f i parse.obj
 0001:0000d845       __catch$??$?6U?$char_traits@D@std@@@std@@YAAAV?$basic_ostream@DU?$char_traits@D@std@@@0@AAV10@PBD@Z$0 0040e845 f i parse.obj
 0001:0000da42       __catch$??$_Buynode@AAU?$pair@$$CBV?$basic_string@DU?$char_traits@D@std@@V?$allocator@D@2@@std@@PAVObj@@@std@@@?$_Tree_comp_alloc@V?$_Tmap_traits@V?$basic_string@DU?$char_traits@D@std@@V?$allocator@D@2@@std@@PAVObj@@U?$less@V?$basic_string@DU?$char_traits@D@std@@V?$allocator@D@2@@std@@@2@V?$allocator@U?$pair@$$CBV?$basic_string@DU?$char_traits@D@std@@V?$allocator@D@2@@std@@PAVObj@@@std@@@2@$0A@@std@@@std@@QAEPAU?$_Tree_node@U?$pair@$$CBV?$basic_string@DU?$char_traits@D@std@@V?$allocator@D@2@@std@@PAVObj@@@std@@PAX@1@AAU?$pair@$$CBV?$basic_string@DU?$char_traits@D@std@@V?$allocator@D@2@@std@@PAVObj@@@1@@Z$0 0040ea42 f i parse.obj
 0001:0000daf5       __catch$??$_Buynode@ABUpiecewise_construct_t@std@@V?$tuple@ABV?$basic_string@DU?$char_traits@D@std@@V?$allocator@D@2@@std@@@2@V?$tuple@$$V@2@@?$_Tree_comp_alloc@V?$_Tmap_traits@V?$basic_string@DU?$char_traits@D@std@@V?$allocator@D@2@@std@@PAVObj@@U?$less@V?$basic_string@DU?$char_traits@D@std@@V?$allocator@D@2@@std@@@2@V?$allocator@U?$pair@$$CBV?$basic_string@DU?$char_traits@D@std@@V?$allocator@D@2@@std@@PAVObj@@@std@@@2@$0A@@std@@@std@@QAEPAU?$_Tree_node@U?$pair@$$CBV?$basic_string@DU?$char_traits@D@std@@V?$allocator@D@2@@std@@PAVObj@@@std@@PAX@1@ABUpiecewise_construct_t@1@$$QAV?$tuple@ABV?$basic_string@DU?$char_traits@D@std@@V?$allocator@D@2@@std@@@1@$$QAV?$tuple@$$V@1@@Z$0 0040eaf5 f i parse.obj
 0001:0000dc2f       __catch$??$_Copy_nodes@U_Copy_tag@?$_Tree@V?$_Tmap_traits@V?$basic_string@DU?$char_traits@D@std@@V?$allocator@D@2@@std@@PAVObj@@U?$less@V?$basic_string@DU?$char_traits@D@std@@V?$allocator@D@2@@std@@@2@V?$allocator@U?$pair@$$CBV?$basic_string@DU?$char_traits@D@std@@V?$allocator@D@2@@std@@PAVObj@@@std@@@2@$0A@@std@@@std@@@?$_Tree@V?$_Tmap_traits@V?$basic_string@DU?$char_traits@D@std@@V?$allocator@D@2@@std@@PAVObj@@U?$less@V?$basic_string@DU?$char_traits@D@std@@V?$allocator@D@2@@std@@@2@V?$allocator@U?$pair@$$CBV?$basic_string@DU?$char_traits@D@std@@V?$allocator@D@2@@std@@PAVObj@@@std@@@2@$0A@@std@@@std@@IAEPAU?$_Tree_node@U?$pair@$$CBV?$basic_string@DU?$char_traits@D@std@@V?$allocator@D@2@@std@@PAVObj@@@std@@PAX@1@PAU21@0U_Copy_tag@01@@Z$0 0040ec2f f i parse.obj
 0001:0000e022       __catch$??$_Insert_hint@AAU?$pair@$$CBV?$basic_string@DU?$char_traits@D@std@@V?$allocator@D@2@@std@@PAVObj@@@std@@PAU?$_Tree_node@U?$pair@$$CBV?$basic_string@DU?$char_traits@D@std@@V?$allocator@D@2@@std@@PAVObj@@@std@@PAX@2@@?$_Tree@V?$_Tmap_traits@V?$basic_string@DU?$char_traits@D@std@@V?$allocator@D@2@@std@@PAVObj@@U?$less@V?$basic_string@DU?$char_traits@D@std@@V?$allocator@D@2@@std@@@2@V?$allocator@U?$pair@$$CBV?$basic_string@DU?$char_traits@D@std@@V?$allocator@D@2@@std@@PAVObj@@@std@@@2@$0A@@std@@@std@@IAE?AV?$_Tree_iterator@V?$_Tree_val@U?$_Tree_simple_types@U?$pair@$$CBV?$basic_string@DU?$char_traits@D@std@@V?$allocator@D@2@@std@@PAVObj@@@std@@@std@@@std@@@1@V?$_Tree_const_iterator@V?$_Tree_val@U?$_Tree_simple_types@U?$pair@$$CBV?$basic_string@DU?$char_traits@D@std@@V?$allocator@D@2@@std@@PAVObj@@@std@@@std@@@std@@@1@AAU?$pair@$$CBV?$basic_string@DU?$char_traits@D@std@@V?$allocator@D@2@@std@@PAVObj@@@1@PAU?$_Tree_node@U?$pair@$$CBV?$basic_string@DU?$char_traits@D@std@@V?$allocator@D@2@@std@@PAVObj@@@std@@PAX@1@@Z$0 0040f022 f i parse.obj
 0001:0000e2ed       __catch$??$_Insert_nohint@AAU?$pair@$$CBV?$basic_string@DU?$char_traits@D@std@@V?$allocator@D@2@@std@@PAVObj@@@std@@PAU?$_Tree_node@U?$pair@$$CBV?$basic_string@DU?$char_traits@D@std@@V?$allocator@D@2@@std@@PAVObj@@@std@@PAX@2@@?$_Tree@V?$_Tmap_traits@V?$basic_string@DU?$char_traits@D@std@@V?$allocator@D@2@@std@@PAVObj@@U?$less@V?$basic_string@DU?$char_traits@D@std@@V?$allocator@D@2@@std@@@2@V?$allocator@U?$pair@$$CBV?$basic_string@DU?$char_traits@D@std@@V?$allocator@D@2@@std@@PAVObj@@@std@@@2@$0A@@std@@@std@@IAE?AU?$pair@V?$_Tree_iterator@V?$_Tree_val@U?$_Tree_simple_types@U?$pair@$$CBV?$basic_string@DU?$char_traits@D@std@@V?$allocator@D@2@@std@@PAVObj@@@std@@@std@@@std@@@std@@_N@1@_NAAU?$pair@$$CBV?$basic_string@DU?$char_traits@D@std@@V?$allocator@D@2@@std@@PAVObj@@@1@PAU?$_Tree_node@U?$pair@$$CBV?$basic_string@DU?$char_traits@D@std@@V?$allocator@D@2@@std@@PAVObj@@@std@@PAX@1@@Z$0 0040f2ed f i parse.obj
 0001:0000e4a3       __catch$??$_Insert_string@DU?$char_traits@D@std@@I@std@@YAAAV?$basic_ostream@DU?$char_traits@D@std@@@0@AAV10@QBDI@Z$0 0040f4a3 f i parse.obj
 0001:0000f700       ?eat@@YA_NAAV?$basic_istream@DU?$char_traits@D@std@@@std@@@Z 00410700 f   parse.obj
 0001:00010730       ?readDict@@YAPAVObj@@AAV?$basic_istream@DU?$char_traits@D@std@@@std@@@Z 00411730 f   parse.obj
 0001:00010af0       ?readID@@YA?AV?$basic_string@DU?$char_traits@D@std@@V?$allocator@D@2@@std@@AAV?$basic_istream@DU?$char_traits@D@std@@@2@@Z 00411af0 f   parse.obj
 0001:00010c60       ?readName@@YAPAVObj@@AAV?$basic_istream@DU?$char_traits@D@std@@@std@@@Z 00411c60 f   parse.obj
 0001:00010e00       ?readObject@@YAPAVObj@@AAV?$basic_istream@DU?$char_traits@D@std@@@std@@@Z 00411e00 f   parse.obj
 0001:00010e80       ?readScalar@@YAPAVObj@@AAV?$basic_istream@DU?$char_traits@D@std@@@std@@@Z 00411e80 f   parse.obj
 0001:00010fd0       ?readString@@YAPAVObj@@AAV?$basic_istream@DU?$char_traits@D@std@@@std@@@Z 00411fd0 f   parse.obj
 0001:00011130       ?readTuple@@YAPAVObj@@AAV?$basic_istream@DU?$char_traits@D@std@@@std@@@Z 00412130 f   parse.obj
 0001:000113e5       __catch$??$_Buynode@ABUpiecewise_construct_t@std@@V?$tuple@ABV?$basic_string@DU?$char_traits@D@std@@V?$allocator@D@2@@std@@@2@V?$tuple@$$V@2@@?$_Tree_comp_alloc@V?$_Tmap_traits@V?$basic_string@DU?$char_traits@D@std@@V?$allocator@D@2@@std@@PAVMaterial@@U?$less@V?$basic_string@DU?$char_traits@D@std@@V?$allocator@D@2@@std@@@2@V?$allocator@U?$pair@$$CBV?$basic_string@DU?$char_traits@D@std@@V?$allocator@D@2@@std@@PAVMaterial@@@std@@@2@$0A@@std@@@std@@QAEPAU?$_Tree_node@U?$pair@$$CBV?$basic_string@DU?$char_traits@D@std@@V?$allocator@D@2@@std@@PAVMaterial@@@std@@PAX@1@ABUpiecewise_construct_t@1@$$QAV?$tuple@ABV?$basic_string@DU?$char_traits@D@std@@V?$allocator@D@2@@std@@@1@$$QAV?$tuple@$$V@1@@Z$0 004123e5 f i read.obj
 0001:000117d2       __catch$??$_Insert_hint@AAU?$pair@$$CBV?$basic_string@DU?$char_traits@D@std@@V?$allocator@D@2@@std@@PAVMaterial@@@std@@PAU?$_Tree_node@U?$pair@$$CBV?$basic_string@DU?$char_traits@D@std@@V?$allocator@D@2@@std@@PAVMaterial@@@std@@PAX@2@@?$_Tree@V?$_Tmap_traits@V?$basic_string@DU?$char_traits@D@std@@V?$allocator@D@2@@std@@PAVMaterial@@U?$less@V?$basic_string@DU?$char_traits@D@std@@V?$allocator@D@2@@std@@@2@V?$allocator@U?$pair@$$CBV?$basic_string@DU?$char_traits@D@std@@V?$allocator@D@2@@std@@PAVMaterial@@@std@@@2@$0A@@std@@@std@@IAE?AV?$_Tree_iterator@V?$_Tree_val@U?$_Tree_simple_types@U?$pair@$$CBV?$basic_string@DU?$char_traits@D@std@@V?$allocator@D@2@@std@@PAVMaterial@@@std@@@std@@@std@@@1@V?$_Tree_const_iterator@V?$_Tree_val@U?$_Tree_simple_types@U?$pair@$$CBV?$basic_string@DU?$char_traits@D@std@@V?$allocator@D@2@@std@@PAVMaterial@@@std@@@std@@@std@@@1@AAU?$pair@$$CBV?$basic_string@DU?$char_traits@D@std@@V?$allocator@D@2@@std@@PAVMaterial@@@1@PAU?$_Tree_node@U?$pair@$$CBV?$basic_string@DU?$char_traits@D@std@@V?$allocator@D@2@@std@@PAVMaterial@@@std@@PAX@1@@Z$0 004127d2 f i read.obj
 0001:00011a9d       __catch$??$_Insert_nohint@AAU?$pair@$$CBV?$basic_string@DU?$char_traits@D@std@@V?$allocator@D@2@@std@@PAVMaterial@@@std@@PAU?$_Tree_node@U?$pair@$$CBV?$basic_string@DU?$char_traits@D@std@@V?$allocator@D@2@@std@@PAVMaterial@@@std@@PAX@2@@?$_Tree@V?$_Tmap_traits@V?$basic_string@DU?$char_traits@D@std@@V?$allocator@D@2@@std@@PAVMaterial@@U?$less@V?$basic_string@DU?$char_traits@D@std@@V?$allocator@D@2@@std@@@2@V?$allocator@U?$pair@$$CBV?$basic_string@DU?$char_traits@D@std@@V?$allocator@D@2@@std@@PAVMaterial@@@std@@@2@$0A@@std@@@std@@IAE?AU?$pair@V?$_Tree_iterator@V?$_Tree_val@U?$_Tree_simple_types@U?$pair@$$CBV?$basic_string@DU?$char_traits@D@std@@V?$allocator@D@2@@std@@PAVMaterial@@@std@@@std@@@std@@@std@@_N@1@_NAAU?$pair@$$CBV?$basic_string@DU?$char_traits@D@std@@V?$allocator@D@2@@std@@PAVMaterial@@@1@PAU?$_Tree_node@U?$pair@$$CBV?$basic_string@DU?$char_traits@D@std@@V?$allocator@D@2@@std@@PAVMaterial@@@std@@PAX@1@@Z$0 00412a9d f i read.obj
 0001:00014c80       ?getColorField@@YAPAVObj@@PAV1@@Z 00415c80 f   read.obj
 0001:00014e40       ?getField@@YAPAVObj@@PAV1@ABV?$basic_string@DU?$char_traits@D@std@@V?$allocator@D@2@@std@@@Z 00415e40 f   read.obj
 0001:00014fa0       ?getMaterial@@YAPAVMaterial@@PAVObj@@ABV?$map@V?$basic_string@DU?$char_traits@D@std@@V?$allocator@D@2@@std@@PAVMaterial@@U?$less@V?$basic_string@DU?$char_traits@D@std@@V?$allocator@D@2@@std@@@2@V?$allocator@U?$pair@$$CBV?$basic_string@DU?$char_traits@D@std@@V?$allocator@D@2@@std@@PAVMaterial@@@std@@@2@@std@@@Z 00415fa0 f   read.obj
 0001:00015190       ?hasField@@YA_NPAVObj@@ABV?$basic_string@DU?$char_traits@D@std@@V?$allocator@D@2@@std@@@Z 00416190 f   read.obj
 0001:00015230       ?maybeExtractField@@YA_NPAVObj@@ABV?$basic_string@DU?$char_traits@D@std@@V?$allocator@D@2@@std@@AAN@Z 00416230 f   read.obj
 0001:00015280       ?maybeExtractField@@YA_NPAVObj@@ABV?$basic_string@DU?$char_traits@D@std@@V?$allocator@D@2@@std@@AA_N@Z 00416280 f   read.obj
 0001:00015860       ?processCamera@@YAXPAVObj@@PAVScene@@@Z 00416860 f   read.obj
 0001:00016030       ?processGeometry@@YAXPAVObj@@PAVScene@@ABV?$map@V?$basic_string@DU?$char_traits@D@std@@V?$allocator@D@2@@std@@PAVMaterial@@U?$less@V?$basic_string@DU?$char_traits@D@std@@V?$allocator@D@2@@std@@@2@V?$allocator@U?$pair@$$CBV?$basic_string@DU?$char_traits@D@std@@V?$allocator@D@2@@std@@PAVMaterial@@@std@@@2@@std@@PAVTransformNode@@@Z 00417030 f   read.obj
 0001:00016240       ?processGeometry@@YAXV?$basic_string@DU?$char_traits@D@std@@V?$allocator@D@2@@std@@PAVObj@@PAVScene@@ABV?$map@V?$basic_string@DU?$char_traits@D@std@@V?$allocator@D@2@@std@@PAVMaterial@@U?$less@V?$basic_string@DU?$char_traits@D@std@@V?$allocator@D@2@@std@@@2@V?$allocator@U?$pair@$$CBV?$basic_string@DU?$char_traits@D@std@@V?$allocator@D@2@@std@@PAVMaterial@@@std@@@2@@2@PAVTransformNode@@@Z 00417240 f   read.obj
 0001:00016e60       ?processMaterial@@YAPAVMaterial@@PAVObj@@PAV?$map@V?$basic_string@DU?$char_traits@D@std@@V?$allocator@D@2@@std@@PAVMaterial@@U?$less@V?$basic_string@DU?$char_traits@D@std@@V?$allocator@D@2@@std@@@2@V?$allocator@U?$pair@$$CBV?$basic_string@DU?$char_traits@D@std@@V?$allocator@D@2@@std@@PAVMaterial@@@std@@@2@@std@@@Z 00417e60 f   read.obj
 0001:000179d0       ?processObject@@YAXPAVObj@@PAVScene@@AAV?$map@V?$basic_string@DU?$char_traits@D@std@@V?$allocator@D@2@@std@@PAVMaterial@@U?$less@V?$basic_string@DU?$char_traits@D@std@@V?$allocator@D@2@@std@@@2@V?$allocator@U?$pair@$$CBV?$basic_string@DU?$char_traits@D@std@@V?$allocator@D@2@@std@@PAVMaterial@@@std@@@2@@std@@@Z 004189d0 f   read.obj
 0001:00018030       ?processTrimesh@@YAXV?$basic_string@DU?$char_traits@D@std@@V?$allocator@D@2@@std@@PAVObj@@PAVScene@@ABV?$map@V?$basic_string@DU?$char_traits@D@std@@V?$allocator@D@2@@std@@PAVMaterial@@U?$less@V?$basic_string@DU?$char_traits@D@std@@V?$allocator@D@2@@std@@@2@V?$allocator@U?$pair@$$CBV?$basic_string@DU?$char_traits@D@std@@V?$allocator@D@2@@std@@PAVMaterial@@@std@@@2@@2@PAVTransformNode@@@Z 00419030 f   read.obj
 0001:00018e9e       __catch$?readScene@@YAPAVScene@@ABV?$basic_string@DU?$char_traits@D@std@@V?$allocator@D@2@@std@@@Z$0 00419e9e f   read.obj
 0001:000195d0       ?tupleToVec@@YA?AVvec3f@@PAVObj@@@Z 0041a5d0 f   read.obj
 0001:00019940       ?verifyTuple@@YAXABV?$vector@PAVObj@@V?$allocator@PAVObj@@@std@@@std@@I@Z 0041a940 f   read.obj
 0001:00019a20       _memcpy_s                  0041aa20 f   read.obj
 0001:0001e0c0       ??$_Resize@V<lambda_c34ecdecde49bf1d2564cf10b5269ebb>@@@?$vector@Vvec3f@@V?$allocator@Vvec3f@@@std@@@std@@AAEXIV<lambda_c34ecdecde49bf1d2564cf10b5269ebb>@@@Z 0041f0c0 f   trimesh.obj
 0001:0001e1c6       __catch$??$_Resize@V<lambda_c34ecdecde49bf1d2564cf10b5269ebb>@@@?$vector@Vvec3f@@V?$allocator@Vvec3f@@@std@@@std@@AAEXIV<lambda_c34ecdecde49bf1d2564cf10b5269ebb>@@@Z$0 0041f1c6 f   trimesh.obj
 0001:0001e572       __catch$??$emplace_back@ABVvec3f@@@?$vector@Vvec3f@@V?$allocator@Vvec3f@@@std@@@std@@QAEXABVvec3f@@@Z$0 0041f572 f i trimesh.obj
 0001:000217b0       $LN180                     004227b0     fltk:Fl.obj
 0001:0002362c       $LN126                     0042462c     fltk:Fl.obj
 0001:000256f0       $LN22                      004266f0     fltk:Fl.obj
 0001:00025720       $LN21                      00426720     fltk:Fl.obj
 0001:00026820       ?run_checks@@YAXXZ         00427820 f   fltk:Fl.obj
 0001:00026e20       ?send_handlers@@YAHH@Z     00427e20 f   fltk:Fl.obj
 0001:00026eb0       ?nothing@@YAXPAVFl_Widget@@@Z 00427eb0 f   fltk:Fl.obj
 0001:00027170       ?send@@YAHHPAVFl_Widget@@PAVFl_Window@@@Z 00428170 f   fltk:Fl.obj
 0001:00027970       ?fl_clipboard_notify_target@@YAXPAUHWND__@@@Z 00428970 f   fltk:Fl.obj
 0001:000279a0       ?fl_clipboard_notify_untarget@@YAXPAUHWND__@@@Z 004289a0 f   fltk:Fl.obj
 0001:00027a80       ?get_wsock_mod@@YAPAUHINSTANCE__@@XZ 00428a80 f   fltk:Fl.obj
 0001:00027af0       ?get_imm_module@@YAXXZ     00428af0 f   fltk:Fl.obj
 0001:00027b80       ?nothing@@YAXXZ            00428b80 f   fltk:Fl.obj
 0001:00027c50       ?mouse_event@@YAHPAVFl_Window@@HHIJ@Z 00428c50 f   fltk:Fl.obj
 0001:00027f00       ?ms2fltk@@YAHIH@Z          00428f00 f   fltk:Fl.obj
 0001:00028080       ?realloc_timers@@YAXXZ     00429080 f   fltk:Fl.obj
 0001:00028130       ?delete_timer@@YAXAAUWin32Timer@@@Z 00429130 f   fltk:Fl.obj
 0001:00028160       ?WndProc@@YGJPAUHWND__@@IIJ@Z 00429160 f   fltk:Fl.obj
 0001:00028eec       $LN178                     00429eec     fltk:Fl.obj
 0001:00028f2c       $LN175                     00429f2c     fltk:Fl.obj
 0001:00028fb4       $LN179                     00429fb4     fltk:Fl.obj
 0001:00028fcc       $LN180                     00429fcc     fltk:Fl.obj
 0001:00029004       $LN176                     0042a004     fltk:Fl.obj
 0001:000290a8       $LN181                     0042a0a8     fltk:Fl.obj
 0001:000290bc       $LN177                     0042a0bc     fltk:Fl.obj
 0001:000290c8       $LN182                     0042a0c8     fltk:Fl.obj
 0001:00029110       ?s_TimerProc@@YGJPAUHWND__@@IIJ@Z 0042a110 f   fltk:Fl.obj
 0001:00029240       ?image_to_icon@@YAPAUHICON__@@PBVFl_RGB_Image@@_NHH@Z 0042a240 f   fltk:Fl.obj
 0001:000296c8       $LN47                      0042a6c8     fltk:Fl.obj
 0001:000296e0       ?find_best_icon@@YAPBVFl_RGB_Image@@HQAPBV1@H@Z 0042a6e0 f   fltk:Fl.obj
 0001:00029ea8       $LN10                      0042aea8     fltk:fl_ask.obj
 0001:0002a170       ?button_cb@@YAXPAVFl_Widget@@J@Z 0042b170 f   fltk:fl_ask.obj
 0001:0002a190       ?makeform@@YAPAVFl_Window@@XZ 0042b190 f   fltk:fl_ask.obj
 0001:0002a5f0       ?resizeform@@YAXXZ         0042b5f0 f   fltk:fl_ask.obj
 0001:0002a9f0       ?innards@@YAHPBDPAD000@Z   0042b9f0 f   fltk:fl_ask.obj
 0001:0002aeb0       ?input_innards@@YAPBDPBDPAD0E@Z 0042beb0 f   fltk:fl_ask.obj
 0001:0002bb30       $LN49                      0042cb30     fltk:Fl_Group.obj
 0001:0002ce08       $LN202                     0042de08     fltk:Fl_Group.obj
 0001:0002ce38       $LN200                     0042de38     fltk:Fl_Group.obj
 0001:0002ce50       $LN203                     0042de50     fltk:Fl_Group.obj
 0001:0002ddf0       ?send@@YAHPAVFl_Widget@@H@Z 0042edf0 f   fltk:Fl_Group.obj
 0001:0002df10       ?navkey@@YAHXZ             0042ef10 f   fltk:Fl_Group.obj
 0001:0002df90       $LN20                      0042ef90     fltk:Fl_Group.obj
 0001:0002dfa8       $LN19                      0042efa8     fltk:Fl_Group.obj
 0001:0002fae8       $LN36                      00430ae8     fltk:Fl_Menu_Bar.obj
 0001:0002faf8       $LN35                      00430af8     fltk:Fl_Menu_Bar.obj
 0001:000311a0       $LN148                     004321a0     fltk:Fl_Button.obj
 0001:00031f44       $LN235                     00432f44     fltk:Fl_Light_Button.obj
 0001:00031f50       $LN234                     00432f50     fltk:Fl_Light_Button.obj
 0001:00031f70       $LN236                     00432f70     fltk:Fl_Light_Button.obj
 0001:000325e0       ?callback@@YAXPAVFl_File_Chooser@@PAX@Z 004335e0 f   fltk:fl_file_dir.obj
 0001:000338d0       _mk_wcwidth                004348d0 f   fltk:fl_utf.obj
 0001:00033a20       _bisearch                  00434a20 f   fltk:fl_utf.obj
 0001:00033e90       ?screen_cb@@YGHPAUHMONITOR__@@PAUHDC__@@PAUtagRECT@@J@Z 00434e90 f   fltk:screen_xywh.obj
 0001:00033fc0       ?screen_init@@YAXXZ        00434fc0 f   fltk:screen_xywh.obj
 0001:000340c0       ?fl_intersection@@YAMHHHHHHHH@Z 004350c0 f   fltk:screen_xywh.obj
 0001:000343d0       ?lock_ring@@YAXXZ          004353d0 f   fltk:Fl_lock.obj
 0001:00034410       ?unlock_ring@@YAXXZ        00435410 f   fltk:Fl_lock.obj
 0001:00034430       ?unlock_function@@YAXXZ    00435430 f   fltk:Fl_lock.obj
 0001:00034440       ?lock_function@@YAXXZ      00435440 f   fltk:Fl_lock.obj
 0001:00034c54       $LN39                      00435c54     fltk:Fl_Widget.obj
 0001:00034c5c       $LN38                      00435c5c     fltk:Fl_Widget.obj
 0001:00035420       ?cleanup_readqueue@@YAXPAVFl_Widget@@@Z 00436420 f   fltk:Fl_Widget.obj
 0001:000374a0       ?start@@YAHPAVFl_RGB_Image@@HHHHHHAAH11111@Z 004384a0 f   fltk:Fl_Image.obj
 0001:00037d20       ?recent_timeout@@YAXPAX@Z  00438d20 f   fltk:Fl_Tooltip.obj
 0001:00037d30       ?tooltip_timeout@@YAXPAX@Z 00438d30 f   fltk:Fl_Tooltip.obj
 0001:000387d0       ?clear_xmap@@YAXAAUFl_XMap@@@Z 004397d0 f   fltk:fl_color.obj
 0001:00038840       ?set_xmap@@YAXAAUFl_XMap@@K@Z 00439840 f   fltk:fl_color.obj
 0001:0003cc50       ?decodeText@@YAPADPBD@Z    0043dc50 f   fltk:Fl_Preferences.obj
 0001:0003ce40       ?decodeHex@@YAPAXPBDAAH@Z  0043de40 f   fltk:Fl_Preferences.obj
 0001:0003cf50       ?x2i@@YAEDD@Z              0043df50 f   fltk:Fl_Preferences.obj
 0001:0003cf70       ?i2x@@YAXEPAD@Z            0043df70 f   fltk:Fl_Preferences.obj
 0001:0003cfb0       ?a2p@@YAPAXPBD@Z           0043dfb0 f   fltk:Fl_Preferences.obj
 0001:0003d020       ?p2a@@YAXPAXPAD@Z          0043e020 f   fltk:Fl_Preferences.obj
 0001:0003f940       ?_fl_hypot@@YANNN@Z        00440940 f   fltk:fl_arc.obj
 0001:00040cec       $LN15                      00441cec     fltk:fl_font.obj
 0001:00040d00       $LN14                      00441d00     fltk:fl_font.obj
 0001:00040dc0       ?find@@YAPAVFl_Font_Descriptor@@HHH@Z 00441dc0 f   fltk:fl_font.obj
 0001:00040ec0       ?fl_font@@YAXPAVFl_Graphics_Driver@@HHH@Z 00441ec0 f   fltk:fl_font.obj
 0001:00040f60       ?GetGlyphIndices_init@@YAXXZ 00441f60 f   fltk:fl_font.obj
 0001:00040fa0       ?on_printer_extents_update@@YAXAAH000@Z 00441fa0 f   fltk:fl_font.obj
 0001:00042d10       ?start@@YAHPAVFl_Pixmap@@HHHHHHAAH11111@Z 00443d10 f   fltk:Fl_Pixmap.obj
 0001:00043ff0       ?fl_create_bitmap@@YAPAUHBITMAP__@@HHPBE@Z 00444ff0 f   fltk:Fl_Bitmap.obj
 0001:00044470       ?dither@@YAXPAEPBEHH@Z     00445470 f   fltk:fl_draw_image.obj
 0001:00044660       ?monodither@@YAXPAEPBEHH@Z 00445660 f   fltk:fl_draw_image.obj
 0001:00044760       ?innards@@YAXPBEHHHHHHHP6AXPAXHHHPAE@Z1@Z 00445760 f   fltk:fl_draw_image.obj
 0001:00044f34       $LN77                      00445f34     fltk:fl_draw_image.obj
 0001:00044f50       ?fl_abs@@YAHH@Z            00445f50 f   fltk:fl_draw_image.obj
 0001:00045f3c       $LN17                      00446f3c     fltk:Fl_get_system_colors.obj
 0001:00045f50       ?set_selection_color@@YAXEEE@Z 00446f50 f   fltk:Fl_get_system_colors.obj
 0001:00045f70       ?getsyscolor@@YAXHPBDP6AXEEE@Z@Z 00446f70 f   fltk:Fl_get_system_colors.obj
 0001:00046000       ?warning@@YAXPBDZZ         00447000 f   fltk:Fl_abort.obj
 0001:00046010       ?error@@YAXPBDZZ           00447010 f   fltk:Fl_abort.obj
 0001:00046090       ?fatal@@YAXPBDZZ           00447090 f   fltk:Fl_abort.obj
 0001:00048770       ?Toupper@@YAHH@Z           00449770 f   fltk:fl_utf8.obj
 0001:000492bc       $LN70                      0044a2bc     fltk:vsnprintf.obj
 0001:000492d8       $LN69                      0044a2d8     fltk:vsnprintf.obj
 0001:0004cf64       $LN135                     0044df64     fltk:Fl_Input_.obj
 0001:0004e130       ?isword@@YAHD@Z            0044f130 f   fltk:Fl_Input_.obj
 0001:0004e180       ?strict_word_start@@YAHPBDHH@Z 0044f180 f   fltk:Fl_Input_.obj
 0001:0004e1c0       ?strict_word_end@@YAHPBDHHH@Z 0044f1c0 f   fltk:Fl_Input_.obj
 0001:0004e200       ?undobuffersize@@YAXH@Z    0044f200 f   fltk:Fl_Input_.obj
 0001:0004ec44       $LN199                     0044fc44     fltk:Fl_Input.obj
 0001:0004ec5c       $LN197                     0044fc5c     fltk:Fl_Input.obj
 0001:0004ec78       $LN200                     0044fc78     fltk:Fl_Input.obj
 0001:0004ecac       $LN198                     0044fcac     fltk:Fl_Input.obj
 0001:0004eda4       $LN201                     0044fda4     fltk:Fl_Input.obj
 0001:0005031c       $LN201                     0045131c     fltk:Fl_Input.obj
 0001:00050344       $LN199                     00451344     fltk:Fl_Input.obj
 0001:0005035c       $LN202                     0045135c     fltk:Fl_Input.obj
 0001:00050374       $LN200                     00451374     fltk:Fl_Input.obj
 0001:00051cf0       ?expand_text_@@YAPBDPBDAAPADHNAAHAANHH@Z 00452cf0 f   fltk:fl_draw.obj
 0001:00052570       ?bitmap2region@@YAPAUHRGN__@@PAVFl_Bitmap@@@Z 00453570 f   fltk:Fl_Window_shape.obj
 0001:000539f0       $LN63                      004549f0     fltk:Fl_Menu_Button.obj
 0001:00053a08       $LN62                      00454a08     fltk:Fl_Menu_Button.obj
 0001:00053d58       $LN23                      00454d58     fltk:Fl_Repeat_Button.obj
 0001:00053d64       $LN22                      00454d64     fltk:Fl_Repeat_Button.obj
 0001:00054890       $LN128                     00455890     fltk:Fl_Menu.obj
 0001:000555c0       ?next_visible_or_not@@YAPBUFl_Menu_Item@@PBU1@@Z 004565c0 f   fltk:Fl_Menu.obj
 0001:00056334       $LN99                      00457334     fltk:Fl_Menu.obj
 0001:00056348       $LN97                      00457348     fltk:Fl_Menu.obj
 0001:00056354       $LN100                     00457354     fltk:Fl_Menu.obj
 0001:00056368       $LN98                      00457368     fltk:Fl_Menu.obj
 0001:00057120       ?setitem@@YAXHH@Z          00458120 f   fltk:Fl_Menu.obj
 0001:00057180       ?forward@@YAHH@Z           00458180 f   fltk:Fl_Menu.obj
 0001:00057250       ?backward@@YAHH@Z          00458250 f   fltk:Fl_Menu.obj
 0001:00057d00       ?array_insert@@YAPAUFl_Menu_Item@@PAU1@HHPBDH@Z 00458d00 f   fltk:Fl_Menu_add.obj
 0001:00057e40       ?compare@@YAHPBD0@Z        00458e40 f   fltk:Fl_Menu_add.obj
 0001:0005957c       $LN191                     0045a57c     fltk:Fl_Slider.obj
 0001:0005959c       $LN192                     0045a59c     fltk:Fl_Slider.obj
 0001:00060010       ?compare_dirnames@@YAHPBD0@Z 00461010 f   fltk:Fl_File_Chooser2.obj
 0001:000600b0       ?quote_pathname@@YAXPADPBDH@Z 004610b0 f   fltk:Fl_File_Chooser2.obj
 0001:00060140       ?unquote_pathname@@YAXPADPBDH@Z 00461140 f   fltk:Fl_File_Chooser2.obj
 0001:00060420       ?make_unused_color@@YAXAAE00@Z 00461420 f   fltk:fl_draw_pixmap.obj
 0001:00061238       $LN63                      00462238     fltk:filename_match.obj
 0001:0006125c       $LN61                      0046225c     fltk:filename_match.obj
 0001:000612dc       $LN64                      004622dc     fltk:filename_match.obj
 0001:000612f4       $LN62                      004622f4     fltk:filename_match.obj
 0001:000613c0       _numericsort               004623c0 f   fltk:numericsort.obj
 0001:00061760       ?frame_rect@@YAXHHHHPBDI@Z 00462760 f   fltk:fl_plastic.obj
 0001:00061a20       ?frame_round@@YAXHHHHPBDI@Z 00462a20 f   fltk:fl_plastic.obj
 0001:00062450       ?shade_rect@@YAXHHHHPBDI@Z 00463450 f   fltk:fl_plastic.obj
 0001:00062bc0       ?shade_round@@YAXHHHHPBDI@Z 00463bc0 f   fltk:fl_plastic.obj
 0001:00063600       ?up_frame@@YAXHHHHI@Z      00464600 f   fltk:fl_plastic.obj
 0001:00063630       ?narrow_thin_box@@YAXHHHHI@Z 00464630 f   fltk:fl_plastic.obj
 0001:000637e0       ?thin_up_box@@YAXHHHHI@Z   004647e0 f   fltk:fl_plastic.obj
 0001:00063860       ?up_box@@YAXHHHHI@Z        00464860 f   fltk:fl_plastic.obj
 0001:000638e0       ?up_round@@YAXHHHHI@Z      004648e0 f   fltk:fl_plastic.obj
 0001:00063930       ?down_frame@@YAXHHHHI@Z    00464930 f   fltk:fl_plastic.obj
 0001:00063960       ?down_box@@YAXHHHHI@Z      00464960 f   fltk:fl_plastic.obj
 0001:000639e0       ?down_round@@YAXHHHHI@Z    004649e0 f   fltk:fl_plastic.obj
 0001:00063ad0       ?gtk_color@@YAXI@Z         00464ad0 f   fltk:fl_gtk.obj
 0001:00063b20       ?gtk_up_frame@@YAXHHHHI@Z  00464b20 f   fltk:fl_gtk.obj
 0001:00063dc0       ?gtk_up_box@@YAXHHHHI@Z    00464dc0 f   fltk:fl_gtk.obj
 0001:00064050       ?gtk_down_frame@@YAXHHHHI@Z 00465050 f   fltk:fl_gtk.obj
 0001:00064340       ?gtk_down_box@@YAXHHHHI@Z  00465340 f   fltk:fl_gtk.obj
 0001:000643d0       ?gtk_thin_up_frame@@YAXHHHHI@Z 004653d0 f   fltk:fl_gtk.obj
 0001:000644e0       ?gtk_thin_up_box@@YAXHHHHI@Z 004654e0 f   fltk:fl_gtk.obj
 0001:00064740       ?gtk_thin_down_frame@@YAXHHHHI@Z 00465740 f   fltk:fl_gtk.obj
 0001:00064850       ?gtk_thin_down_box@@YAXHHHHI@Z 00465850 f   fltk:fl_gtk.obj
 0001:000648b0       ?fl_arc_i@@YAXHHHHNN@Z     004658b0 f   fltk:fl_gtk.obj
 0001:00064900       ?draw@@YAXHHHHHH@Z         00465900 f   fltk:fl_gtk.obj
 0001:00064d90       ?gtk_round_up_box@@YAXHHHHI@Z 00465d90 f   fltk:fl_gtk.obj
 0001:000650d0       ?gtk_round_down_box@@YAXHHHHI@Z 004660d0 f   fltk:fl_gtk.obj
 0001:000652f0       ?gleam_color@@YAXI@Z       004662f0 f   fltk:fl_gleam.obj
 0001:00065340       ?shade_rect_top_bottom@@YAXHHHHIIM@Z 00466340 f   fltk:fl_gleam.obj
 0001:000655b0       ?shade_rect_top_bottom_up@@YAXHHHHIM@Z 004665b0 f   fltk:fl_gleam.obj
 0001:000655f0       ?shade_rect_top_bottom_down@@YAXHHHHIM@Z 004665f0 f   fltk:fl_gleam.obj
 0001:00065620       ?frame_rect@@YAXHHHHIII@Z  00466620 f   fltk:fl_gleam.obj
 0001:000657f0       ?frame_rect_up@@YAXHHHHIIMM@Z 004667f0 f   fltk:fl_gleam.obj
 0001:00065870       ?frame_rect_down@@YAXHHHHIIMM@Z 00466870 f   fltk:fl_gleam.obj
 0001:000658d0       ?up_frame@@YAXHHHHI@Z      004668d0 f   fltk:fl_gleam.obj
 0001:00065940       ?up_box@@YAXHHHHI@Z        00466940 f   fltk:fl_gleam.obj
 0001:000659e0       ?thin_up_box@@YAXHHHHI@Z   004669e0 f   fltk:fl_gleam.obj
 0001:00065a80       ?down_frame@@YAXHHHHI@Z    00466a80 f   fltk:fl_gleam.obj
 0001:00065b10       ?down_box@@YAXHHHHI@Z      00466b10 f   fltk:fl_gleam.obj
 0001:00065bb0       ?thin_down_box@@YAXHHHHI@Z 00466bb0 f   fltk:fl_gleam.obj
 0001:000660c0       ?fl_arc_i@@YAXHHHHNN@Z     004670c0 f   fltk:fl_round_box.obj
 0001:00066110       ?draw@@YAXHHHHHHI@Z        00467110 f   fltk:fl_round_box.obj
 0001:00066f50       ?fallback_cursor@@YAXPAVFl_Window@@W4Fl_Cursor@@@Z 00467f50 f   fltk:fl_cursor.obj
 0001:00067090       $LN21                      00468090     fltk:fl_cursor.obj
 0001:000670a8       $LN19                      004680a8     fltk:fl_cursor.obj
 0001:00067704       $LN54                      00468704     fltk:fl_symbols.obj
 0001:000677a0       ?find@@YAHPBD@Z            004687a0 f   fltk:fl_symbols.obj
 0001:00067970       ?fl_init_symbols@@YAXXZ    00468970 f   fltk:fl_symbols.obj
 0001:00067c90       ?set_outline_color@@YAXI@Z 00468c90 f   fltk:fl_symbols.obj
 0001:00067cd0       ?rectangle@@YAXNNNNI@Z     00468cd0 f   fltk:fl_symbols.obj
 0001:00067ec0       ?draw_fltk@@YAXI@Z         00468ec0 f   fltk:fl_symbols.obj
 0001:00068e30       ?draw_search@@YAXI@Z       00469e30 f   fltk:fl_symbols.obj
 0001:000690f0       ?draw_arrow1@@YAXI@Z       0046a0f0 f   fltk:fl_symbols.obj
 0001:000694d0       ?draw_arrow1bar@@YAXI@Z    0046a4d0 f   fltk:fl_symbols.obj
 0001:00069530       ?draw_arrow2@@YAXI@Z       0046a530 f   fltk:fl_symbols.obj
 0001:000696e0       ?draw_arrow3@@YAXI@Z       0046a6e0 f   fltk:fl_symbols.obj
 0001:00069a10       ?draw_arrowbar@@YAXI@Z     0046aa10 f   fltk:fl_symbols.obj
 0001:00069db0       ?draw_arrowbox@@YAXI@Z     0046adb0 f   fltk:fl_symbols.obj
 0001:0006a150       ?draw_bararrow@@YAXI@Z     0046b150 f   fltk:fl_symbols.obj
 0001:0006a4f0       ?draw_doublebar@@YAXI@Z    0046b4f0 f   fltk:fl_symbols.obj
 0001:0006a590       ?draw_arrow01@@YAXI@Z      0046b590 f   fltk:fl_symbols.obj
 0001:0006a5c0       ?draw_arrow02@@YAXI@Z      0046b5c0 f   fltk:fl_symbols.obj
 0001:0006a5f0       ?draw_arrow03@@YAXI@Z      0046b5f0 f   fltk:fl_symbols.obj
 0001:0006a620       ?draw_0arrowbar@@YAXI@Z    0046b620 f   fltk:fl_symbols.obj
 0001:0006a650       ?draw_0arrowbox@@YAXI@Z    0046b650 f   fltk:fl_symbols.obj
 0001:0006a680       ?draw_0bararrow@@YAXI@Z    0046b680 f   fltk:fl_symbols.obj
 0001:0006a6b0       ?draw_doublearrow@@YAXI@Z  0046b6b0 f   fltk:fl_symbols.obj
 0001:0006ab80       ?draw_arrow@@YAXI@Z        0046bb80 f   fltk:fl_symbols.obj
 0001:0006ae50       ?draw_square@@YAXI@Z       0046be50 f   fltk:fl_symbols.obj
 0001:0006aeb0       ?draw_circle@@YAXI@Z       0046beb0 f   fltk:fl_symbols.obj
 0001:0006afc0       ?draw_line@@YAXI@Z         0046bfc0 f   fltk:fl_symbols.obj
 0001:0006b070       ?draw_plus@@YAXI@Z         0046c070 f   fltk:fl_symbols.obj
 0001:0006b510       ?draw_uparrow@@YAXI@Z      0046c510 f   fltk:fl_symbols.obj
 0001:0006b690       ?draw_downarrow@@YAXI@Z    0046c690 f   fltk:fl_symbols.obj
 0001:0006b810       ?draw_menu@@YAXI@Z         0046c810 f   fltk:fl_symbols.obj
 0001:0006b8b0       ?draw_filenew@@YAXI@Z      0046c8b0 f   fltk:fl_symbols.obj
 0001:0006bd50       ?draw_fileopen@@YAXI@Z     0046cd50 f   fltk:fl_symbols.obj
 0001:0006c320       ?draw_filesave@@YAXI@Z     0046d320 f   fltk:fl_symbols.obj
 0001:0006ca30       ?draw_filesaveas@@YAXI@Z   0046da30 f   fltk:fl_symbols.obj
 0001:0006cdd0       ?draw_fileprint@@YAXI@Z    0046ddd0 f   fltk:fl_symbols.obj
 0001:0006d500       ?draw_round_arrow@@YAXIM@Z 0046e500 f   fltk:fl_symbols.obj
 0001:0006d850       ?draw_refresh@@YAXI@Z      0046e850 f   fltk:fl_symbols.obj
 0001:0006d8c0       ?draw_reload@@YAXI@Z       0046e8c0 f   fltk:fl_symbols.obj
 0001:0006d910       ?draw_undo@@YAXI@Z         0046e910 f   fltk:fl_symbols.obj
 0001:0006db00       ?draw_redo@@YAXI@Z         0046eb00 f   fltk:fl_symbols.obj
 0001:0006e618       $LN84                      0046f618     fltk:Fl_Choice.obj
 0001:0006e630       $LN83                      0046f630     fltk:Fl_Choice.obj
 0001:0006ec28       $LN100                     0046fc28     fltk:Fl_Tile.obj
 0001:0006ec38       $LN99                      0046fc38     fltk:Fl_Tile.obj
 0001:0006f0f0       ?set_cursor@@YAXPAVFl_Tile@@W4Fl_Cursor@@@Z 004700f0 f   fltk:Fl_Tile.obj
 0001:00071ec8       $LN332                     00472ec8     fltk:Fl_Browser_.obj
 0001:00072860       ?scrollbar_callback@@YAXPAVFl_Widget@@PAX@Z 00473860 f   fltk:Fl_Browser_.obj
 0001:00072890       ?hscrollbar_callback@@YAXPAVFl_Widget@@PAX@Z 00473890 f   fltk:Fl_Browser_.obj
 0001:0007454c       $LN33                      0047554c     fltk:Fl_File_Input.obj
 0001:0007455c       $LN31                      0047555c     fltk:Fl_File_Input.obj
 0001:00074b60       $LN66                      00475b60     fltk:Fl_Browser.obj
 0001:00074b90       $LN65                      00475b90     fltk:Fl_Browser.obj
 0001:00074e98       $LN41                      00475e98     fltk:Fl_Browser.obj
 0001:00074ec8       $LN40                      00475ec8     fltk:Fl_Browser.obj
 0001:00075438       $LN90                      00476438     fltk:Fl_Browser.obj
 0001:00075480       $LN89                      00476480     fltk:Fl_Browser.obj
 0001:0007713c       $LN129                     0047813c     fltk:Fl_File_Icon.obj
 0001:00077158       $LN130                     00478158     fltk:Fl_File_Icon.obj
 0001:00077168       $LN131                     00478168     fltk:Fl_File_Icon.obj
 0001:0007a1ac       $LN189                     0047b1ac     fltk:Fl_Scrollbar.obj
 0001:0007a1c8       $LN188                     0047b1c8     fltk:Fl_Scrollbar.obj
 0001:0007a1dc       $LN190                     0047b1dc     fltk:Fl_Scrollbar.obj
 0001:0007ad1c       $LN59                      0047bd1c     fltk:Fl_XPM_Image.obj
 0001:0007ad2c       $LN57                      0047bd2c     fltk:Fl_XPM_Image.obj
 0001:0007adb0       ?hexdigit@@YAHH@Z          0047bdb0 f   fltk:Fl_XPM_Image.obj
 0001:0007bfc0       ?add_context@@YAXPAUHGLRC__@@@Z 0047cfc0 f   fltkgl:Fl_Gl_Choice.obj
 0001:0007c040       ?del_context@@YAXPAUHGLRC__@@@Z 0047d040 f   fltkgl:Fl_Gl_Choice.obj
 0001:0007c0e0       ?print_gl_window@@YAXPAVFl_Gl_Window@@HHH@Z 0047d0e0 f   fltkgl:Fl_Gl_Device_Plugin.obj
 0001:0007c960       ?get_list@@YAXH@Z          0047d960 f   fltkgl:gl_draw.obj
 0001:0007c9e0       ?gl_draw_invert@@YAXPBDHHH@Z 0047d9e0 f   fltkgl:gl_draw.obj
 0001:0007cf66       ?find_pe_section@@YAPAU_IMAGE_SECTION_HEADER@@QAEI@Z 0047df66 f   MSVCRT:utility.obj
 0001:0007cfaa       ?is_potentially_valid_image_base@@YA_NQAX@Z 0047dfaa f   MSVCRT:utility.obj
 0001:0007d314       ?__scrt_initialize_thread_safe_statics@@YAHXZ 0047e314 f   MSVCRT:thread_safe_statics.obj
 0001:0007d39d       ?__scrt_initialize_thread_safe_statics_platform_specific@@YAXXZ 0047e39d f   MSVCRT:thread_safe_statics.obj
 0001:0007d45d       ?__scrt_uninitialize_thread_safe_statics@@YAXXZ 0047e45d f   MSVCRT:thread_safe_statics.obj
 0001:0007d5e0       $$000000                   0047e5e0     MSVCRT:lldiv.obj
 0001:0007d690       $$000000                   0047e690     MSVCRT:llmul.obj
 0001:0007d9d9       ?pre_c_initialization@@YAHXZ 0047e9d9 f   MSVCRT:exe_winmain.obj
 0001:0007da7d       ?post_pgo_initialization@@YAHXZ 0047ea7d f   MSVCRT:exe_winmain.obj
 0001:0007da85       ?pre_cpp_initialization@@YAXXZ 0047ea85 f   MSVCRT:exe_winmain.obj
 0001:0007da97       ?__scrt_common_main@@YAHXZ 0047ea97 f   MSVCRT:exe_winmain.obj
 0001:0007daa1       ?__scrt_common_main_seh@@YAHXZ 0047eaa1 f   MSVCRT:exe_winmain.obj
 0001:0007dc0d       ?initialize_environment@@YAXXZ 0047ec0d f   MSVCRT:exe_winmain.obj
 0001:0007dc12       ?invoke_main@@YAHXZ        0047ec12 f   MSVCRT:exe_winmain.obj
 0001:0007dc40       $$000000                   0047ec40     MSVCRT:_ftol3_.obj
 0001:0007dfc0       $$000000                   0047efc0     MSVCRT:llshr.obj
 0001:0007dff0       $$000000                   0047eff0     MSVCRT:_ftol2_.obj
 0001:0007e0b0       $$000000                   0047f0b0     MSVCRT:chkstk.obj
 0001:0007e5e0       $$000000                   0047f5e0     MSVCRT:_sehprolg4_.obj
 0001:0007f000       _mbcs2utf                  00480000 f   fltk:fl_call_main.obj
 0001:0007f130       __unwindfunclet$_main$0    00480130 f   main.obj
 0001:0007f13f       __unwindfunclet$_main$1    0048013f f   main.obj
 0001:0007f151       __unwindfunclet$_main$2    00480151 f   main.obj
 0001:0007f160       __ehhandler$_main          00480160 f   main.obj
 0001:0007f180       __ehhandler$??$_Construct@V?$_Deque_const_iterator@V?$_Deque_val@U?$_Deque_simple_types@PBVMaterial@@@std@@@std@@@std@@@?$deque@PBVMaterial@@V?$allocator@PBVMaterial@@@std@@@std@@QAEXV?$_Deque_const_iterator@V?$_Deque_val@U?$_Deque_simple_types@PBVMaterial@@@std@@@std@@@1@0@Z 00480180 f   RayTracer.obj
 0001:0007f1a0       __ehhandler$??$insert@V?$_Deque_const_iterator@V?$_Deque_val@U?$_Deque_simple_types@PBVMaterial@@@std@@@std@@@std@@@?$deque@PBVMaterial@@V?$allocator@PBVMaterial@@@std@@@std@@QAE?AV?$_Deque_iterator@V?$_Deque_val@U?$_Deque_simple_types@PBVMaterial@@@std@@@std@@@1@V?$_Deque_const_iterator@V?$_Deque_val@U?$_Deque_simple_types@PBVMaterial@@@std@@@std@@@1@00@Z 004801a0 f   RayTracer.obj
 0001:0007f1c0       __unwindfunclet$??0?$deque@PBVMaterial@@V?$allocator@PBVMaterial@@@std@@@std@@QAE@ABV01@@Z$0 004801c0 f   RayTracer.obj
 0001:0007f1c8       __ehhandler$??0?$deque@PBVMaterial@@V?$allocator@PBVMaterial@@@std@@@std@@QAE@ABV01@@Z 004801c8 f   RayTracer.obj
 0001:0007f1f0       __ehhandler$?_Copy@?$basic_string@DU?$char_traits@D@std@@V?$allocator@D@2@@std@@QAEXI@Z 004801f0 f   RayTracer.obj
 0001:0007f210       __unwindfunclet$?loadScene@RayTracer@@QAE_NPBD@Z$2 00480210 f   RayTracer.obj
 0001:0007f218       __unwindfunclet$?loadScene@RayTracer@@QAE_NPBD@Z$3 00480218 f   RayTracer.obj
 0001:0007f220       __ehhandler$?loadScene@RayTracer@@QAE_NPBD@Z 00480220 f   RayTracer.obj
 0001:0007f250       __unwindfunclet$?trace@RayTracer@@QAE?AVvec3f@@PAVScene@@NN@Z$0 00480250 f   RayTracer.obj
 0001:0007f25b       __unwindfunclet$?trace@RayTracer@@QAE?AVvec3f@@PAVScene@@NN@Z$1 0048025b f   RayTracer.obj
 0001:0007f266       __ehhandler$?trace@RayTracer@@QAE?AVvec3f@@PAVScene@@NN@Z 00480266 f   RayTracer.obj
 0001:0007f290       __unwindfunclet$?traceRay@RayTracer@@AAE?AVvec3f@@ABUTraceSet@1@@Z$0 00480290 f   RayTracer.obj
 0001:0007f298       __ehhandler$?traceRay@RayTracer@@AAE?AVvec3f@@ABUTraceSet@1@@Z 00480298 f   RayTracer.obj
 0001:0007f2c0       __unwindfunclet$?traceReflection@RayTracer@@AAE?AVvec3f@@ABUTraceSet@1@ABUReflectionSet@1@@Z$0 004802c0 f   RayTracer.obj
 0001:0007f2cb       __unwindfunclet$?traceReflection@RayTracer@@AAE?AVvec3f@@ABUTraceSet@1@ABUReflectionSet@1@@Z$1 004802cb f   RayTracer.obj
 0001:0007f2d6       __ehhandler$?traceReflection@RayTracer@@AAE?AVvec3f@@ABUTraceSet@1@ABUReflectionSet@1@@Z 004802d6 f   RayTracer.obj
 0001:0007f300       __unwindfunclet$?traceRefraction@RayTracer@@AAE?AVvec3f@@ABUTraceSet@1@ABURefractionParam@1@@Z$0 00480300 f   RayTracer.obj
 0001:0007f30b       __unwindfunclet$?traceRefraction@RayTracer@@AAE?AVvec3f@@ABUTraceSet@1@ABURefractionParam@1@@Z$1 0048030b f   RayTracer.obj
 0001:0007f313       __ehhandler$?traceRefraction@RayTracer@@AAE?AVvec3f@@ABUTraceSet@1@ABURefractionParam@1@@Z 00480313 f   RayTracer.obj
 0001:0007f340       __unwindfunclet$??0TraceGLWindow@@QAE@HHHHPBD@Z$1 00480340 f   TraceGLWindow.obj
 0001:0007f348       __ehhandler$??0TraceGLWindow@@QAE@HHHHPBD@Z 00480348 f   TraceGLWindow.obj
 0001:0007f370       __unwindfunclet$??$?0ABVexception_ptr@std@@V_TaskCreationCallstack@details@Concurrency@@@?$_Ref_count_obj@U_ExceptionHolder@details@Concurrency@@@std@@QAE@ABVexception_ptr@1@$$QAV_TaskCreationCallstack@details@Concurrency@@@Z$0 00480370 f   TraceUI.obj
 0001:0007f378       __unwindfunclet$??$?0ABVexception_ptr@std@@V_TaskCreationCallstack@details@Concurrency@@@?$_Ref_count_obj@U_ExceptionHolder@details@Concurrency@@@std@@QAE@ABVexception_ptr@1@$$QAV_TaskCreationCallstack@details@Concurrency@@@Z$1 00480378 f   TraceUI.obj
 0001:0007f38c       __unwindfunclet$??$?0ABVexception_ptr@std@@V_TaskCreationCallstack@details@Concurrency@@@?$_Ref_count_obj@U_ExceptionHolder@details@Concurrency@@@std@@QAE@ABVexception_ptr@1@$$QAV_TaskCreationCallstack@details@Concurrency@@@Z$4 0048038c f   TraceUI.obj
 0001:0007f397       __ehhandler$??$?0ABVexception_ptr@std@@V_TaskCreationCallstack@details@Concurrency@@@?$_Ref_count_obj@U_ExceptionHolder@details@Concurrency@@@std@@QAE@ABVexception_ptr@1@$$QAV_TaskCreationCallstack@details@Concurrency@@@Z 00480397 f   TraceUI.obj
 0001:0007f3c0       __unwindfunclet$??$?0V<lambda_042c6af70ca74ab46830ae50c8c14c9e>@@@?$task@X@Concurrency@@QAE@V<lambda_042c6af70ca74ab46830ae50c8c14c9e>@@ABVtask_options@1@@Z$0 004803c0 f   TraceUI.obj
 0001:0007f3c8       __unwindfunclet$??$?0V<lambda_042c6af70ca74ab46830ae50c8c14c9e>@@@?$task@X@Concurrency@@QAE@V<lambda_042c6af70ca74ab46830ae50c8c14c9e>@@ABVtask_options@1@@Z$2 004803c8 f   TraceUI.obj
 0001:0007f3d0       __unwindfunclet$??$?0V<lambda_042c6af70ca74ab46830ae50c8c14c9e>@@@?$task@X@Concurrency@@QAE@V<lambda_042c6af70ca74ab46830ae50c8c14c9e>@@ABVtask_options@1@@Z$3 004803d0 f   TraceUI.obj
 0001:0007f3e9       __unwindfunclet$??$?0V<lambda_042c6af70ca74ab46830ae50c8c14c9e>@@@?$task@X@Concurrency@@QAE@V<lambda_042c6af70ca74ab46830ae50c8c14c9e>@@ABVtask_options@1@@Z$4 004803e9 f   TraceUI.obj
 0001:0007f402       __ehhandler$??$?0V<lambda_042c6af70ca74ab46830ae50c8c14c9e>@@@?$task@X@Concurrency@@QAE@V<lambda_042c6af70ca74ab46830ae50c8c14c9e>@@ABVtask_options@1@@Z 00480402 f   TraceUI.obj
 0001:0007f420       __unwindfunclet$??$?0V<lambda_0ebde0502725cf61f7686a2917d1749f>@@@?$task@X@Concurrency@@QAE@V<lambda_0ebde0502725cf61f7686a2917d1749f>@@ABVtask_options@1@@Z$0 00480420 f   TraceUI.obj
 0001:0007f428       __unwindfunclet$??$?0V<lambda_0ebde0502725cf61f7686a2917d1749f>@@@?$task@X@Concurrency@@QAE@V<lambda_0ebde0502725cf61f7686a2917d1749f>@@ABVtask_options@1@@Z$2 00480428 f   TraceUI.obj
 0001:0007f430       __unwindfunclet$??$?0V<lambda_0ebde0502725cf61f7686a2917d1749f>@@@?$task@X@Concurrency@@QAE@V<lambda_0ebde0502725cf61f7686a2917d1749f>@@ABVtask_options@1@@Z$3 00480430 f   TraceUI.obj
 0001:0007f449       __unwindfunclet$??$?0V<lambda_0ebde0502725cf61f7686a2917d1749f>@@@?$task@X@Concurrency@@QAE@V<lambda_0ebde0502725cf61f7686a2917d1749f>@@ABVtask_options@1@@Z$4 00480449 f   TraceUI.obj
 0001:0007f462       __ehhandler$??$?0V<lambda_0ebde0502725cf61f7686a2917d1749f>@@@?$task@X@Concurrency@@QAE@V<lambda_0ebde0502725cf61f7686a2917d1749f>@@ABVtask_options@1@@Z 00480462 f   TraceUI.obj
 0001:0007f480       __unwindfunclet$??$?0V<lambda_483208dc91e150c0c9b495b53fd62158>@@@?$task@X@Concurrency@@QAE@V<lambda_483208dc91e150c0c9b495b53fd62158>@@ABVtask_options@1@@Z$0 00480480 f   TraceUI.obj
 0001:0007f488       __unwindfunclet$??$?0V<lambda_483208dc91e150c0c9b495b53fd62158>@@@?$task@X@Concurrency@@QAE@V<lambda_483208dc91e150c0c9b495b53fd62158>@@ABVtask_options@1@@Z$2 00480488 f   TraceUI.obj
 0001:0007f490       __unwindfunclet$??$?0V<lambda_483208dc91e150c0c9b495b53fd62158>@@@?$task@X@Concurrency@@QAE@V<lambda_483208dc91e150c0c9b495b53fd62158>@@ABVtask_options@1@@Z$3 00480490 f   TraceUI.obj
 0001:0007f4a9       __unwindfunclet$??$?0V<lambda_483208dc91e150c0c9b495b53fd62158>@@@?$task@X@Concurrency@@QAE@V<lambda_483208dc91e150c0c9b495b53fd62158>@@ABVtask_options@1@@Z$4 004804a9 f   TraceUI.obj
 0001:0007f4c2       __ehhandler$??$?0V<lambda_483208dc91e150c0c9b495b53fd62158>@@@?$task@X@Concurrency@@QAE@V<lambda_483208dc91e150c0c9b495b53fd62158>@@ABVtask_options@1@@Z 004804c2 f   TraceUI.obj
 0001:0007f4e0       __unwindfunclet$??$?0V<lambda_855a1ef4dbee54ab7f2f1e055b9bdfad>@@@?$task@X@Concurrency@@QAE@V<lambda_855a1ef4dbee54ab7f2f1e055b9bdfad>@@ABVtask_options@1@@Z$0 004804e0 f   TraceUI.obj
 0001:0007f4e8       __unwindfunclet$??$?0V<lambda_855a1ef4dbee54ab7f2f1e055b9bdfad>@@@?$task@X@Concurrency@@QAE@V<lambda_855a1ef4dbee54ab7f2f1e055b9bdfad>@@ABVtask_options@1@@Z$2 004804e8 f   TraceUI.obj
 0001:0007f4f0       __unwindfunclet$??$?0V<lambda_855a1ef4dbee54ab7f2f1e055b9bdfad>@@@?$task@X@Concurrency@@QAE@V<lambda_855a1ef4dbee54ab7f2f1e055b9bdfad>@@ABVtask_options@1@@Z$3 004804f0 f   TraceUI.obj
 0001:0007f509       __unwindfunclet$??$?0V<lambda_855a1ef4dbee54ab7f2f1e055b9bdfad>@@@?$task@X@Concurrency@@QAE@V<lambda_855a1ef4dbee54ab7f2f1e055b9bdfad>@@ABVtask_options@1@@Z$4 00480509 f   TraceUI.obj
 0001:0007f522       __ehhandler$??$?0V<lambda_855a1ef4dbee54ab7f2f1e055b9bdfad>@@@?$task@X@Concurrency@@QAE@V<lambda_855a1ef4dbee54ab7f2f1e055b9bdfad>@@ABVtask_options@1@@Z 00480522 f   TraceUI.obj
 0001:0007f540       __unwindfunclet$??$?0V?$_Fake_no_copy_callable_adapter@A6AXPAVTraceUI@@HHH@ZAAPAV1@HAAHAAH@std@@@?$_Task_async_state@X$00@std@@QAE@$$QAV?$_Fake_no_copy_callable_adapter@A6AXPAVTraceUI@@HHH@ZAAPAV1@HAAHAAH@1@@Z$0 00480540 f   TraceUI.obj
 0001:0007f548       __unwindfunclet$??$?0V?$_Fake_no_copy_callable_adapter@A6AXPAVTraceUI@@HHH@ZAAPAV1@HAAHAAH@std@@@?$_Task_async_state@X$00@std@@QAE@$$QAV?$_Fake_no_copy_callable_adapter@A6AXPAVTraceUI@@HHH@ZAAPAV1@HAAHAAH@1@@Z$1 00480548 f   TraceUI.obj
 0001:0007f556       __ehhandler$??$?0V?$_Fake_no_copy_callable_adapter@A6AXPAVTraceUI@@HHH@ZAAPAV1@HAAHAAH@std@@@?$_Task_async_state@X$00@std@@QAE@$$QAV?$_Fake_no_copy_callable_adapter@A6AXPAVTraceUI@@HHH@ZAAPAV1@HAAHAAH@1@@Z 00480556 f   TraceUI.obj
 0001:0007f580       __unwindfunclet$??$?0V?$_Fake_no_copy_callable_adapter@A6AXPAVTraceUI@@HHH@ZAAPAV1@HAAHAAH@std@@@?$_Task_async_state@X$0A@@std@@QAE@$$QAV?$_Fake_no_copy_callable_adapter@A6AXPAVTraceUI@@HHH@ZAAPAV1@HAAHAAH@1@@Z$0 00480580 f   TraceUI.obj
 0001:0007f588       __unwindfunclet$??$?0V?$_Fake_no_copy_callable_adapter@A6AXPAVTraceUI@@HHH@ZAAPAV1@HAAHAAH@std@@@?$_Task_async_state@X$0A@@std@@QAE@$$QAV?$_Fake_no_copy_callable_adapter@A6AXPAVTraceUI@@HHH@ZAAPAV1@HAAHAAH@1@@Z$1 00480588 f   TraceUI.obj
 0001:0007f596       __ehhandler$??$?0V?$_Fake_no_copy_callable_adapter@A6AXPAVTraceUI@@HHH@ZAAPAV1@HAAHAAH@std@@@?$_Task_async_state@X$0A@@std@@QAE@$$QAV?$_Fake_no_copy_callable_adapter@A6AXPAVTraceUI@@HHH@ZAAPAV1@HAAHAAH@1@@Z 00480596 f   TraceUI.obj
 0001:0007f5c0       __unwindfunclet$??$?0V?$_Fake_no_copy_callable_adapter@A6AXPAVTraceUI@@HHH@ZAAPAV1@HHAAH@std@@@?$_Task_async_state@X$00@std@@QAE@$$QAV?$_Fake_no_copy_callable_adapter@A6AXPAVTraceUI@@HHH@ZAAPAV1@HHAAH@1@@Z$0 004805c0 f   TraceUI.obj
 0001:0007f5c8       __unwindfunclet$??$?0V?$_Fake_no_copy_callable_adapter@A6AXPAVTraceUI@@HHH@ZAAPAV1@HHAAH@std@@@?$_Task_async_state@X$00@std@@QAE@$$QAV?$_Fake_no_copy_callable_adapter@A6AXPAVTraceUI@@HHH@ZAAPAV1@HHAAH@1@@Z$1 004805c8 f   TraceUI.obj
 0001:0007f5d6       __ehhandler$??$?0V?$_Fake_no_copy_callable_adapter@A6AXPAVTraceUI@@HHH@ZAAPAV1@HHAAH@std@@@?$_Task_async_state@X$00@std@@QAE@$$QAV?$_Fake_no_copy_callable_adapter@A6AXPAVTraceUI@@HHH@ZAAPAV1@HHAAH@1@@Z 004805d6 f   TraceUI.obj
 0001:0007f600       __unwindfunclet$??$?0V?$_Fake_no_copy_callable_adapter@A6AXPAVTraceUI@@HHH@ZAAPAV1@HHAAH@std@@@?$_Task_async_state@X$0A@@std@@QAE@$$QAV?$_Fake_no_copy_callable_adapter@A6AXPAVTraceUI@@HHH@ZAAPAV1@HHAAH@1@@Z$0 00480600 f   TraceUI.obj
 0001:0007f608       __unwindfunclet$??$?0V?$_Fake_no_copy_callable_adapter@A6AXPAVTraceUI@@HHH@ZAAPAV1@HHAAH@std@@@?$_Task_async_state@X$0A@@std@@QAE@$$QAV?$_Fake_no_copy_callable_adapter@A6AXPAVTraceUI@@HHH@ZAAPAV1@HHAAH@1@@Z$1 00480608 f   TraceUI.obj
 0001:0007f616       __ehhandler$??$?0V?$_Fake_no_copy_callable_adapter@A6AXPAVTraceUI@@HHH@ZAAPAV1@HHAAH@std@@@?$_Task_async_state@X$0A@@std@@QAE@$$QAV?$_Fake_no_copy_callable_adapter@A6AXPAVTraceUI@@HHH@ZAAPAV1@HHAAH@1@@Z 00480616 f   TraceUI.obj
 0001:0007f640       __unwindfunclet$??$_Clone@X@?$_Func_impl@V<lambda_cab26a778e4185933e9c5b0cfaedfe5e>@@V?$allocator@H@std@@E$$V@std@@ABEPAV?$_Func_base@E$$V@1@PAXU?$integral_constant@_N$00@1@@Z$12 00480640 f   TraceUI.obj
 0001:0007f651       __unwindfunclet$??$_Clone@X@?$_Func_impl@V<lambda_cab26a778e4185933e9c5b0cfaedfe5e>@@V?$allocator@H@std@@E$$V@std@@ABEPAV?$_Func_base@E$$V@1@PAXU?$integral_constant@_N$00@1@@Z$15 00480651 f   TraceUI.obj
 0001:0007f659       __unwindfunclet$??$_Clone@X@?$_Func_impl@V<lambda_cab26a778e4185933e9c5b0cfaedfe5e>@@V?$allocator@H@std@@E$$V@std@@ABEPAV?$_Func_base@E$$V@1@PAXU?$integral_constant@_N$00@1@@Z$25 00480659 f   TraceUI.obj
 0001:0007f661       __ehhandler$??$_Clone@X@?$_Func_impl@V<lambda_cab26a778e4185933e9c5b0cfaedfe5e>@@V?$allocator@H@std@@E$$V@std@@ABEPAV?$_Func_base@E$$V@1@PAXU?$integral_constant@_N$00@1@@Z 00480661 f   TraceUI.obj
 0001:0007f680       __ehhandler$??$_Destroy_range1@V?$allocator@V?$future@X@std@@@std@@PAV?$future@X@2@@std@@YAXPAV?$future@X@0@0AAU?$_Wrap_alloc@V?$allocator@V?$future@X@std@@@std@@@0@U?$integral_constant@_N$0A@@0@@Z 00480680 f   TraceUI.obj
 0001:0007f6a0       __unwindfunclet$??$_Get_associated_state@XV?$_Fake_no_copy_callable_adapter@A6AXPAVTraceUI@@HHH@ZAAPAV1@HAAHAAH@std@@@std@@YAPAV?$_Associated_state@H@0@W4launch@0@$$QAV?$_Fake_no_copy_callable_adapter@A6AXPAVTraceUI@@HHH@ZAAPAV1@HAAHAAH@0@@Z$2 004806a0 f   TraceUI.obj
 0001:0007f6b2       __unwindfunclet$??$_Get_associated_state@XV?$_Fake_no_copy_callable_adapter@A6AXPAVTraceUI@@HHH@ZAAPAV1@HAAHAAH@std@@@std@@YAPAV?$_Associated_state@H@0@W4launch@0@$$QAV?$_Fake_no_copy_callable_adapter@A6AXPAVTraceUI@@HHH@ZAAPAV1@HAAHAAH@0@@Z$1 004806b2 f   TraceUI.obj
 0001:0007f6c4       __unwindfunclet$??$_Get_associated_state@XV?$_Fake_no_copy_callable_adapter@A6AXPAVTraceUI@@HHH@ZAAPAV1@HAAHAAH@std@@@std@@YAPAV?$_Associated_state@H@0@W4launch@0@$$QAV?$_Fake_no_copy_callable_adapter@A6AXPAVTraceUI@@HHH@ZAAPAV1@HAAHAAH@0@@Z$0 004806c4 f   TraceUI.obj
 0001:0007f6d6       __ehhandler$??$_Get_associated_state@XV?$_Fake_no_copy_callable_adapter@A6AXPAVTraceUI@@HHH@ZAAPAV1@HAAHAAH@std@@@std@@YAPAV?$_Associated_state@H@0@W4launch@0@$$QAV?$_Fake_no_copy_callable_adapter@A6AXPAVTraceUI@@HHH@ZAAPAV1@HAAHAAH@0@@Z 004806d6 f   TraceUI.obj
 0001:0007f700       __unwindfunclet$??$_Get_associated_state@XV?$_Fake_no_copy_callable_adapter@A6AXPAVTraceUI@@HHH@ZAAPAV1@HHAAH@std@@@std@@YAPAV?$_Associated_state@H@0@W4launch@0@$$QAV?$_Fake_no_copy_callable_adapter@A6AXPAVTraceUI@@HHH@ZAAPAV1@HHAAH@0@@Z$2 00480700 f   TraceUI.obj
 0001:0007f712       __unwindfunclet$??$_Get_associated_state@XV?$_Fake_no_copy_callable_adapter@A6AXPAVTraceUI@@HHH@ZAAPAV1@HHAAH@std@@@std@@YAPAV?$_Associated_state@H@0@W4launch@0@$$QAV?$_Fake_no_copy_callable_adapter@A6AXPAVTraceUI@@HHH@ZAAPAV1@HHAAH@0@@Z$1 00480712 f   TraceUI.obj
 0001:0007f724       __unwindfunclet$??$_Get_associated_state@XV?$_Fake_no_copy_callable_adapter@A6AXPAVTraceUI@@HHH@ZAAPAV1@HHAAH@std@@@std@@YAPAV?$_Associated_state@H@0@W4launch@0@$$QAV?$_Fake_no_copy_callable_adapter@A6AXPAVTraceUI@@HHH@ZAAPAV1@HHAAH@0@@Z$0 00480724 f   TraceUI.obj
 0001:0007f736       __ehhandler$??$_Get_associated_state@XV?$_Fake_no_copy_callable_adapter@A6AXPAVTraceUI@@HHH@ZAAPAV1@HHAAH@std@@@std@@YAPAV?$_Associated_state@H@0@W4launch@0@$$QAV?$_Fake_no_copy_callable_adapter@A6AXPAVTraceUI@@HHH@ZAAPAV1@HHAAH@0@@Z 00480736 f   TraceUI.obj
 0001:0007f760       __unwindfunclet$??$_LogWorkItemAndInvokeUserLambda@V?$function@$$A6AEXZ@std@@@?$_InitialTaskHandle@XV<lambda_042c6af70ca74ab46830ae50c8c14c9e>@@U_TypeSelectorNoAsync@details@Concurrency@@@?$task@E@Concurrency@@QBEEV?$function@$$A6AEXZ@std@@@Z$0 00480760 f   TraceUI.obj
 0001:0007f768       __unwindfunclet$??$_LogWorkItemAndInvokeUserLambda@V?$function@$$A6AEXZ@std@@@?$_InitialTaskHandle@XV<lambda_042c6af70ca74ab46830ae50c8c14c9e>@@U_TypeSelectorNoAsync@details@Concurrency@@@?$task@E@Concurrency@@QBEEV?$function@$$A6AEXZ@std@@@Z$1 00480768 f   TraceUI.obj
 0001:0007f770       __ehhandler$??$_LogWorkItemAndInvokeUserLambda@V?$function@$$A6AEXZ@std@@@?$_InitialTaskHandle@XV<lambda_042c6af70ca74ab46830ae50c8c14c9e>@@U_TypeSelectorNoAsync@details@Concurrency@@@?$task@E@Concurrency@@QBEEV?$function@$$A6AEXZ@std@@@Z 00480770 f   TraceUI.obj
 0001:0007f790       __unwindfunclet$??$_LogWorkItemAndInvokeUserLambda@V?$function@$$A6AEXZ@std@@@?$_InitialTaskHandle@XV<lambda_0ebde0502725cf61f7686a2917d1749f>@@U_TypeSelectorNoAsync@details@Concurrency@@@?$task@E@Concurrency@@QBEEV?$function@$$A6AEXZ@std@@@Z$0 00480790 f   TraceUI.obj
 0001:0007f798       __unwindfunclet$??$_LogWorkItemAndInvokeUserLambda@V?$function@$$A6AEXZ@std@@@?$_InitialTaskHandle@XV<lambda_0ebde0502725cf61f7686a2917d1749f>@@U_TypeSelectorNoAsync@details@Concurrency@@@?$task@E@Concurrency@@QBEEV?$function@$$A6AEXZ@std@@@Z$1 00480798 f   TraceUI.obj
 0001:0007f7a0       __ehhandler$??$_LogWorkItemAndInvokeUserLambda@V?$function@$$A6AEXZ@std@@@?$_InitialTaskHandle@XV<lambda_0ebde0502725cf61f7686a2917d1749f>@@U_TypeSelectorNoAsync@details@Concurrency@@@?$task@E@Concurrency@@QBEEV?$function@$$A6AEXZ@std@@@Z 004807a0 f   TraceUI.obj
 0001:0007f7c0       __unwindfunclet$??$_LogWorkItemAndInvokeUserLambda@V?$function@$$A6AEXZ@std@@@?$_InitialTaskHandle@XV<lambda_483208dc91e150c0c9b495b53fd62158>@@U_TypeSelectorNoAsync@details@Concurrency@@@?$task@E@Concurrency@@QBEEV?$function@$$A6AEXZ@std@@@Z$0 004807c0 f   TraceUI.obj
 0001:0007f7c8       __unwindfunclet$??$_LogWorkItemAndInvokeUserLambda@V?$function@$$A6AEXZ@std@@@?$_InitialTaskHandle@XV<lambda_483208dc91e150c0c9b495b53fd62158>@@U_TypeSelectorNoAsync@details@Concurrency@@@?$task@E@Concurrency@@QBEEV?$function@$$A6AEXZ@std@@@Z$1 004807c8 f   TraceUI.obj
 0001:0007f7d0       __ehhandler$??$_LogWorkItemAndInvokeUserLambda@V?$function@$$A6AEXZ@std@@@?$_InitialTaskHandle@XV<lambda_483208dc91e150c0c9b495b53fd62158>@@U_TypeSelectorNoAsync@details@Concurrency@@@?$task@E@Concurrency@@QBEEV?$function@$$A6AEXZ@std@@@Z 004807d0 f   TraceUI.obj
 0001:0007f7f0       __unwindfunclet$??$_LogWorkItemAndInvokeUserLambda@V?$function@$$A6AEXZ@std@@@?$_InitialTaskHandle@XV<lambda_855a1ef4dbee54ab7f2f1e055b9bdfad>@@U_TypeSelectorNoAsync@details@Concurrency@@@?$task@E@Concurrency@@QBEEV?$function@$$A6AEXZ@std@@@Z$0 004807f0 f   TraceUI.obj
 0001:0007f7f8       __unwindfunclet$??$_LogWorkItemAndInvokeUserLambda@V?$function@$$A6AEXZ@std@@@?$_InitialTaskHandle@XV<lambda_855a1ef4dbee54ab7f2f1e055b9bdfad>@@U_TypeSelectorNoAsync@details@Concurrency@@@?$task@E@Concurrency@@QBEEV?$function@$$A6AEXZ@std@@@Z$1 004807f8 f   TraceUI.obj
 0001:0007f800       __ehhandler$??$_LogWorkItemAndInvokeUserLambda@V?$function@$$A6AEXZ@std@@@?$_InitialTaskHandle@XV<lambda_855a1ef4dbee54ab7f2f1e055b9bdfad>@@U_TypeSelectorNoAsync@details@Concurrency@@@?$task@E@Concurrency@@QBEEV?$function@$$A6AEXZ@std@@@Z 00480800 f   TraceUI.obj
 0001:0007f820       __unwindfunclet$??$_Reset_impl@V<lambda_cab26a778e4185933e9c5b0cfaedfe5e>@@V?$allocator@H@std@@V?$_Func_impl@V<lambda_cab26a778e4185933e9c5b0cfaedfe5e>@@V?$allocator@H@std@@E$$V@3@U?$_Wrap_alloc@V?$allocator@V?$_Func_impl@V<lambda_cab26a778e4185933e9c5b0cfaedfe5e>@@V?$allocator@H@std@@E$$V@std@@@std@@@3@@?$_Func_class@E$$V@std@@IAEX$$QAV<lambda_cab26a778e4185933e9c5b0cfaedfe5e>@@ABV?$allocator@H@1@PAV?$_Func_impl@V<lambda_cab26a778e4185933e9c5b0cfaedfe5e>@@V?$allocator@H@std@@E$$V@1@AAU?$_Wrap_alloc@V?$allocator@V?$_Func_impl@V<lambda_cab26a778e4185933e9c5b0cfaedfe5e>@@V?$allocator@H@std@@E$$V@std@@@std@@@1@U?$integral_constant@_N$00@1@@Z$7 00480820 f   TraceUI.obj
 0001:0007f831       __unwindfunclet$??$_Reset_impl@V<lambda_cab26a778e4185933e9c5b0cfaedfe5e>@@V?$allocator@H@std@@V?$_Func_impl@V<lambda_cab26a778e4185933e9c5b0cfaedfe5e>@@V?$allocator@H@std@@E$$V@3@U?$_Wrap_alloc@V?$allocator@V?$_Func_impl@V<lambda_cab26a778e4185933e9c5b0cfaedfe5e>@@V?$allocator@H@std@@E$$V@std@@@std@@@3@@?$_Func_class@E$$V@std@@IAEX$$QAV<lambda_cab26a778e4185933e9c5b0cfaedfe5e>@@ABV?$allocator@H@1@PAV?$_Func_impl@V<lambda_cab26a778e4185933e9c5b0cfaedfe5e>@@V?$allocator@H@std@@E$$V@1@AAU?$_Wrap_alloc@V?$allocator@V?$_Func_impl@V<lambda_cab26a778e4185933e9c5b0cfaedfe5e>@@V?$allocator@H@std@@E$$V@std@@@std@@@1@U?$integral_constant@_N$00@1@@Z$10 00480831 f   TraceUI.obj
 0001:0007f839       __unwindfunclet$??$_Reset_impl@V<lambda_cab26a778e4185933e9c5b0cfaedfe5e>@@V?$allocator@H@std@@V?$_Func_impl@V<lambda_cab26a778e4185933e9c5b0cfaedfe5e>@@V?$allocator@H@std@@E$$V@3@U?$_Wrap_alloc@V?$allocator@V?$_Func_impl@V<lambda_cab26a778e4185933e9c5b0cfaedfe5e>@@V?$allocator@H@std@@E$$V@std@@@std@@@3@@?$_Func_class@E$$V@std@@IAEX$$QAV<lambda_cab26a778e4185933e9c5b0cfaedfe5e>@@ABV?$allocator@H@1@PAV?$_Func_impl@V<lambda_cab26a778e4185933e9c5b0cfaedfe5e>@@V?$allocator@H@std@@E$$V@1@AAU?$_Wrap_alloc@V?$allocator@V?$_Func_impl@V<lambda_cab26a778e4185933e9c5b0cfaedfe5e>@@V?$allocator@H@std@@E$$V@std@@@std@@@1@U?$integral_constant@_N$00@1@@Z$20 00480839 f   TraceUI.obj
 0001:0007f841       __ehhandler$??$_Reset_impl@V<lambda_cab26a778e4185933e9c5b0cfaedfe5e>@@V?$allocator@H@std@@V?$_Func_impl@V<lambda_cab26a778e4185933e9c5b0cfaedfe5e>@@V?$allocator@H@std@@E$$V@3@U?$_Wrap_alloc@V?$allocator@V?$_Func_impl@V<lambda_cab26a778e4185933e9c5b0cfaedfe5e>@@V?$allocator@H@std@@E$$V@std@@@std@@@3@@?$_Func_class@E$$V@std@@IAEX$$QAV<lambda_cab26a778e4185933e9c5b0cfaedfe5e>@@ABV?$allocator@H@1@PAV?$_Func_impl@V<lambda_cab26a778e4185933e9c5b0cfaedfe5e>@@V?$allocator@H@std@@E$$V@1@AAU?$_Wrap_alloc@V?$allocator@V?$_Func_impl@V<lambda_cab26a778e4185933e9c5b0cfaedfe5e>@@V?$allocator@H@std@@E$$V@std@@@std@@@1@U?$integral_constant@_N$00@1@@Z 00480841 f   TraceUI.obj
 0001:0007f860       __ehhandler$??$_Uninitialized_move_al_unchecked@PAV?$future@X@std@@PAV12@V?$allocator@V?$future@X@std@@@2@@std@@YAPAV?$future@X@0@PAV10@00AAU?$_Wrap_alloc@V?$allocator@V?$future@X@std@@@std@@@0@U_General_ptr_iterator_tag@0@U_Any_tag@0@@Z 00480860 f   TraceUI.obj
 0001:0007f880       __unwindfunclet$??$_Wait_for@_JU?$ratio@$00$0DOI@@std@@@?$_Associated_state@H@std@@QAE?AW4future_status@1@ABV?$duration@_JU?$ratio@$00$0DOI@@std@@@chrono@1@@Z$0 00480880 f   TraceUI.obj
 0001:0007f888       __ehhandler$??$_Wait_for@_JU?$ratio@$00$0DOI@@std@@@?$_Associated_state@H@std@@QAE?AW4future_status@1@ABV?$duration@_JU?$ratio@$00$0DOI@@std@@@chrono@1@@Z 00480888 f   TraceUI.obj
 0001:0007f8b0       __unwindfunclet$??$async@A6AXPAVTraceUI@@HHH@ZAAPAV1@HAAHAAH@std@@YA?AV?$future@X@0@W4launch@0@A6AXPAVTraceUI@@HHH@ZAAPAV3@$$QAHAAH5@Z$0 004808b0 f   TraceUI.obj
 0001:0007f8b8       __ehhandler$??$async@A6AXPAVTraceUI@@HHH@ZAAPAV1@HAAHAAH@std@@YA?AV?$future@X@0@W4launch@0@A6AXPAVTraceUI@@HHH@ZAAPAV3@$$QAHAAH5@Z 004808b8 f   TraceUI.obj
 0001:0007f8e0       __unwindfunclet$??$async@A6AXPAVTraceUI@@HHH@ZAAPAV1@HHAAH@std@@YA?AV?$future@X@0@W4launch@0@A6AXPAVTraceUI@@HHH@ZAAPAV3@$$QAH4AAH@Z$0 004808e0 f   TraceUI.obj
 0001:0007f8e8       __ehhandler$??$async@A6AXPAVTraceUI@@HHH@ZAAPAV1@HHAAH@std@@YA?AV?$future@X@0@W4launch@0@A6AXPAVTraceUI@@HHH@ZAAPAV3@$$QAH4AAH@Z 004808e8 f   TraceUI.obj
 0001:0007f910       __unwindfunclet$??$create_task@V<lambda_042c6af70ca74ab46830ae50c8c14c9e>@@@Concurrency@@YA?AV?$task@X@0@V<lambda_042c6af70ca74ab46830ae50c8c14c9e>@@Vtask_options@0@@Z$0 00480910 f   TraceUI.obj
 0001:0007f918       __unwindfunclet$??$create_task@V<lambda_042c6af70ca74ab46830ae50c8c14c9e>@@@Concurrency@@YA?AV?$task@X@0@V<lambda_042c6af70ca74ab46830ae50c8c14c9e>@@Vtask_options@0@@Z$1 00480918 f   TraceUI.obj
 0001:0007f920       __ehhandler$??$create_task@V<lambda_042c6af70ca74ab46830ae50c8c14c9e>@@@Concurrency@@YA?AV?$task@X@0@V<lambda_042c6af70ca74ab46830ae50c8c14c9e>@@Vtask_options@0@@Z 00480920 f   TraceUI.obj
 0001:0007f940       __unwindfunclet$??$create_task@V<lambda_0ebde0502725cf61f7686a2917d1749f>@@@Concurrency@@YA?AV?$task@X@0@V<lambda_0ebde0502725cf61f7686a2917d1749f>@@Vtask_options@0@@Z$0 00480940 f   TraceUI.obj
 0001:0007f948       __unwindfunclet$??$create_task@V<lambda_0ebde0502725cf61f7686a2917d1749f>@@@Concurrency@@YA?AV?$task@X@0@V<lambda_0ebde0502725cf61f7686a2917d1749f>@@Vtask_options@0@@Z$1 00480948 f   TraceUI.obj
 0001:0007f950       __ehhandler$??$create_task@V<lambda_0ebde0502725cf61f7686a2917d1749f>@@@Concurrency@@YA?AV?$task@X@0@V<lambda_0ebde0502725cf61f7686a2917d1749f>@@Vtask_options@0@@Z 00480950 f   TraceUI.obj
 0001:0007f970       __unwindfunclet$??$create_task@V<lambda_483208dc91e150c0c9b495b53fd62158>@@@Concurrency@@YA?AV?$task@X@0@V<lambda_483208dc91e150c0c9b495b53fd62158>@@Vtask_options@0@@Z$0 00480970 f   TraceUI.obj
 0001:0007f978       __unwindfunclet$??$create_task@V<lambda_483208dc91e150c0c9b495b53fd62158>@@@Concurrency@@YA?AV?$task@X@0@V<lambda_483208dc91e150c0c9b495b53fd62158>@@Vtask_options@0@@Z$1 00480978 f   TraceUI.obj
 0001:0007f980       __ehhandler$??$create_task@V<lambda_483208dc91e150c0c9b495b53fd62158>@@@Concurrency@@YA?AV?$task@X@0@V<lambda_483208dc91e150c0c9b495b53fd62158>@@Vtask_options@0@@Z 00480980 f   TraceUI.obj
 0001:0007f9a0       __unwindfunclet$??$create_task@V<lambda_855a1ef4dbee54ab7f2f1e055b9bdfad>@@@Concurrency@@YA?AV?$task@X@0@V<lambda_855a1ef4dbee54ab7f2f1e055b9bdfad>@@Vtask_options@0@@Z$0 004809a0 f   TraceUI.obj
 0001:0007f9a8       __unwindfunclet$??$create_task@V<lambda_855a1ef4dbee54ab7f2f1e055b9bdfad>@@@Concurrency@@YA?AV?$task@X@0@V<lambda_855a1ef4dbee54ab7f2f1e055b9bdfad>@@Vtask_options@0@@Z$1 004809a8 f   TraceUI.obj
 0001:0007f9b0       __ehhandler$??$create_task@V<lambda_855a1ef4dbee54ab7f2f1e055b9bdfad>@@@Concurrency@@YA?AV?$task@X@0@V<lambda_855a1ef4dbee54ab7f2f1e055b9bdfad>@@Vtask_options@0@@Z 004809b0 f   TraceUI.obj
 0001:0007f9d0       __ehhandler$??$destroy@V?$future@X@std@@@?$_Wrap_alloc@V?$allocator@V?$future@X@std@@@std@@@std@@QAEXPAV?$future@X@1@@Z 004809d0 f   TraceUI.obj
 0001:0007f9f0       __ehhandler$??$emplace_back@V?$future@X@std@@@?$vector@V?$future@X@std@@V?$allocator@V?$future@X@std@@@2@@std@@QAEX$$QAV?$future@X@1@@Z 004809f0 f   TraceUI.obj
 0001:0007fa10       __unwindfunclet$??$make_shared@U_ExceptionHolder@details@Concurrency@@ABVexception_ptr@std@@V_TaskCreationCallstack@23@@std@@YA?AV?$shared_ptr@U_ExceptionHolder@details@Concurrency@@@0@ABVexception_ptr@0@$$QAV_TaskCreationCallstack@details@Concurrency@@@Z$0 00480a10 f   TraceUI.obj
 0001:0007fa1f       __ehhandler$??$make_shared@U_ExceptionHolder@details@Concurrency@@ABVexception_ptr@std@@V_TaskCreationCallstack@23@@std@@YA?AV?$shared_ptr@U_ExceptionHolder@details@Concurrency@@@0@ABVexception_ptr@0@$$QAV_TaskCreationCallstack@details@Concurrency@@@Z 00480a1f f   TraceUI.obj
 0001:0007fa40       __unwindfunclet$??0TraceUI@@QAE@XZ$0 00480a40 f   TraceUI.obj
 0001:0007fa52       __unwindfunclet$??0TraceUI@@QAE@XZ$1 00480a52 f   TraceUI.obj
 0001:0007fa61       __unwindfunclet$??0TraceUI@@QAE@XZ$2 00480a61 f   TraceUI.obj
 0001:0007fa73       __unwindfunclet$??0TraceUI@@QAE@XZ$3 00480a73 f   TraceUI.obj
 0001:0007fa85       __unwindfunclet$??0TraceUI@@QAE@XZ$4 00480a85 f   TraceUI.obj
 0001:0007fa97       __unwindfunclet$??0TraceUI@@QAE@XZ$5 00480a97 f   TraceUI.obj
 0001:0007faa9       __unwindfunclet$??0TraceUI@@QAE@XZ$6 00480aa9 f   TraceUI.obj
 0001:0007fabb       __unwindfunclet$??0TraceUI@@QAE@XZ$7 00480abb f   TraceUI.obj
 0001:0007facd       __unwindfunclet$??0TraceUI@@QAE@XZ$8 00480acd f   TraceUI.obj
 0001:0007fadf       __unwindfunclet$??0TraceUI@@QAE@XZ$9 00480adf f   TraceUI.obj
 0001:0007faf1       __unwindfunclet$??0TraceUI@@QAE@XZ$10 00480af1 f   TraceUI.obj
 0001:0007fb03       __unwindfunclet$??0TraceUI@@QAE@XZ$11 00480b03 f   TraceUI.obj
 0001:0007fb15       __unwindfunclet$??0TraceUI@@QAE@XZ$12 00480b15 f   TraceUI.obj
 0001:0007fb24       __unwindfunclet$??0TraceUI@@QAE@XZ$13 00480b24 f   TraceUI.obj
 0001:0007fb33       __unwindfunclet$??0TraceUI@@QAE@XZ$14 00480b33 f   TraceUI.obj
 0001:0007fb42       __unwindfunclet$??0TraceUI@@QAE@XZ$15 00480b42 f   TraceUI.obj
 0001:0007fb51       __unwindfunclet$??0TraceUI@@QAE@XZ$16 00480b51 f   TraceUI.obj
 0001:0007fb60       __unwindfunclet$??0TraceUI@@QAE@XZ$17 00480b60 f   TraceUI.obj
 0001:0007fb6f       __unwindfunclet$??0TraceUI@@QAE@XZ$18 00480b6f f   TraceUI.obj
 0001:0007fb7e       __unwindfunclet$??0TraceUI@@QAE@XZ$19 00480b7e f   TraceUI.obj
 0001:0007fb8d       __unwindfunclet$??0TraceUI@@QAE@XZ$20 00480b8d f   TraceUI.obj
 0001:0007fb9f       __ehhandler$??0TraceUI@@QAE@XZ 00480b9f f   TraceUI.obj
 0001:0007fbc0       __unwindfunclet$??0system_error@std@@QAE@Verror_code@1@@Z$0 00480bc0 f   TraceUI.obj
 0001:0007fbc8       __ehhandler$??0system_error@std@@QAE@Verror_code@1@@Z 00480bc8 f   TraceUI.obj
 0001:0007fbf0       __unwindfunclet$??0task_options@Concurrency@@QAE@XZ$1 00480bf0 f   TraceUI.obj
 0001:0007fbf8       __unwindfunclet$??0task_options@Concurrency@@QAE@XZ$2 00480bf8 f   TraceUI.obj
 0001:0007fc03       __ehhandler$??0task_options@Concurrency@@QAE@XZ 00480c03 f   TraceUI.obj
 0001:0007fc20       __ehhandler$??1?$_Associated_state@H@std@@UAE@XZ 00480c20 f   TraceUI.obj
 0001:0007fc40       __ehhandler$??1?$_InitialTaskHandle@XV<lambda_042c6af70ca74ab46830ae50c8c14c9e>@@U_TypeSelectorNoAsync@details@Concurrency@@@?$task@E@Concurrency@@UAE@XZ 00480c40 f   TraceUI.obj
 0001:0007fc60       __ehhandler$??1?$_InitialTaskHandle@XV<lambda_0ebde0502725cf61f7686a2917d1749f>@@U_TypeSelectorNoAsync@details@Concurrency@@@?$task@E@Concurrency@@UAE@XZ 00480c60 f   TraceUI.obj
 0001:0007fc80       __ehhandler$??1?$_InitialTaskHandle@XV<lambda_483208dc91e150c0c9b495b53fd62158>@@U_TypeSelectorNoAsync@details@Concurrency@@@?$task@E@Concurrency@@UAE@XZ 00480c80 f   TraceUI.obj
 0001:0007fca0       __ehhandler$??1?$_InitialTaskHandle@XV<lambda_855a1ef4dbee54ab7f2f1e055b9bdfad>@@U_TypeSelectorNoAsync@details@Concurrency@@@?$task@E@Concurrency@@UAE@XZ 00480ca0 f   TraceUI.obj
 0001:0007fcc0       __ehhandler$??1?$_PPLTaskHandle@EU?$_InitialTaskHandle@XV<lambda_042c6af70ca74ab46830ae50c8c14c9e>@@U_TypeSelectorNoAsync@details@Concurrency@@@?$task@E@Concurrency@@U_TaskProcHandle@details@3@@details@Concurrency@@UAE@XZ 00480cc0 f   TraceUI.obj
 0001:0007fce0       __ehhandler$??1?$_PPLTaskHandle@EU?$_InitialTaskHandle@XV<lambda_0ebde0502725cf61f7686a2917d1749f>@@U_TypeSelectorNoAsync@details@Concurrency@@@?$task@E@Concurrency@@U_TaskProcHandle@details@3@@details@Concurrency@@UAE@XZ 00480ce0 f   TraceUI.obj
 0001:0007fd00       __ehhandler$??1?$_PPLTaskHandle@EU?$_InitialTaskHandle@XV<lambda_483208dc91e150c0c9b495b53fd62158>@@U_TypeSelectorNoAsync@details@Concurrency@@@?$task@E@Concurrency@@U_TaskProcHandle@details@3@@details@Concurrency@@UAE@XZ 00480d00 f   TraceUI.obj
 0001:0007fd20       __ehhandler$??1?$_PPLTaskHandle@EU?$_InitialTaskHandle@XV<lambda_855a1ef4dbee54ab7f2f1e055b9bdfad>@@U_TypeSelectorNoAsync@details@Concurrency@@@?$task@E@Concurrency@@U_TaskProcHandle@details@3@@details@Concurrency@@UAE@XZ 00480d20 f   TraceUI.obj
 0001:0007fd40       __ehhandler$??1?$_Packaged_state@$$A6AXXZ@std@@UAE@XZ 00480d40 f   TraceUI.obj
 0001:0007fd60       __ehhandler$??1?$_Promise@H@std@@QAE@XZ 00480d60 f   TraceUI.obj
 0001:0007fd80       __ehhandler$??1?$_Task_async_state@X$00@std@@UAE@XZ 00480d80 f   TraceUI.obj
 0001:0007fda0       __ehhandler$??1?$_Task_async_state@X$0A@@std@@UAE@XZ 00480da0 f   TraceUI.obj
 0001:0007fdc0       __ehhandler$??1?$_Task_impl@E@details@Concurrency@@UAE@XZ 00480dc0 f   TraceUI.obj
 0001:0007fde0       __ehhandler$??1?$future@X@std@@QAE@XZ 00480de0 f   TraceUI.obj
 0001:0007fe00       __ehhandler$??1?$lock_guard@Vmutex@std@@@std@@QAE@XZ 00480e00 f   TraceUI.obj
 0001:0007fe20       __ehhandler$??1?$unique_lock@Vmutex@std@@@std@@QAE@XZ 00480e20 f   TraceUI.obj
 0001:0007fe40       __ehhandler$??1?$unique_ptr@V_PPLTaskChore@_DefaultPPLTaskScheduler@details@Concurrency@@U?$default_delete@V_PPLTaskChore@_DefaultPPLTaskScheduler@details@Concurrency@@@std@@@std@@QAE@XZ 00480e40 f   TraceUI.obj
 0001:0007fe60       __ehhandler$??1?$vector@V?$future@X@std@@V?$allocator@V?$future@X@std@@@2@@std@@QAE@XZ 00480e60 f   TraceUI.obj
 0001:0007fe80       __ehhandler$??1_ContextCallback@details@Concurrency@@QAE@XZ 00480e80 f   TraceUI.obj
 0001:0007fea0       __ehhandler$??1_ExceptionHolder@details@Concurrency@@QAE@XZ 00480ea0 f   TraceUI.obj
 0001:0007fec0       __ehhandler$??1_TaskWorkItemRAIILogger@details@Concurrency@@QAE@XZ 00480ec0 f   TraceUI.obj
 0001:0007fee0       __ehhandler$??1_Task_impl_base@details@Concurrency@@UAE@XZ 00480ee0 f   TraceUI.obj
 0001:0007ff00       __ehhandler$??1cancellation_token@Concurrency@@QAE@XZ 00480f00 f   TraceUI.obj
 0001:0007ff20       __ehhandler$??1task_options@Concurrency@@QAE@XZ 00480f20 f   TraceUI.obj
 0001:0007ff40       __unwindfunclet$??R<lambda_7c33b2c4310ad8c6be497d7a2a561bb8>@@QBEXXZ$2 00480f40 f   TraceUI.obj
 0001:0007ff48       __unwindfunclet$??R<lambda_7c33b2c4310ad8c6be497d7a2a561bb8>@@QBEXXZ$6 00480f48 f   TraceUI.obj
 0001:0007ff50       __ehhandler$??R<lambda_7c33b2c4310ad8c6be497d7a2a561bb8>@@QBEXXZ 00480f50 f   TraceUI.obj
 0001:0007ff70       __ehhandler$??_G?$_Associated_state@H@std@@UAEPAXI@Z 00480f70 f   TraceUI.obj
 0001:0007ff90       __ehhandler$??_G?$_InitialTaskHandle@XV<lambda_042c6af70ca74ab46830ae50c8c14c9e>@@U_TypeSelectorNoAsync@details@Concurrency@@@?$task@E@Concurrency@@UAEPAXI@Z 00480f90 f   TraceUI.obj
 0001:0007ffb0       __ehhandler$??_G?$_InitialTaskHandle@XV<lambda_0ebde0502725cf61f7686a2917d1749f>@@U_TypeSelectorNoAsync@details@Concurrency@@@?$task@E@Concurrency@@UAEPAXI@Z 00480fb0 f   TraceUI.obj
 0001:0007ffd0       __ehhandler$??_G?$_InitialTaskHandle@XV<lambda_483208dc91e150c0c9b495b53fd62158>@@U_TypeSelectorNoAsync@details@Concurrency@@@?$task@E@Concurrency@@UAEPAXI@Z 00480fd0 f   TraceUI.obj
 0001:0007fff0       __ehhandler$??_G?$_InitialTaskHandle@XV<lambda_855a1ef4dbee54ab7f2f1e055b9bdfad>@@U_TypeSelectorNoAsync@details@Concurrency@@@?$task@E@Concurrency@@UAEPAXI@Z 00480ff0 f   TraceUI.obj
 0001:00080010       __ehhandler$??_G?$_PPLTaskHandle@EU?$_InitialTaskHandle@XV<lambda_042c6af70ca74ab46830ae50c8c14c9e>@@U_TypeSelectorNoAsync@details@Concurrency@@@?$task@E@Concurrency@@U_TaskProcHandle@details@3@@details@Concurrency@@UAEPAXI@Z 00481010 f   TraceUI.obj
 0001:00080030       __ehhandler$??_G?$_PPLTaskHandle@EU?$_InitialTaskHandle@XV<lambda_0ebde0502725cf61f7686a2917d1749f>@@U_TypeSelectorNoAsync@details@Concurrency@@@?$task@E@Concurrency@@U_TaskProcHandle@details@3@@details@Concurrency@@UAEPAXI@Z 00481030 f   TraceUI.obj
 0001:00080050       __ehhandler$??_G?$_PPLTaskHandle@EU?$_InitialTaskHandle@XV<lambda_483208dc91e150c0c9b495b53fd62158>@@U_TypeSelectorNoAsync@details@Concurrency@@@?$task@E@Concurrency@@U_TaskProcHandle@details@3@@details@Concurrency@@UAEPAXI@Z 00481050 f   TraceUI.obj
 0001:00080070       __ehhandler$??_G?$_PPLTaskHandle@EU?$_InitialTaskHandle@XV<lambda_855a1ef4dbee54ab7f2f1e055b9bdfad>@@U_TypeSelectorNoAsync@details@Concurrency@@@?$task@E@Concurrency@@U_TaskProcHandle@details@3@@details@Concurrency@@UAEPAXI@Z 00481070 f   TraceUI.obj
 0001:00080090       __ehhandler$??_G?$_Task_async_state@X$0A@@std@@UAEPAXI@Z 00481090 f   TraceUI.obj
 0001:000800b0       __ehhandler$??_G_PPLTaskChore@_DefaultPPLTaskScheduler@details@Concurrency@@QAEPAXI@Z 004810b0 f   TraceUI.obj
 0001:000800d0       __unwindfunclet$?WaitUntilStateChangedTo@_TaskCollectionBaseImpl@details@Concurrency@@IAEXW4_TaskCollectionState@123@@Z$0 004810d0 f   TraceUI.obj
 0001:000800d8       __ehhandler$?WaitUntilStateChangedTo@_TaskCollectionBaseImpl@details@Concurrency@@IAEXW4_TaskCollectionState@123@@Z 004810d8 f   TraceUI.obj
 0001:00080100       __unwindfunclet$?_Bridge@_TaskProcThunk@details@Concurrency@@SAXPAX@Z$0 00481100 f   TraceUI.obj
 0001:00080108       __ehhandler$?_Bridge@_TaskProcThunk@details@Concurrency@@SAXPAX@Z 00481108 f   TraceUI.obj
 0001:00080130       __unwindfunclet$?_CallInContext@_ContextCallback@details@Concurrency@@QBEXV?$function@$$A6AXXZ@std@@@Z$0 00481130 f   TraceUI.obj
 0001:00080138       __unwindfunclet$?_CallInContext@_ContextCallback@details@Concurrency@@QBEXV?$function@$$A6AXXZ@std@@@Z$2 00481138 f   TraceUI.obj
 0001:00080140       __ehhandler$?_CallInContext@_ContextCallback@details@Concurrency@@QBEXV?$function@$$A6AXXZ@std@@@Z 00481140 f   TraceUI.obj
 0001:00080160       __ehhandler$?_Call_immediate@?$_Packaged_state@$$A6AXXZ@std@@QAEXXZ 00481160 f   TraceUI.obj
 0001:00080180       __unwindfunclet$?_Callback@_PPLTaskChore@_DefaultPPLTaskScheduler@details@Concurrency@@CAXPAX@Z$0 00481180 f   TraceUI.obj
 0001:00080188       __ehhandler$?_Callback@_PPLTaskChore@_DefaultPPLTaskScheduler@details@Concurrency@@CAXPAX@Z 00481188 f   TraceUI.obj
 0001:000801b0       __unwindfunclet$?_CancelAndRunContinuations@?$_Task_impl@E@details@Concurrency@@UAE_N_N00ABV?$shared_ptr@U_ExceptionHolder@details@Concurrency@@@std@@@Z$0 004811b0 f   TraceUI.obj
 0001:000801b8       __unwindfunclet$?_CancelAndRunContinuations@?$_Task_impl@E@details@Concurrency@@UAE_N_N00ABV?$shared_ptr@U_ExceptionHolder@details@Concurrency@@@std@@@Z$1 004811b8 f   TraceUI.obj
 0001:000801c0       __ehhandler$?_CancelAndRunContinuations@?$_Task_impl@E@details@Concurrency@@UAE_N_N00ABV?$shared_ptr@U_ExceptionHolder@details@Concurrency@@@std@@@Z 004811c0 f   TraceUI.obj
 0001:000801f0       __unwindfunclet$?_CancelWithException@_Task_impl_base@details@Concurrency@@QAE_NABVexception_ptr@std@@@Z$0 004811f0 f   TraceUI.obj
 0001:000801f8       __unwindfunclet$?_CancelWithException@_Task_impl_base@details@Concurrency@@QAE_NABVexception_ptr@std@@@Z$1 004811f8 f   TraceUI.obj
 0001:00080200       __ehhandler$?_CancelWithException@_Task_impl_base@details@Concurrency@@QAE_NABVexception_ptr@std@@@Z 00481200 f   TraceUI.obj
 0001:00080220       __unwindfunclet$?_CaptureCurrent@_ContextCallback@details@Concurrency@@SA?AV123@XZ$0 00481220 f   TraceUI.obj
 0001:00080239       __ehhandler$?_CaptureCurrent@_ContextCallback@details@Concurrency@@SA?AV123@XZ 00481239 f   TraceUI.obj
 0001:00080260       __unwindfunclet$?_CreateImpl@?$task@E@Concurrency@@QAEXPAV_CancellationTokenState@details@2@Uscheduler_ptr@2@@Z$0 00481260 f   TraceUI.obj
 0001:00080268       __ehhandler$?_CreateImpl@?$task@E@Concurrency@@QAEXPAV_CancellationTokenState@details@2@Uscheduler_ptr@2@@Z 00481268 f   TraceUI.obj
 0001:00080290       __unwindfunclet$?_DeregisterCallback@_CancellationTokenState@details@Concurrency@@QAEXPAV_CancellationTokenRegistration@23@@Z$0 00481290 f   TraceUI.obj
 0001:00080298       __unwindfunclet$?_DeregisterCallback@_CancellationTokenState@details@Concurrency@@QAEXPAV_CancellationTokenRegistration@23@@Z$1 00481298 f   TraceUI.obj
 0001:000802a0       __ehhandler$?_DeregisterCallback@_CancellationTokenState@details@Concurrency@@QAEXPAV_CancellationTokenRegistration@23@@Z 004812a0 f   TraceUI.obj
 0001:000802c0       __ehhandler$?_Do_notify@?$_Associated_state@H@std@@EAEXPAV?$unique_lock@Vmutex@std@@@2@_N@Z 004812c0 f   TraceUI.obj
 0001:000802e0       __unwindfunclet$?_Exec@?$_CancellationTokenCallback@V<lambda_3b8ab8d2629adf61a42ee3fe177a046b>@@@details@Concurrency@@MAEXXZ$0 004812e0 f   TraceUI.obj
 0001:000802e8       __ehhandler$?_Exec@?$_CancellationTokenCallback@V<lambda_3b8ab8d2629adf61a42ee3fe177a046b>@@@details@Concurrency@@MAEXXZ 004812e8 f   TraceUI.obj
 0001:00080310       __ehhandler$?_FinalizeAndRunContinuations@?$_Task_impl@E@details@Concurrency@@QAEXE@Z 00481310 f   TraceUI.obj
 0001:00080330       __unwindfunclet$?_Get_value@?$_Associated_state@H@std@@UAEAAH_N@Z$0 00481330 f   TraceUI.obj
 0001:00080338       __ehhandler$?_Get_value@?$_Associated_state@H@std@@UAEAAH_N@Z 00481338 f   TraceUI.obj
 0001:00080360       __ehhandler$?_Invoke@_CancellationTokenRegistration@details@Concurrency@@AAEXXZ 00481360 f   TraceUI.obj
 0001:00080380       __unwindfunclet$?_Make@?$_Task_ptr@E@details@Concurrency@@SA?AV?$shared_ptr@U?$_Task_impl@E@details@Concurrency@@@std@@PAV_CancellationTokenState@23@Uscheduler_ptr@3@@Z$0 00481380 f   TraceUI.obj
 0001:00080388       __ehhandler$?_Make@?$_Task_ptr@E@details@Concurrency@@SA?AV?$shared_ptr@U?$_Task_impl@E@details@Concurrency@@@std@@PAV_CancellationTokenState@23@Uscheduler_ptr@3@@Z 00481388 f   TraceUI.obj
 0001:000803b0       __unwindfunclet$?_MakeVoidToUnitFunc@details@Concurrency@@YA?AV?$function@$$A6AEXZ@std@@ABV?$function@$$A6AXXZ@4@@Z$3 004813b0 f   TraceUI.obj
 0001:000803b8       __unwindfunclet$?_MakeVoidToUnitFunc@details@Concurrency@@YA?AV?$function@$$A6AEXZ@std@@ABV?$function@$$A6AXXZ@4@@Z$11 004813b8 f   TraceUI.obj
 0001:000803c0       __unwindfunclet$?_MakeVoidToUnitFunc@details@Concurrency@@YA?AV?$function@$$A6AEXZ@std@@ABV?$function@$$A6AXXZ@4@@Z$12 004813c0 f   TraceUI.obj
 0001:000803c8       __ehhandler$?_MakeVoidToUnitFunc@details@Concurrency@@YA?AV?$function@$$A6AEXZ@std@@ABV?$function@$$A6AXXZ@4@@Z 004813c8 f   TraceUI.obj
 0001:000803f0       __unwindfunclet$?_Makestr@_System_error@std@@CA?AV?$basic_string@DU?$char_traits@D@std@@V?$allocator@D@2@@2@Verror_code@2@V32@@Z$0 004813f0 f   TraceUI.obj
 0001:000803f8       __unwindfunclet$?_Makestr@_System_error@std@@CA?AV?$basic_string@DU?$char_traits@D@std@@V?$allocator@D@2@@2@Verror_code@2@V32@@Z$1 004813f8 f   TraceUI.obj
 0001:00080400       __ehhandler$?_Makestr@_System_error@std@@CA?AV?$basic_string@DU?$char_traits@D@std@@V?$allocator@D@2@@2@Verror_code@2@V32@@Z 00481400 f   TraceUI.obj
 0001:00080430       __unwindfunclet$?_Move@?$_Func_impl@V<lambda_cab26a778e4185933e9c5b0cfaedfe5e>@@V?$allocator@H@std@@E$$V@std@@EAEPAV?$_Func_base@E$$V@2@PAX@Z$12 00481430 f   TraceUI.obj
 0001:00080441       __unwindfunclet$?_Move@?$_Func_impl@V<lambda_cab26a778e4185933e9c5b0cfaedfe5e>@@V?$allocator@H@std@@E$$V@std@@EAEPAV?$_Func_base@E$$V@2@PAX@Z$15 00481441 f   TraceUI.obj
 0001:00080449       __unwindfunclet$?_Move@?$_Func_impl@V<lambda_cab26a778e4185933e9c5b0cfaedfe5e>@@V?$allocator@H@std@@E$$V@std@@EAEPAV?$_Func_base@E$$V@2@PAX@Z$25 00481449 f   TraceUI.obj
 0001:00080451       __ehhandler$?_Move@?$_Func_impl@V<lambda_cab26a778e4185933e9c5b0cfaedfe5e>@@V?$allocator@H@std@@E$$V@std@@EAEPAV?$_Func_base@E$$V@2@PAX@Z 00481451 f   TraceUI.obj
 0001:00080470       __unwindfunclet$?_Perform@?$_Init_func_transformer@X@Concurrency@@SA?AV?$function@$$A6AEXZ@std@@V?$function@$$A6AXXZ@4@@Z$0 00481470 f   TraceUI.obj
 0001:00080478       __ehhandler$?_Perform@?$_Init_func_transformer@X@Concurrency@@SA?AV?$function@$$A6AEXZ@std@@V?$function@$$A6AXXZ@4@@Z 00481478 f   TraceUI.obj
 0001:000804a0       __unwindfunclet$?_RegisterCallback@_CancellationTokenState@details@Concurrency@@QAEXPAV_CancellationTokenRegistration@23@@Z$0 004814a0 f   TraceUI.obj
 0001:000804a8       __ehhandler$?_RegisterCallback@_CancellationTokenState@details@Concurrency@@QAEXPAV_CancellationTokenRegistration@23@@Z 004814a8 f   TraceUI.obj
 0001:000804d0       __unwindfunclet$?_RegisterCancellation@_Task_impl_base@details@Concurrency@@QAEXV?$weak_ptr@U_Task_impl_base@details@Concurrency@@@std@@@Z$0 004814d0 f   TraceUI.obj
 0001:000804d8       __unwindfunclet$?_RegisterCancellation@_Task_impl_base@details@Concurrency@@QAEXV?$weak_ptr@U_Task_impl_base@details@Concurrency@@@std@@@Z$1 004814d8 f   TraceUI.obj
 0001:000804e0       __ehhandler$?_RegisterCancellation@_Task_impl_base@details@Concurrency@@QAEXV?$weak_ptr@U_Task_impl_base@details@Concurrency@@@std@@@Z 004814e0 f   TraceUI.obj
 0001:00080500       __unwindfunclet$?_RunChoreBridge@_TaskProcHandle@details@Concurrency@@SAXPAX@Z$0 00481500 f   TraceUI.obj
 0001:00080508       __ehhandler$?_RunChoreBridge@_TaskProcHandle@details@Concurrency@@SAXPAX@Z 00481508 f   TraceUI.obj
 0001:00080530       __unwindfunclet$?_RunTask@_TaskCollectionBaseImpl@details@Concurrency@@SAXP6AXPAX@Z0W4_TaskInliningMode@23@@Z$0 00481530 f   TraceUI.obj
 0001:00080538       __ehhandler$?_RunTask@_TaskCollectionBaseImpl@details@Concurrency@@SAXP6AXPAX@Z0W4_TaskInliningMode@23@@Z 00481538 f   TraceUI.obj
 0001:00080560       __unwindfunclet$?_RunTaskContinuations@_Task_impl_base@details@Concurrency@@QAEXXZ$0 00481560 f   TraceUI.obj
 0001:00080568       __unwindfunclet$?_RunTaskContinuations@_Task_impl_base@details@Concurrency@@QAEXXZ$9 00481568 f   TraceUI.obj
 0001:00080570       __unwindfunclet$?_RunTaskContinuations@_Task_impl_base@details@Concurrency@@QAEXXZ$33 00481570 f   TraceUI.obj
 0001:0008057f       __unwindfunclet$?_RunTaskContinuations@_Task_impl_base@details@Concurrency@@QAEXXZ$35 0048157f f   TraceUI.obj
 0001:00080587       __ehhandler$?_RunTaskContinuations@_Task_impl_base@details@Concurrency@@QAEXXZ 00481587 f   TraceUI.obj
 0001:000805b0       __unwindfunclet$?_ScheduleFuncWithAutoInline@details@Concurrency@@YAXABV?$function@$$A6AXXZ@std@@W4_TaskInliningMode@12@@Z$0 004815b0 f   TraceUI.obj
 0001:000805bf       __unwindfunclet$?_ScheduleFuncWithAutoInline@details@Concurrency@@YAXABV?$function@$$A6AXXZ@std@@W4_TaskInliningMode@12@@Z$2 004815bf f   TraceUI.obj
 0001:000805c7       __ehhandler$?_ScheduleFuncWithAutoInline@details@Concurrency@@YAXABV?$function@$$A6AXXZ@std@@W4_TaskInliningMode@12@@Z 004815c7 f   TraceUI.obj
 0001:000805f0       __unwindfunclet$?_ScheduleTask@_TaskCollectionBaseImpl@details@Concurrency@@QAEXPAU_TaskProcHandle@23@W4_TaskInliningMode@23@@Z$0 004815f0 f   TraceUI.obj
 0001:000805f8       __ehhandler$?_ScheduleTask@_TaskCollectionBaseImpl@details@Concurrency@@QAEXPAU_TaskProcHandle@23@W4_TaskInliningMode@23@@Z 004815f8 f   TraceUI.obj
 0001:00080620       __unwindfunclet$?_ScheduleTask@_Task_impl_base@details@Concurrency@@QAEXPAU_TaskProcHandle@23@W4_TaskInliningMode@23@@Z$4 00481620 f   TraceUI.obj
 0001:00080628       __ehhandler$?_ScheduleTask@_Task_impl_base@details@Concurrency@@QAEXPAU_TaskProcHandle@23@W4_TaskInliningMode@23@@Z 00481628 f   TraceUI.obj
 0001:00080650       __ehhandler$?_SetCollectionState@_TaskCollectionBaseImpl@details@Concurrency@@IAEXW4_TaskCollectionState@123@@Z 00481650 f   TraceUI.obj
 0001:00080670       __unwindfunclet$?_Set_exception@?$_Associated_state@H@std@@QAEXVexception_ptr@2@_N@Z$0 00481670 f   TraceUI.obj
 0001:00080678       __unwindfunclet$?_Set_exception@?$_Associated_state@H@std@@QAEXVexception_ptr@2@_N@Z$1 00481678 f   TraceUI.obj
 0001:00080680       __ehhandler$?_Set_exception@?$_Associated_state@H@std@@QAEXVexception_ptr@2@_N@Z 00481680 f   TraceUI.obj
 0001:000806a0       __unwindfunclet$?_Set_exception_raw@?$_Associated_state@H@std@@QAEXVexception_ptr@2@PAV?$unique_lock@Vmutex@std@@@2@_N@Z$0 004816a0 f   TraceUI.obj
 0001:000806a8       __ehhandler$?_Set_exception_raw@?$_Associated_state@H@std@@QAEXVexception_ptr@2@PAV?$unique_lock@Vmutex@std@@@2@_N@Z 004816a8 f   TraceUI.obj
 0001:000806d0       __unwindfunclet$?_Set_value@?$_Associated_state@H@std@@QAEX$$QAH_N@Z$0 004816d0 f   TraceUI.obj
 0001:000806d8       __ehhandler$?_Set_value@?$_Associated_state@H@std@@QAEX$$QAH_N@Z 004816d8 f   TraceUI.obj
 0001:00080700       __unwindfunclet$?_Wait@?$_Associated_state@H@std@@UAEXXZ$0 00481700 f   TraceUI.obj
 0001:00080708       __ehhandler$?_Wait@?$_Associated_state@H@std@@UAEXXZ 00481708 f   TraceUI.obj
 0001:00080730       __unwindfunclet$?_Wait@_Task_impl_base@details@Concurrency@@QAE?AW4task_group_status@3@XZ$4 00481730 f   TraceUI.obj
 0001:00080738       __ehhandler$?_Wait@_Task_impl_base@details@Concurrency@@QAE?AW4task_group_status@3@XZ 00481738 f   TraceUI.obj
 0001:00080760       __unwindfunclet$?cb_render@TraceUI@@CAXPAVFl_Widget@@PAX@Z$0 00481760 f   TraceUI.obj
 0001:00080768       __unwindfunclet$?cb_render@TraceUI@@CAXPAVFl_Widget@@PAX@Z$1 00481768 f   TraceUI.obj
 0001:00080770       __unwindfunclet$?cb_render@TraceUI@@CAXPAVFl_Widget@@PAX@Z$2 00481770 f   TraceUI.obj
 0001:00080778       __ehhandler$?cb_render@TraceUI@@CAXPAVFl_Widget@@PAX@Z 00481778 f   TraceUI.obj
 0001:000807a0       __unwindfunclet$?invoke@?$_PPLTaskHandle@EU?$_InitialTaskHandle@XV<lambda_042c6af70ca74ab46830ae50c8c14c9e>@@U_TypeSelectorNoAsync@details@Concurrency@@@?$task@E@Concurrency@@U_TaskProcHandle@details@3@@details@Concurrency@@UBEXXZ$4 004817a0 f   TraceUI.obj
 0001:000807a8       __ehhandler$?invoke@?$_PPLTaskHandle@EU?$_InitialTaskHandle@XV<lambda_042c6af70ca74ab46830ae50c8c14c9e>@@U_TypeSelectorNoAsync@details@Concurrency@@@?$task@E@Concurrency@@U_TaskProcHandle@details@3@@details@Concurrency@@UBEXXZ 004817a8 f   TraceUI.obj
 0001:000807d0       __unwindfunclet$?invoke@?$_PPLTaskHandle@EU?$_InitialTaskHandle@XV<lambda_0ebde0502725cf61f7686a2917d1749f>@@U_TypeSelectorNoAsync@details@Concurrency@@@?$task@E@Concurrency@@U_TaskProcHandle@details@3@@details@Concurrency@@UBEXXZ$4 004817d0 f   TraceUI.obj
 0001:000807d8       __ehhandler$?invoke@?$_PPLTaskHandle@EU?$_InitialTaskHandle@XV<lambda_0ebde0502725cf61f7686a2917d1749f>@@U_TypeSelectorNoAsync@details@Concurrency@@@?$task@E@Concurrency@@U_TaskProcHandle@details@3@@details@Concurrency@@UBEXXZ 004817d8 f   TraceUI.obj
 0001:00080800       __unwindfunclet$?invoke@?$_PPLTaskHandle@EU?$_InitialTaskHandle@XV<lambda_483208dc91e150c0c9b495b53fd62158>@@U_TypeSelectorNoAsync@details@Concurrency@@@?$task@E@Concurrency@@U_TaskProcHandle@details@3@@details@Concurrency@@UBEXXZ$4 00481800 f   TraceUI.obj
 0001:00080808       __ehhandler$?invoke@?$_PPLTaskHandle@EU?$_InitialTaskHandle@XV<lambda_483208dc91e150c0c9b495b53fd62158>@@U_TypeSelectorNoAsync@details@Concurrency@@@?$task@E@Concurrency@@U_TaskProcHandle@details@3@@details@Concurrency@@UBEXXZ 00481808 f   TraceUI.obj
 0001:00080830       __unwindfunclet$?invoke@?$_PPLTaskHandle@EU?$_InitialTaskHandle@XV<lambda_855a1ef4dbee54ab7f2f1e055b9bdfad>@@U_TypeSelectorNoAsync@details@Concurrency@@@?$task@E@Concurrency@@U_TaskProcHandle@details@3@@details@Concurrency@@UBEXXZ$4 00481830 f   TraceUI.obj
 0001:00080838       __ehhandler$?invoke@?$_PPLTaskHandle@EU?$_InitialTaskHandle@XV<lambda_855a1ef4dbee54ab7f2f1e055b9bdfad>@@U_TypeSelectorNoAsync@details@Concurrency@@@?$task@E@Concurrency@@U_TaskProcHandle@details@3@@details@Concurrency@@UBEXXZ 00481838 f   TraceUI.obj
 0001:00080860       __unwindfunclet$?rethrow_exception@std@@YAXVexception_ptr@1@@Z$0 00481860 f   TraceUI.obj
 0001:00080868       __ehhandler$?rethrow_exception@std@@YAXVexception_ptr@1@@Z 00481868 f   TraceUI.obj
 0001:00080890       __unwindfunclet$??$?0U?$_Wrap_alloc@V?$allocator@U?$_Tree_node@U?$pair@$$CBV?$basic_string@DU?$char_traits@D@std@@V?$allocator@D@2@@std@@PAVObj@@@std@@PAX@std@@@std@@@std@@@?$_Tree@V?$_Tmap_traits@V?$basic_string@DU?$char_traits@D@std@@V?$allocator@D@2@@std@@PAVObj@@U?$less@V?$basic_string@DU?$char_traits@D@std@@V?$allocator@D@2@@std@@@2@V?$allocator@U?$pair@$$CBV?$basic_string@DU?$char_traits@D@std@@V?$allocator@D@2@@std@@PAVObj@@@std@@@2@$0A@@std@@@std@@QAE@ABV01@$$QAU?$_Wrap_alloc@V?$allocator@U?$_Tree_node@U?$pair@$$CBV?$basic_string@DU?$char_traits@D@std@@V?$allocator@D@2@@std@@PAVObj@@@std@@PAX@std@@@std@@@1@@Z$2 00481890 f   parse.obj
 0001:00080898       __ehhandler$??$?0U?$_Wrap_alloc@V?$allocator@U?$_Tree_node@U?$pair@$$CBV?$basic_string@DU?$char_traits@D@std@@V?$allocator@D@2@@std@@PAVObj@@@std@@PAX@std@@@std@@@std@@@?$_Tree@V?$_Tmap_traits@V?$basic_string@DU?$char_traits@D@std@@V?$allocator@D@2@@std@@PAVObj@@U?$less@V?$basic_string@DU?$char_traits@D@std@@V?$allocator@D@2@@std@@@2@V?$allocator@U?$pair@$$CBV?$basic_string@DU?$char_traits@D@std@@V?$allocator@D@2@@std@@PAVObj@@@std@@@2@$0A@@std@@@std@@QAE@ABV01@$$QAU?$_Wrap_alloc@V?$allocator@U?$_Tree_node@U?$pair@$$CBV?$basic_string@DU?$char_traits@D@std@@V?$allocator@D@2@@std@@PAVObj@@@std@@PAX@std@@@std@@@1@@Z 00481898 f   parse.obj
 0001:000808c0       __unwindfunclet$??$?6U?$char_traits@D@std@@@std@@YAAAV?$basic_ostream@DU?$char_traits@D@std@@@0@AAV10@D@Z$3 004818c0 f   parse.obj
 0001:000808c8       __unwindfunclet$??$?6U?$char_traits@D@std@@@std@@YAAAV?$basic_ostream@DU?$char_traits@D@std@@@0@AAV10@D@Z$2 004818c8 f   parse.obj
 0001:000808d0       __ehhandler$??$?6U?$char_traits@D@std@@@std@@YAAAV?$basic_ostream@DU?$char_traits@D@std@@@0@AAV10@D@Z 004818d0 f   parse.obj
 0001:000808f0       __unwindfunclet$??$?6U?$char_traits@D@std@@@std@@YAAAV?$basic_ostream@DU?$char_traits@D@std@@@0@AAV10@PBD@Z$4 004818f0 f   parse.obj
 0001:000808f8       __unwindfunclet$??$?6U?$char_traits@D@std@@@std@@YAAAV?$basic_ostream@DU?$char_traits@D@std@@@0@AAV10@PBD@Z$2 004818f8 f   parse.obj
 0001:00080900       __ehhandler$??$?6U?$char_traits@D@std@@@std@@YAAAV?$basic_ostream@DU?$char_traits@D@std@@@0@AAV10@PBD@Z 00481900 f   parse.obj
 0001:00080920       __unwindfunclet$??$_Buynode@AAU?$pair@$$CBV?$basic_string@DU?$char_traits@D@std@@V?$allocator@D@2@@std@@PAVObj@@@std@@@?$_Tree_comp_alloc@V?$_Tmap_traits@V?$basic_string@DU?$char_traits@D@std@@V?$allocator@D@2@@std@@PAVObj@@U?$less@V?$basic_string@DU?$char_traits@D@std@@V?$allocator@D@2@@std@@@2@V?$allocator@U?$pair@$$CBV?$basic_string@DU?$char_traits@D@std@@V?$allocator@D@2@@std@@PAVObj@@@std@@@2@$0A@@std@@@std@@QAEPAU?$_Tree_node@U?$pair@$$CBV?$basic_string@DU?$char_traits@D@std@@V?$allocator@D@2@@std@@PAVObj@@@std@@PAX@1@AAU?$pair@$$CBV?$basic_string@DU?$char_traits@D@std@@V?$allocator@D@2@@std@@PAVObj@@@1@@Z$9 00481920 f   parse.obj
 0001:00080931       __ehhandler$??$_Buynode@AAU?$pair@$$CBV?$basic_string@DU?$char_traits@D@std@@V?$allocator@D@2@@std@@PAVObj@@@std@@@?$_Tree_comp_alloc@V?$_Tmap_traits@V?$basic_string@DU?$char_traits@D@std@@V?$allocator@D@2@@std@@PAVObj@@U?$less@V?$basic_string@DU?$char_traits@D@std@@V?$allocator@D@2@@std@@@2@V?$allocator@U?$pair@$$CBV?$basic_string@DU?$char_traits@D@std@@V?$allocator@D@2@@std@@PAVObj@@@std@@@2@$0A@@std@@@std@@QAEPAU?$_Tree_node@U?$pair@$$CBV?$basic_string@DU?$char_traits@D@std@@V?$allocator@D@2@@std@@PAVObj@@@std@@PAX@1@AAU?$pair@$$CBV?$basic_string@DU?$char_traits@D@std@@V?$allocator@D@2@@std@@PAVObj@@@1@@Z 00481931 f   parse.obj
 0001:00080950       __unwindfunclet$??$_Buynode@ABUpiecewise_construct_t@std@@V?$tuple@ABV?$basic_string@DU?$char_traits@D@std@@V?$allocator@D@2@@std@@@2@V?$tuple@$$V@2@@?$_Tree_comp_alloc@V?$_Tmap_traits@V?$basic_string@DU?$char_traits@D@std@@V?$allocator@D@2@@std@@PAVObj@@U?$less@V?$basic_string@DU?$char_traits@D@std@@V?$allocator@D@2@@std@@@2@V?$allocator@U?$pair@$$CBV?$basic_string@DU?$char_traits@D@std@@V?$allocator@D@2@@std@@PAVObj@@@std@@@2@$0A@@std@@@std@@QAEPAU?$_Tree_node@U?$pair@$$CBV?$basic_string@DU?$char_traits@D@std@@V?$allocator@D@2@@std@@PAVObj@@@std@@PAX@1@ABUpiecewise_construct_t@1@$$QAV?$tuple@ABV?$basic_string@DU?$char_traits@D@std@@V?$allocator@D@2@@std@@@1@$$QAV?$tuple@$$V@1@@Z$15 00481950 f   parse.obj
 0001:00080961       __ehhandler$??$_Buynode@ABUpiecewise_construct_t@std@@V?$tuple@ABV?$basic_string@DU?$char_traits@D@std@@V?$allocator@D@2@@std@@@2@V?$tuple@$$V@2@@?$_Tree_comp_alloc@V?$_Tmap_traits@V?$basic_string@DU?$char_traits@D@std@@V?$allocator@D@2@@std@@PAVObj@@U?$less@V?$basic_string@DU?$char_traits@D@std@@V?$allocator@D@2@@std@@@2@V?$allocator@U?$pair@$$CBV?$basic_string@DU?$char_traits@D@std@@V?$allocator@D@2@@std@@PAVObj@@@std@@@2@$0A@@std@@@std@@QAEPAU?$_Tree_node@U?$pair@$$CBV?$basic_string@DU?$char_traits@D@std@@V?$allocator@D@2@@std@@PAVObj@@@std@@PAX@1@ABUpiecewise_construct_t@1@$$QAV?$tuple@ABV?$basic_string@DU?$char_traits@D@std@@V?$allocator@D@2@@std@@@1@$$QAV?$tuple@$$V@1@@Z 00481961 f   parse.obj
 0001:00080980       __ehhandler$??$_Copy_nodes@U_Copy_tag@?$_Tree@V?$_Tmap_traits@V?$basic_string@DU?$char_traits@D@std@@V?$allocator@D@2@@std@@PAVObj@@U?$less@V?$basic_string@DU?$char_traits@D@std@@V?$allocator@D@2@@std@@@2@V?$allocator@U?$pair@$$CBV?$basic_string@DU?$char_traits@D@std@@V?$allocator@D@2@@std@@PAVObj@@@std@@@2@$0A@@std@@@std@@@?$_Tree@V?$_Tmap_traits@V?$basic_string@DU?$char_traits@D@std@@V?$allocator@D@2@@std@@PAVObj@@U?$less@V?$basic_string@DU?$char_traits@D@std@@V?$allocator@D@2@@std@@@2@V?$allocator@U?$pair@$$CBV?$basic_string@DU?$char_traits@D@std@@V?$allocator@D@2@@std@@PAVObj@@@std@@@2@$0A@@std@@@std@@IAEPAU?$_Tree_node@U?$pair@$$CBV?$basic_string@DU?$char_traits@D@std@@V?$allocator@D@2@@std@@PAVObj@@@std@@PAX@1@PAU21@0U_Copy_tag@01@@Z 00481980 f   parse.obj
 0001:000809a0       __ehhandler$??$_Insert_hint@AAU?$pair@$$CBV?$basic_string@DU?$char_traits@D@std@@V?$allocator@D@2@@std@@PAVObj@@@std@@PAU?$_Tree_node@U?$pair@$$CBV?$basic_string@DU?$char_traits@D@std@@V?$allocator@D@2@@std@@PAVObj@@@std@@PAX@2@@?$_Tree@V?$_Tmap_traits@V?$basic_string@DU?$char_traits@D@std@@V?$allocator@D@2@@std@@PAVObj@@U?$less@V?$basic_string@DU?$char_traits@D@std@@V?$allocator@D@2@@std@@@2@V?$allocator@U?$pair@$$CBV?$basic_string@DU?$char_traits@D@std@@V?$allocator@D@2@@std@@PAVObj@@@std@@@2@$0A@@std@@@std@@IAE?AV?$_Tree_iterator@V?$_Tree_val@U?$_Tree_simple_types@U?$pair@$$CBV?$basic_string@DU?$char_traits@D@std@@V?$allocator@D@2@@std@@PAVObj@@@std@@@std@@@std@@@1@V?$_Tree_const_iterator@V?$_Tree_val@U?$_Tree_simple_types@U?$pair@$$CBV?$basic_string@DU?$char_traits@D@std@@V?$allocator@D@2@@std@@PAVObj@@@std@@@std@@@std@@@1@AAU?$pair@$$CBV?$basic_string@DU?$char_traits@D@std@@V?$allocator@D@2@@std@@PAVObj@@@1@PAU?$_Tree_node@U?$pair@$$CBV?$basic_string@DU?$char_traits@D@std@@V?$allocator@D@2@@std@@PAVObj@@@std@@PAX@1@@Z 004819a0 f   parse.obj
 0001:000809c0       __ehhandler$??$_Insert_nohint@AAU?$pair@$$CBV?$basic_string@DU?$char_traits@D@std@@V?$allocator@D@2@@std@@PAVObj@@@std@@PAU?$_Tree_node@U?$pair@$$CBV?$basic_string@DU?$char_traits@D@std@@V?$allocator@D@2@@std@@PAVObj@@@std@@PAX@2@@?$_Tree@V?$_Tmap_traits@V?$basic_string@DU?$char_traits@D@std@@V?$allocator@D@2@@std@@PAVObj@@U?$less@V?$basic_string@DU?$char_traits@D@std@@V?$allocator@D@2@@std@@@2@V?$allocator@U?$pair@$$CBV?$basic_string@DU?$char_traits@D@std@@V?$allocator@D@2@@std@@PAVObj@@@std@@@2@$0A@@std@@@std@@IAE?AU?$pair@V?$_Tree_iterator@V?$_Tree_val@U?$_Tree_simple_types@U?$pair@$$CBV?$basic_string@DU?$char_traits@D@std@@V?$allocator@D@2@@std@@PAVObj@@@std@@@std@@@std@@@std@@_N@1@_NAAU?$pair@$$CBV?$basic_string@DU?$char_traits@D@std@@V?$allocator@D@2@@std@@PAVObj@@@1@PAU?$_Tree_node@U?$pair@$$CBV?$basic_string@DU?$char_traits@D@std@@V?$allocator@D@2@@std@@PAVObj@@@std@@PAX@1@@Z 004819c0 f   parse.obj
 0001:000809e0       __unwindfunclet$??$_Insert_string@DU?$char_traits@D@std@@I@std@@YAAAV?$basic_ostream@DU?$char_traits@D@std@@@0@AAV10@QBDI@Z$3 004819e0 f   parse.obj
 0001:000809e8       __unwindfunclet$??$_Insert_string@DU?$char_traits@D@std@@I@std@@YAAAV?$basic_ostream@DU?$char_traits@D@std@@@0@AAV10@QBDI@Z$2 004819e8 f   parse.obj
 0001:000809f0       __ehhandler$??$_Insert_string@DU?$char_traits@D@std@@I@std@@YAAAV?$basic_ostream@DU?$char_traits@D@std@@@0@AAV10@QBDI@Z 004819f0 f   parse.obj
 0001:00080a10       __unwindfunclet$??0IdObj@@QAE@ABV?$basic_string@DU?$char_traits@D@std@@V?$allocator@D@2@@std@@@Z$0 00481a10 f   parse.obj
 0001:00080a18       __ehhandler$??0IdObj@@QAE@ABV?$basic_string@DU?$char_traits@D@std@@V?$allocator@D@2@@std@@@Z 00481a18 f   parse.obj
 0001:00080a40       __unwindfunclet$??0NamedObj@@QAE@ABV?$basic_string@DU?$char_traits@D@std@@V?$allocator@D@2@@std@@PAVObj@@@Z$0 00481a40 f   parse.obj
 0001:00080a48       __ehhandler$??0NamedObj@@QAE@ABV?$basic_string@DU?$char_traits@D@std@@V?$allocator@D@2@@std@@PAVObj@@@Z 00481a48 f   parse.obj
 0001:00080a70       __unwindfunclet$??0ObjTypeMismatch@@QAE@V?$basic_string@DU?$char_traits@D@std@@V?$allocator@D@2@@std@@0@Z$0 00481a70 f   parse.obj
 0001:00080a78       __unwindfunclet$??0ObjTypeMismatch@@QAE@V?$basic_string@DU?$char_traits@D@std@@V?$allocator@D@2@@std@@0@Z$1 00481a78 f   parse.obj
 0001:00080a80       __unwindfunclet$??0ObjTypeMismatch@@QAE@V?$basic_string@DU?$char_traits@D@std@@V?$allocator@D@2@@std@@0@Z$2 00481a80 f   parse.obj
 0001:00080a88       __unwindfunclet$??0ObjTypeMismatch@@QAE@V?$basic_string@DU?$char_traits@D@std@@V?$allocator@D@2@@std@@0@Z$3 00481a88 f   parse.obj
 0001:00080a90       __unwindfunclet$??0ObjTypeMismatch@@QAE@V?$basic_string@DU?$char_traits@D@std@@V?$allocator@D@2@@std@@0@Z$4 00481a90 f   parse.obj
 0001:00080a98       __unwindfunclet$??0ObjTypeMismatch@@QAE@V?$basic_string@DU?$char_traits@D@std@@V?$allocator@D@2@@std@@0@Z$5 00481a98 f   parse.obj
 0001:00080aa3       __unwindfunclet$??0ObjTypeMismatch@@QAE@V?$basic_string@DU?$char_traits@D@std@@V?$allocator@D@2@@std@@0@Z$6 00481aa3 f   parse.obj
 0001:00080aae       __unwindfunclet$??0ObjTypeMismatch@@QAE@V?$basic_string@DU?$char_traits@D@std@@V?$allocator@D@2@@std@@0@Z$7 00481aae f   parse.obj
 0001:00080ab9       __unwindfunclet$??0ObjTypeMismatch@@QAE@V?$basic_string@DU?$char_traits@D@std@@V?$allocator@D@2@@std@@0@Z$8 00481ab9 f   parse.obj
 0001:00080ac1       __ehhandler$??0ObjTypeMismatch@@QAE@V?$basic_string@DU?$char_traits@D@std@@V?$allocator@D@2@@std@@0@Z 00481ac1 f   parse.obj
 0001:00080af0       __ehhandler$??1?$map@V?$basic_string@DU?$char_traits@D@std@@V?$allocator@D@2@@std@@PAVObj@@U?$less@V?$basic_string@DU?$char_traits@D@std@@V?$allocator@D@2@@std@@@2@V?$allocator@U?$pair@$$CBV?$basic_string@DU?$char_traits@D@std@@V?$allocator@D@2@@std@@PAVObj@@@std@@@2@@std@@QAE@XZ 00481af0 f   parse.obj
 0001:00080b10       __ehhandler$??1DictObj@@UAE@XZ 00481b10 f   parse.obj
 0001:00080b30       __ehhandler$??1_Sentry_base@?$basic_ostream@DU?$char_traits@D@std@@@std@@QAE@XZ 00481b30 f   parse.obj
 0001:00080b50       __ehhandler$??1sentry@?$basic_ostream@DU?$char_traits@D@std@@@std@@QAE@XZ 00481b50 f   parse.obj
 0001:00080b70       __unwindfunclet$?eat@@YA_NAAV?$basic_istream@DU?$char_traits@D@std@@@std@@@Z$0 00481b70 f   parse.obj
 0001:00080b78       __unwindfunclet$?eat@@YA_NAAV?$basic_istream@DU?$char_traits@D@std@@@std@@@Z$1 00481b78 f   parse.obj
 0001:00080b80       __ehhandler$?eat@@YA_NAAV?$basic_istream@DU?$char_traits@D@std@@@std@@@Z 00481b80 f   parse.obj
 0001:00080bb0       __ehhandler$?erase@?$_Tree@V?$_Tmap_traits@V?$basic_string@DU?$char_traits@D@std@@V?$allocator@D@2@@std@@PAVObj@@U?$less@V?$basic_string@DU?$char_traits@D@std@@V?$allocator@D@2@@std@@@2@V?$allocator@U?$pair@$$CBV?$basic_string@DU?$char_traits@D@std@@V?$allocator@D@2@@std@@PAVObj@@@std@@@2@$0A@@std@@@std@@QAE?AV?$_Tree_iterator@V?$_Tree_val@U?$_Tree_simple_types@U?$pair@$$CBV?$basic_string@DU?$char_traits@D@std@@V?$allocator@D@2@@std@@PAVObj@@@std@@@std@@@std@@@2@V?$_Tree_const_iterator@V?$_Tree_val@U?$_Tree_simple_types@U?$pair@$$CBV?$basic_string@DU?$char_traits@D@std@@V?$allocator@D@2@@std@@PAVObj@@@std@@@std@@@std@@@2@0@Z 00481bb0 f   parse.obj
 0001:00080bd0       __unwindfunclet$?getBoolean@Obj@@UBE_NXZ$0 00481bd0 f   parse.obj
 0001:00080bd8       __ehhandler$?getBoolean@Obj@@UBE_NXZ 00481bd8 f   parse.obj
 0001:00080c00       __unwindfunclet$?getChild@Obj@@UBEPAV1@XZ$0 00481c00 f   parse.obj
 0001:00080c08       __ehhandler$?getChild@Obj@@UBEPAV1@XZ 00481c08 f   parse.obj
 0001:00080c30       __unwindfunclet$?getDict@Obj@@UBEABV?$map@V?$basic_string@DU?$char_traits@D@std@@V?$allocator@D@2@@std@@PAVObj@@U?$less@V?$basic_string@DU?$char_traits@D@std@@V?$allocator@D@2@@std@@@2@V?$allocator@U?$pair@$$CBV?$basic_string@DU?$char_traits@D@std@@V?$allocator@D@2@@std@@PAVObj@@@std@@@2@@std@@XZ$0 00481c30 f   parse.obj
 0001:00080c38       __ehhandler$?getDict@Obj@@UBEABV?$map@V?$basic_string@DU?$char_traits@D@std@@V?$allocator@D@2@@std@@PAVObj@@U?$less@V?$basic_string@DU?$char_traits@D@std@@V?$allocator@D@2@@std@@@2@V?$allocator@U?$pair@$$CBV?$basic_string@DU?$char_traits@D@std@@V?$allocator@D@2@@std@@PAVObj@@@std@@@2@@std@@XZ 00481c38 f   parse.obj
 0001:00080c60       __unwindfunclet$?getID@Obj@@UBE?AV?$basic_string@DU?$char_traits@D@std@@V?$allocator@D@2@@std@@XZ$0 00481c60 f   parse.obj
 0001:00080c68       __ehhandler$?getID@Obj@@UBE?AV?$basic_string@DU?$char_traits@D@std@@V?$allocator@D@2@@std@@XZ 00481c68 f   parse.obj
 0001:00080c90       __unwindfunclet$?getName@Obj@@UBE?AV?$basic_string@DU?$char_traits@D@std@@V?$allocator@D@2@@std@@XZ$0 00481c90 f   parse.obj
 0001:00080c98       __ehhandler$?getName@Obj@@UBE?AV?$basic_string@DU?$char_traits@D@std@@V?$allocator@D@2@@std@@XZ 00481c98 f   parse.obj
 0001:00080cc0       __unwindfunclet$?getScalar@Obj@@UBENXZ$0 00481cc0 f   parse.obj
 0001:00080cc8       __ehhandler$?getScalar@Obj@@UBENXZ 00481cc8 f   parse.obj
 0001:00080cf0       __unwindfunclet$?getString@Obj@@UBE?AV?$basic_string@DU?$char_traits@D@std@@V?$allocator@D@2@@std@@XZ$0 00481cf0 f   parse.obj
 0001:00080cf8       __ehhandler$?getString@Obj@@UBE?AV?$basic_string@DU?$char_traits@D@std@@V?$allocator@D@2@@std@@XZ 00481cf8 f   parse.obj
 0001:00080d20       __unwindfunclet$?getTuple@Obj@@UBEABV?$vector@PAVObj@@V?$allocator@PAVObj@@@std@@@std@@XZ$0 00481d20 f   parse.obj
 0001:00080d28       __ehhandler$?getTuple@Obj@@UBEABV?$vector@PAVObj@@V?$allocator@PAVObj@@@std@@@std@@XZ 00481d28 f   parse.obj
 0001:00080d50       __unwindfunclet$?readDict@@YAPAVObj@@AAV?$basic_istream@DU?$char_traits@D@std@@@std@@@Z$0 00481d50 f   parse.obj
 0001:00080d58       __unwindfunclet$?readDict@@YAPAVObj@@AAV?$basic_istream@DU?$char_traits@D@std@@@std@@@Z$1 00481d58 f   parse.obj
 0001:00080d60       __unwindfunclet$?readDict@@YAPAVObj@@AAV?$basic_istream@DU?$char_traits@D@std@@@std@@@Z$2 00481d60 f   parse.obj
 0001:00080d6f       __unwindfunclet$?readDict@@YAPAVObj@@AAV?$basic_istream@DU?$char_traits@D@std@@@std@@@Z$18 00481d6f f   parse.obj
 0001:00080d77       __unwindfunclet$?readDict@@YAPAVObj@@AAV?$basic_istream@DU?$char_traits@D@std@@@std@@@Z$5 00481d77 f   parse.obj
 0001:00080d7f       __unwindfunclet$?readDict@@YAPAVObj@@AAV?$basic_istream@DU?$char_traits@D@std@@@std@@@Z$4 00481d7f f   parse.obj
 0001:00080d87       __ehhandler$?readDict@@YAPAVObj@@AAV?$basic_istream@DU?$char_traits@D@std@@@std@@@Z 00481d87 f   parse.obj
 0001:00080db0       __unwindfunclet$?readID@@YA?AV?$basic_string@DU?$char_traits@D@std@@V?$allocator@D@2@@std@@AAV?$basic_istream@DU?$char_traits@D@std@@@2@@Z$0 00481db0 f   parse.obj
 0001:00080dc9       __ehhandler$?readID@@YA?AV?$basic_string@DU?$char_traits@D@std@@V?$allocator@D@2@@std@@AAV?$basic_istream@DU?$char_traits@D@std@@@2@@Z 00481dc9 f   parse.obj
 0001:00080df0       __unwindfunclet$?readName@@YAPAVObj@@AAV?$basic_istream@DU?$char_traits@D@std@@@std@@@Z$0 00481df0 f   parse.obj
 0001:00080df8       __unwindfunclet$?readName@@YAPAVObj@@AAV?$basic_istream@DU?$char_traits@D@std@@@std@@@Z$3 00481df8 f   parse.obj
 0001:00080e07       __unwindfunclet$?readName@@YAPAVObj@@AAV?$basic_istream@DU?$char_traits@D@std@@@std@@@Z$4 00481e07 f   parse.obj
 0001:00080e16       __unwindfunclet$?readName@@YAPAVObj@@AAV?$basic_istream@DU?$char_traits@D@std@@@std@@@Z$5 00481e16 f   parse.obj
 0001:00080e25       __ehhandler$?readName@@YAPAVObj@@AAV?$basic_istream@DU?$char_traits@D@std@@@std@@@Z 00481e25 f   parse.obj
 0001:00080e50       __unwindfunclet$?readScalar@@YAPAVObj@@AAV?$basic_istream@DU?$char_traits@D@std@@@std@@@Z$0 00481e50 f   parse.obj
 0001:00080e58       __ehhandler$?readScalar@@YAPAVObj@@AAV?$basic_istream@DU?$char_traits@D@std@@@std@@@Z 00481e58 f   parse.obj
 0001:00080e80       __unwindfunclet$?readString@@YAPAVObj@@AAV?$basic_istream@DU?$char_traits@D@std@@@std@@@Z$0 00481e80 f   parse.obj
 0001:00080e88       __unwindfunclet$?readString@@YAPAVObj@@AAV?$basic_istream@DU?$char_traits@D@std@@@std@@@Z$1 00481e88 f   parse.obj
 0001:00080e97       __unwindfunclet$?readString@@YAPAVObj@@AAV?$basic_istream@DU?$char_traits@D@std@@@std@@@Z$6 00481e97 f   parse.obj
 0001:00080e9f       __ehhandler$?readString@@YAPAVObj@@AAV?$basic_istream@DU?$char_traits@D@std@@@std@@@Z 00481e9f f   parse.obj
 0001:00080ed0       __unwindfunclet$?readTuple@@YAPAVObj@@AAV?$basic_istream@DU?$char_traits@D@std@@@std@@@Z$0 00481ed0 f   parse.obj
 0001:00080ed8       __unwindfunclet$?readTuple@@YAPAVObj@@AAV?$basic_istream@DU?$char_traits@D@std@@@std@@@Z$2 00481ed8 f   parse.obj
 0001:00080ee0       __unwindfunclet$?readTuple@@YAPAVObj@@AAV?$basic_istream@DU?$char_traits@D@std@@@std@@@Z$1 00481ee0 f   parse.obj
 0001:00080eef       __unwindfunclet$?readTuple@@YAPAVObj@@AAV?$basic_istream@DU?$char_traits@D@std@@@std@@@Z$6 00481eef f   parse.obj
 0001:00080ef7       __ehhandler$?readTuple@@YAPAVObj@@AAV?$basic_istream@DU?$char_traits@D@std@@@std@@@Z 00481ef7 f   parse.obj
 0001:00080f20       __unwindfunclet$??$_Buynode@ABUpiecewise_construct_t@std@@V?$tuple@ABV?$basic_string@DU?$char_traits@D@std@@V?$allocator@D@2@@std@@@2@V?$tuple@$$V@2@@?$_Tree_comp_alloc@V?$_Tmap_traits@V?$basic_string@DU?$char_traits@D@std@@V?$allocator@D@2@@std@@PAVMaterial@@U?$less@V?$basic_string@DU?$char_traits@D@std@@V?$allocator@D@2@@std@@@2@V?$allocator@U?$pair@$$CBV?$basic_string@DU?$char_traits@D@std@@V?$allocator@D@2@@std@@PAVMaterial@@@std@@@2@$0A@@std@@@std@@QAEPAU?$_Tree_node@U?$pair@$$CBV?$basic_string@DU?$char_traits@D@std@@V?$allocator@D@2@@std@@PAVMaterial@@@std@@PAX@1@ABUpiecewise_construct_t@1@$$QAV?$tuple@ABV?$basic_string@DU?$char_traits@D@std@@V?$allocator@D@2@@std@@@1@$$QAV?$tuple@$$V@1@@Z$15 00481f20 f   read.obj
 0001:00080f31       __ehhandler$??$_Buynode@ABUpiecewise_construct_t@std@@V?$tuple@ABV?$basic_string@DU?$char_traits@D@std@@V?$allocator@D@2@@std@@@2@V?$tuple@$$V@2@@?$_Tree_comp_alloc@V?$_Tmap_traits@V?$basic_string@DU?$char_traits@D@std@@V?$allocator@D@2@@std@@PAVMaterial@@U?$less@V?$basic_string@DU?$char_traits@D@std@@V?$allocator@D@2@@std@@@2@V?$allocator@U?$pair@$$CBV?$basic_string@DU?$char_traits@D@std@@V?$allocator@D@2@@std@@PAVMaterial@@@std@@@2@$0A@@std@@@std@@QAEPAU?$_Tree_node@U?$pair@$$CBV?$basic_string@DU?$char_traits@D@std@@V?$allocator@D@2@@std@@PAVMaterial@@@std@@PAX@1@ABUpiecewise_construct_t@1@$$QAV?$tuple@ABV?$basic_string@DU?$char_traits@D@std@@V?$allocator@D@2@@std@@@1@$$QAV?$tuple@$$V@1@@Z 00481f31 f   read.obj
 0001:00080f50       __ehhandler$??$_Insert_hint@AAU?$pair@$$CBV?$basic_string@DU?$char_traits@D@std@@V?$allocator@D@2@@std@@PAVMaterial@@@std@@PAU?$_Tree_node@U?$pair@$$CBV?$basic_string@DU?$char_traits@D@std@@V?$allocator@D@2@@std@@PAVMaterial@@@std@@PAX@2@@?$_Tree@V?$_Tmap_traits@V?$basic_string@DU?$char_traits@D@std@@V?$allocator@D@2@@std@@PAVMaterial@@U?$less@V?$basic_string@DU?$char_traits@D@std@@V?$allocator@D@2@@std@@@2@V?$allocator@U?$pair@$$CBV?$basic_string@DU?$char_traits@D@std@@V?$allocator@D@2@@std@@PAVMaterial@@@std@@@2@$0A@@std@@@std@@IAE?AV?$_Tree_iterator@V?$_Tree_val@U?$_Tree_simple_types@U?$pair@$$CBV?$basic_string@DU?$char_traits@D@std@@V?$allocator@D@2@@std@@PAVMaterial@@@std@@@std@@@std@@@1@V?$_Tree_const_iterator@V?$_Tree_val@U?$_Tree_simple_types@U?$pair@$$CBV?$basic_string@DU?$char_traits@D@std@@V?$allocator@D@2@@std@@PAVMaterial@@@std@@@std@@@std@@@1@AAU?$pair@$$CBV?$basic_string@DU?$char_traits@D@std@@V?$allocator@D@2@@std@@PAVMaterial@@@1@PAU?$_Tree_node@U?$pair@$$CBV?$basic_string@DU?$char_traits@D@std@@V?$allocator@D@2@@std@@PAVMaterial@@@std@@PAX@1@@Z 00481f50 f   read.obj
 0001:00080f70       __ehhandler$??$_Insert_nohint@AAU?$pair@$$CBV?$basic_string@DU?$char_traits@D@std@@V?$allocator@D@2@@std@@PAVMaterial@@@std@@PAU?$_Tree_node@U?$pair@$$CBV?$basic_string@DU?$char_traits@D@std@@V?$allocator@D@2@@std@@PAVMaterial@@@std@@PAX@2@@?$_Tree@V?$_Tmap_traits@V?$basic_string@DU?$char_traits@D@std@@V?$allocator@D@2@@std@@PAVMaterial@@U?$less@V?$basic_string@DU?$char_traits@D@std@@V?$allocator@D@2@@std@@@2@V?$allocator@U?$pair@$$CBV?$basic_string@DU?$char_traits@D@std@@V?$allocator@D@2@@std@@PAVMaterial@@@std@@@2@$0A@@std@@@std@@IAE?AU?$pair@V?$_Tree_iterator@V?$_Tree_val@U?$_Tree_simple_types@U?$pair@$$CBV?$basic_string@DU?$char_traits@D@std@@V?$allocator@D@2@@std@@PAVMaterial@@@std@@@std@@@std@@@std@@_N@1@_NAAU?$pair@$$CBV?$basic_string@DU?$char_traits@D@std@@V?$allocator@D@2@@std@@PAVMaterial@@@1@PAU?$_Tree_node@U?$pair@$$CBV?$basic_string@DU?$char_traits@D@std@@V?$allocator@D@2@@std@@PAVMaterial@@@std@@PAX@1@@Z 00481f70 f   read.obj
 0001:00080f90       __unwindfunclet$??$use_facet@V?$codecvt@DDU_Mbstatet@@@std@@@std@@YAABV?$codecvt@DDU_Mbstatet@@@0@ABVlocale@0@@Z$0 00481f90 f   read.obj
 0001:00080f99       __ehhandler$??$use_facet@V?$codecvt@DDU_Mbstatet@@@std@@@std@@YAABV?$codecvt@DDU_Mbstatet@@@0@ABVlocale@0@@Z 00481f99 f   read.obj
 0001:00080fc0       __unwindfunclet$??0?$basic_ifstream@DU?$char_traits@D@std@@@std@@QAE@PBDHH@Z$0 00481fc0 f   read.obj
 0001:00080fdd       __unwindfunclet$??0?$basic_ifstream@DU?$char_traits@D@std@@@std@@QAE@PBDHH@Z$1 00481fdd f   read.obj
 0001:00080fe9       __unwindfunclet$??0?$basic_ifstream@DU?$char_traits@D@std@@@std@@QAE@PBDHH@Z$3 00481fe9 f   read.obj
 0001:00080ff2       __unwindfunclet$??0?$basic_ifstream@DU?$char_traits@D@std@@@std@@QAE@PBDHH@Z$2 00481ff2 f   read.obj
 0001:00080ffd       __ehhandler$??0?$basic_ifstream@DU?$char_traits@D@std@@@std@@QAE@PBDHH@Z 00481ffd f   read.obj
 0001:00081020       __unwindfunclet$??0Scene@@QAE@XZ$0 00482020 f   read.obj
 0001:0008102e       __unwindfunclet$??0Scene@@QAE@XZ$1 0048202e f   read.obj
 0001:0008103f       __unwindfunclet$??0Scene@@QAE@XZ$2 0048203f f   read.obj
 0001:00081050       __unwindfunclet$??0Scene@@QAE@XZ$3 00482050 f   read.obj
 0001:00081061       __unwindfunclet$??0Scene@@QAE@XZ$4 00482061 f   read.obj
 0001:00081072       __unwindfunclet$??0Scene@@QAE@XZ$5 00482072 f   read.obj
 0001:00081083       __ehhandler$??0Scene@@QAE@XZ 00482083 f   read.obj
 0001:000810b0       __unwindfunclet$??0TransformNode@@IAE@PAV0@ABVmat4f@@@Z$0 004820b0 f   read.obj
 0001:000810c1       __ehhandler$??0TransformNode@@IAE@PAV0@ABVmat4f@@@Z 004820c1 f   read.obj
 0001:000810f0       __unwindfunclet$??0ostrstream@std@@QAE@XZ$0 004820f0 f   read.obj
 0001:0008110d       __unwindfunclet$??0ostrstream@std@@QAE@XZ$1 0048210d f   read.obj
 0001:00081119       __unwindfunclet$??0ostrstream@std@@QAE@XZ$3 00482119 f   read.obj
 0001:00081122       __ehhandler$??0ostrstream@std@@QAE@XZ 00482122 f   read.obj
 0001:00081140       __ehhandler$??1?$basic_filebuf@DU?$char_traits@D@std@@@std@@UAE@XZ 00482140 f   read.obj
 0001:00081160       __ehhandler$??1?$basic_ifstream@DU?$char_traits@D@std@@@std@@UAE@XZ 00482160 f   read.obj
 0001:00081180       __ehhandler$??1?$map@V?$basic_string@DU?$char_traits@D@std@@V?$allocator@D@2@@std@@PAVMaterial@@U?$less@V?$basic_string@DU?$char_traits@D@std@@V?$allocator@D@2@@std@@@2@V?$allocator@U?$pair@$$CBV?$basic_string@DU?$char_traits@D@std@@V?$allocator@D@2@@std@@PAVMaterial@@@std@@@2@@std@@QAE@XZ 00482180 f   read.obj
 0001:000811a0       __ehhandler$??1locale@std@@QAE@XZ 004821a0 f   read.obj
 0001:000811c0       __ehhandler$??1ostrstream@std@@UAE@XZ 004821c0 f   read.obj
 0001:000811e0       __ehhandler$??1strstreambuf@std@@UAE@XZ 004821e0 f   read.obj
 0001:00081200       __unwindfunclet$??6@YAAAV?$basic_ostream@DU?$char_traits@D@std@@@std@@AAV01@ABVException@@@Z$0 00482200 f   read.obj
 0001:00081208       __ehhandler$??6@YAAAV?$basic_ostream@DU?$char_traits@D@std@@@std@@AAV01@ABVException@@@Z 00482208 f   read.obj
 0001:00081230       __ehhandler$??_G?$basic_filebuf@DU?$char_traits@D@std@@@std@@UAEPAXI@Z 00482230 f   read.obj
 0001:00081250       __ehhandler$??_Gstrstreambuf@std@@UAEPAXI@Z 00482250 f   read.obj
 0001:00081270       __unwindfunclet$?_Endwrite@?$basic_filebuf@DU?$char_traits@D@std@@@std@@IAE_NXZ$0 00482270 f   read.obj
 0001:00081278       __ehhandler$?_Endwrite@?$basic_filebuf@DU?$char_traits@D@std@@@std@@IAE_NXZ 00482278 f   read.obj
 0001:000812a0       __unwindfunclet$?createChild@TransformNode@@QAEPAV1@ABVmat4f@@@Z$0 004822a0 f   read.obj
 0001:000812b2       __ehhandler$?createChild@TransformNode@@QAEPAV1@ABVmat4f@@@Z 004822b2 f   read.obj
 0001:000812d0       __ehhandler$?erase@?$_Tree@V?$_Tmap_traits@V?$basic_string@DU?$char_traits@D@std@@V?$allocator@D@2@@std@@PAVMaterial@@U?$less@V?$basic_string@DU?$char_traits@D@std@@V?$allocator@D@2@@std@@@2@V?$allocator@U?$pair@$$CBV?$basic_string@DU?$char_traits@D@std@@V?$allocator@D@2@@std@@PAVMaterial@@@std@@@2@$0A@@std@@@std@@QAE?AV?$_Tree_iterator@V?$_Tree_val@U?$_Tree_simple_types@U?$pair@$$CBV?$basic_string@DU?$char_traits@D@std@@V?$allocator@D@2@@std@@PAVMaterial@@@std@@@std@@@std@@@2@V?$_Tree_const_iterator@V?$_Tree_val@U?$_Tree_simple_types@U?$pair@$$CBV?$basic_string@DU?$char_traits@D@std@@V?$allocator@D@2@@std@@PAVMaterial@@@std@@@std@@@std@@@2@0@Z 004822d0 f   read.obj
 0001:000812f0       __unwindfunclet$?getColorField@@YAPAVObj@@PAV1@@Z$0 004822f0 f   read.obj
 0001:000812f8       __unwindfunclet$?getColorField@@YAPAVObj@@PAV1@@Z$3 004822f8 f   read.obj
 0001:00081300       __ehhandler$?getColorField@@YAPAVObj@@PAV1@@Z 00482300 f   read.obj
 0001:00081330       __unwindfunclet$?getField@@YAPAVObj@@PAV1@ABV?$basic_string@DU?$char_traits@D@std@@V?$allocator@D@2@@std@@@Z$0 00482330 f   read.obj
 0001:00081338       __unwindfunclet$?getField@@YAPAVObj@@PAV1@ABV?$basic_string@DU?$char_traits@D@std@@V?$allocator@D@2@@std@@@Z$1 00482338 f   read.obj
 0001:00081340       __unwindfunclet$?getField@@YAPAVObj@@PAV1@ABV?$basic_string@DU?$char_traits@D@std@@V?$allocator@D@2@@std@@@Z$2 00482340 f   read.obj
 0001:0008134b       __unwindfunclet$?getField@@YAPAVObj@@PAV1@ABV?$basic_string@DU?$char_traits@D@std@@V?$allocator@D@2@@std@@@Z$3 0048234b f   read.obj
 0001:00081356       __unwindfunclet$?getField@@YAPAVObj@@PAV1@ABV?$basic_string@DU?$char_traits@D@std@@V?$allocator@D@2@@std@@@Z$4 00482356 f   read.obj
 0001:00081361       __unwindfunclet$?getField@@YAPAVObj@@PAV1@ABV?$basic_string@DU?$char_traits@D@std@@V?$allocator@D@2@@std@@@Z$5 00482361 f   read.obj
 0001:0008136c       __ehhandler$?getField@@YAPAVObj@@PAV1@ABV?$basic_string@DU?$char_traits@D@std@@V?$allocator@D@2@@std@@@Z 0048236c f   read.obj
 0001:000813a0       __unwindfunclet$?getMaterial@@YAPAVMaterial@@PAVObj@@ABV?$map@V?$basic_string@DU?$char_traits@D@std@@V?$allocator@D@2@@std@@PAVMaterial@@U?$less@V?$basic_string@DU?$char_traits@D@std@@V?$allocator@D@2@@std@@@2@V?$allocator@U?$pair@$$CBV?$basic_string@DU?$char_traits@D@std@@V?$allocator@D@2@@std@@PAVMaterial@@@std@@@2@@std@@@Z$0 004823a0 f   read.obj
 0001:000813a8       __ehhandler$?getMaterial@@YAPAVMaterial@@PAVObj@@ABV?$map@V?$basic_string@DU?$char_traits@D@std@@V?$allocator@D@2@@std@@PAVMaterial@@U?$less@V?$basic_string@DU?$char_traits@D@std@@V?$allocator@D@2@@std@@@2@V?$allocator@U?$pair@$$CBV?$basic_string@DU?$char_traits@D@std@@V?$allocator@D@2@@std@@PAVMaterial@@@std@@@2@@std@@@Z 004823a8 f   read.obj
 0001:000813d0       __unwindfunclet$?open@?$basic_filebuf@DU?$char_traits@D@std@@@std@@QAEPAV12@PBDHH@Z$0 004823d0 f   read.obj
 0001:000813d8       __ehhandler$?open@?$basic_filebuf@DU?$char_traits@D@std@@@std@@QAEPAV12@PBDHH@Z 004823d8 f   read.obj
 0001:00081400       __unwindfunclet$?overflow@?$basic_filebuf@DU?$char_traits@D@std@@@std@@MAEHH@Z$0 00482400 f   read.obj
 0001:00081408       __ehhandler$?overflow@?$basic_filebuf@DU?$char_traits@D@std@@@std@@MAEHH@Z 00482408 f   read.obj
 0001:00081430       __unwindfunclet$?processCamera@@YAXPAVObj@@PAVScene@@@Z$0 00482430 f   read.obj
 0001:00081438       __unwindfunclet$?processCamera@@YAXPAVObj@@PAVScene@@@Z$1 00482438 f   read.obj
 0001:00081440       __unwindfunclet$?processCamera@@YAXPAVObj@@PAVScene@@@Z$2 00482440 f   read.obj
 0001:00081448       __unwindfunclet$?processCamera@@YAXPAVObj@@PAVScene@@@Z$3 00482448 f   read.obj
 0001:00081450       __unwindfunclet$?processCamera@@YAXPAVObj@@PAVScene@@@Z$4 00482450 f   read.obj
 0001:00081458       __unwindfunclet$?processCamera@@YAXPAVObj@@PAVScene@@@Z$5 00482458 f   read.obj
 0001:00081460       __unwindfunclet$?processCamera@@YAXPAVObj@@PAVScene@@@Z$6 00482460 f   read.obj
 0001:00081468       __unwindfunclet$?processCamera@@YAXPAVObj@@PAVScene@@@Z$7 00482468 f   read.obj
 0001:00081470       __unwindfunclet$?processCamera@@YAXPAVObj@@PAVScene@@@Z$8 00482470 f   read.obj
 0001:00081478       __unwindfunclet$?processCamera@@YAXPAVObj@@PAVScene@@@Z$9 00482478 f   read.obj
 0001:00081497       __unwindfunclet$?processCamera@@YAXPAVObj@@PAVScene@@@Z$10 00482497 f   read.obj
 0001:000814b6       __unwindfunclet$?processCamera@@YAXPAVObj@@PAVScene@@@Z$11 004824b6 f   read.obj
 0001:000814be       __unwindfunclet$?processCamera@@YAXPAVObj@@PAVScene@@@Z$12 004824be f   read.obj
 0001:000814c6       __ehhandler$?processCamera@@YAXPAVObj@@PAVScene@@@Z 004824c6 f   read.obj
 0001:000814f0       __unwindfunclet$?processGeometry@@YAXPAVObj@@PAVScene@@ABV?$map@V?$basic_string@DU?$char_traits@D@std@@V?$allocator@D@2@@std@@PAVMaterial@@U?$less@V?$basic_string@DU?$char_traits@D@std@@V?$allocator@D@2@@std@@@2@V?$allocator@U?$pair@$$CBV?$basic_string@DU?$char_traits@D@std@@V?$allocator@D@2@@std@@PAVMaterial@@@std@@@2@@std@@PAVTransformNode@@@Z$0 004824f0 f   read.obj
 0001:000814f8       __unwindfunclet$?processGeometry@@YAXPAVObj@@PAVScene@@ABV?$map@V?$basic_string@DU?$char_traits@D@std@@V?$allocator@D@2@@std@@PAVMaterial@@U?$less@V?$basic_string@DU?$char_traits@D@std@@V?$allocator@D@2@@std@@@2@V?$allocator@U?$pair@$$CBV?$basic_string@DU?$char_traits@D@std@@V?$allocator@D@2@@std@@PAVMaterial@@@std@@@2@@std@@PAVTransformNode@@@Z$5 004824f8 f   read.obj
 0001:00081503       __unwindfunclet$?processGeometry@@YAXPAVObj@@PAVScene@@ABV?$map@V?$basic_string@DU?$char_traits@D@std@@V?$allocator@D@2@@std@@PAVMaterial@@U?$less@V?$basic_string@DU?$char_traits@D@std@@V?$allocator@D@2@@std@@@2@V?$allocator@U?$pair@$$CBV?$basic_string@DU?$char_traits@D@std@@V?$allocator@D@2@@std@@PAVMaterial@@@std@@@2@@std@@PAVTransformNode@@@Z$6 00482503 f   read.obj
 0001:0008150b       __ehhandler$?processGeometry@@YAXPAVObj@@PAVScene@@ABV?$map@V?$basic_string@DU?$char_traits@D@std@@V?$allocator@D@2@@std@@PAVMaterial@@U?$less@V?$basic_string@DU?$char_traits@D@std@@V?$allocator@D@2@@std@@@2@V?$allocator@U?$pair@$$CBV?$basic_string@DU?$char_traits@D@std@@V?$allocator@D@2@@std@@PAVMaterial@@@std@@@2@@std@@PAVTransformNode@@@Z 0048250b f   read.obj
 0001:00081540       __unwindfunclet$?processGeometry@@YAXV?$basic_string@DU?$char_traits@D@std@@V?$allocator@D@2@@std@@PAVObj@@PAVScene@@ABV?$map@V?$basic_string@DU?$char_traits@D@std@@V?$allocator@D@2@@std@@PAVMaterial@@U?$less@V?$basic_string@DU?$char_traits@D@std@@V?$allocator@D@2@@std@@@2@V?$allocator@U?$pair@$$CBV?$basic_string@DU?$char_traits@D@std@@V?$allocator@D@2@@std@@PAVMaterial@@@std@@@2@@2@PAVTransformNode@@@Z$0 00482540 f   read.obj
 0001:00081548       __unwindfunclet$?processGeometry@@YAXV?$basic_string@DU?$char_traits@D@std@@V?$allocator@D@2@@std@@PAVObj@@PAVScene@@ABV?$map@V?$basic_string@DU?$char_traits@D@std@@V?$allocator@D@2@@std@@PAVMaterial@@U?$less@V?$basic_string@DU?$char_traits@D@std@@V?$allocator@D@2@@std@@@2@V?$allocator@U?$pair@$$CBV?$basic_string@DU?$char_traits@D@std@@V?$allocator@D@2@@std@@PAVMaterial@@@std@@@2@@2@PAVTransformNode@@@Z$2 00482548 f   read.obj
 0001:00081550       __unwindfunclet$?processGeometry@@YAXV?$basic_string@DU?$char_traits@D@std@@V?$allocator@D@2@@std@@PAVObj@@PAVScene@@ABV?$map@V?$basic_string@DU?$char_traits@D@std@@V?$allocator@D@2@@std@@PAVMaterial@@U?$less@V?$basic_string@DU?$char_traits@D@std@@V?$allocator@D@2@@std@@@2@V?$allocator@U?$pair@$$CBV?$basic_string@DU?$char_traits@D@std@@V?$allocator@D@2@@std@@PAVMaterial@@@std@@@2@@2@PAVTransformNode@@@Z$6 00482550 f   read.obj
 0001:00081558       __unwindfunclet$?processGeometry@@YAXV?$basic_string@DU?$char_traits@D@std@@V?$allocator@D@2@@std@@PAVObj@@PAVScene@@ABV?$map@V?$basic_string@DU?$char_traits@D@std@@V?$allocator@D@2@@std@@PAVMaterial@@U?$less@V?$basic_string@DU?$char_traits@D@std@@V?$allocator@D@2@@std@@@2@V?$allocator@U?$pair@$$CBV?$basic_string@DU?$char_traits@D@std@@V?$allocator@D@2@@std@@PAVMaterial@@@std@@@2@@2@PAVTransformNode@@@Z$7 00482558 f   read.obj
 0001:00081560       __unwindfunclet$?processGeometry@@YAXV?$basic_string@DU?$char_traits@D@std@@V?$allocator@D@2@@std@@PAVObj@@PAVScene@@ABV?$map@V?$basic_string@DU?$char_traits@D@std@@V?$allocator@D@2@@std@@PAVMaterial@@U?$less@V?$basic_string@DU?$char_traits@D@std@@V?$allocator@D@2@@std@@@2@V?$allocator@U?$pair@$$CBV?$basic_string@DU?$char_traits@D@std@@V?$allocator@D@2@@std@@PAVMaterial@@@std@@@2@@2@PAVTransformNode@@@Z$8 00482560 f   read.obj
 0001:00081568       __unwindfunclet$?processGeometry@@YAXV?$basic_string@DU?$char_traits@D@std@@V?$allocator@D@2@@std@@PAVObj@@PAVScene@@ABV?$map@V?$basic_string@DU?$char_traits@D@std@@V?$allocator@D@2@@std@@PAVMaterial@@U?$less@V?$basic_string@DU?$char_traits@D@std@@V?$allocator@D@2@@std@@@2@V?$allocator@U?$pair@$$CBV?$basic_string@DU?$char_traits@D@std@@V?$allocator@D@2@@std@@PAVMaterial@@@std@@@2@@2@PAVTransformNode@@@Z$9 00482568 f   read.obj
 0001:00081570       __ehhandler$?processGeometry@@YAXV?$basic_string@DU?$char_traits@D@std@@V?$allocator@D@2@@std@@PAVObj@@PAVScene@@ABV?$map@V?$basic_string@DU?$char_traits@D@std@@V?$allocator@D@2@@std@@PAVMaterial@@U?$less@V?$basic_string@DU?$char_traits@D@std@@V?$allocator@D@2@@std@@@2@V?$allocator@U?$pair@$$CBV?$basic_string@DU?$char_traits@D@std@@V?$allocator@D@2@@std@@PAVMaterial@@@std@@@2@@2@PAVTransformNode@@@Z 00482570 f   read.obj
 0001:000815a0       __unwindfunclet$?processMaterial@@YAPAVMaterial@@PAVObj@@PAV?$map@V?$basic_string@DU?$char_traits@D@std@@V?$allocator@D@2@@std@@PAVMaterial@@U?$less@V?$basic_string@DU?$char_traits@D@std@@V?$allocator@D@2@@std@@@2@V?$allocator@U?$pair@$$CBV?$basic_string@DU?$char_traits@D@std@@V?$allocator@D@2@@std@@PAVMaterial@@@std@@@2@@std@@@Z$1 004825a0 f   read.obj
 0001:000815a8       __unwindfunclet$?processMaterial@@YAPAVMaterial@@PAVObj@@PAV?$map@V?$basic_string@DU?$char_traits@D@std@@V?$allocator@D@2@@std@@PAVMaterial@@U?$less@V?$basic_string@DU?$char_traits@D@std@@V?$allocator@D@2@@std@@@2@V?$allocator@U?$pair@$$CBV?$basic_string@DU?$char_traits@D@std@@V?$allocator@D@2@@std@@PAVMaterial@@@std@@@2@@std@@@Z$2 004825a8 f   read.obj
 0001:000815b0       __unwindfunclet$?processMaterial@@YAPAVMaterial@@PAVObj@@PAV?$map@V?$basic_string@DU?$char_traits@D@std@@V?$allocator@D@2@@std@@PAVMaterial@@U?$less@V?$basic_string@DU?$char_traits@D@std@@V?$allocator@D@2@@std@@@2@V?$allocator@U?$pair@$$CBV?$basic_string@DU?$char_traits@D@std@@V?$allocator@D@2@@std@@PAVMaterial@@@std@@@2@@std@@@Z$3 004825b0 f   read.obj
 0001:000815b8       __unwindfunclet$?processMaterial@@YAPAVMaterial@@PAVObj@@PAV?$map@V?$basic_string@DU?$char_traits@D@std@@V?$allocator@D@2@@std@@PAVMaterial@@U?$less@V?$basic_string@DU?$char_traits@D@std@@V?$allocator@D@2@@std@@@2@V?$allocator@U?$pair@$$CBV?$basic_string@DU?$char_traits@D@std@@V?$allocator@D@2@@std@@PAVMaterial@@@std@@@2@@std@@@Z$4 004825b8 f   read.obj
 0001:000815c0       __unwindfunclet$?processMaterial@@YAPAVMaterial@@PAVObj@@PAV?$map@V?$basic_string@DU?$char_traits@D@std@@V?$allocator@D@2@@std@@PAVMaterial@@U?$less@V?$basic_string@DU?$char_traits@D@std@@V?$allocator@D@2@@std@@@2@V?$allocator@U?$pair@$$CBV?$basic_string@DU?$char_traits@D@std@@V?$allocator@D@2@@std@@PAVMaterial@@@std@@@2@@std@@@Z$5 004825c0 f   read.obj
 0001:000815c8       __unwindfunclet$?processMaterial@@YAPAVMaterial@@PAVObj@@PAV?$map@V?$basic_string@DU?$char_traits@D@std@@V?$allocator@D@2@@std@@PAVMaterial@@U?$less@V?$basic_string@DU?$char_traits@D@std@@V?$allocator@D@2@@std@@@2@V?$allocator@U?$pair@$$CBV?$basic_string@DU?$char_traits@D@std@@V?$allocator@D@2@@std@@PAVMaterial@@@std@@@2@@std@@@Z$6 004825c8 f   read.obj
 0001:000815d0       __unwindfunclet$?processMaterial@@YAPAVMaterial@@PAVObj@@PAV?$map@V?$basic_string@DU?$char_traits@D@std@@V?$allocator@D@2@@std@@PAVMaterial@@U?$less@V?$basic_string@DU?$char_traits@D@std@@V?$allocator@D@2@@std@@@2@V?$allocator@U?$pair@$$CBV?$basic_string@DU?$char_traits@D@std@@V?$allocator@D@2@@std@@PAVMaterial@@@std@@@2@@std@@@Z$7 004825d0 f   read.obj
 0001:000815d8       __unwindfunclet$?processMaterial@@YAPAVMaterial@@PAVObj@@PAV?$map@V?$basic_string@DU?$char_traits@D@std@@V?$allocator@D@2@@std@@PAVMaterial@@U?$less@V?$basic_string@DU?$char_traits@D@std@@V?$allocator@D@2@@std@@@2@V?$allocator@U?$pair@$$CBV?$basic_string@DU?$char_traits@D@std@@V?$allocator@D@2@@std@@PAVMaterial@@@std@@@2@@std@@@Z$8 004825d8 f   read.obj
 0001:000815e0       __unwindfunclet$?processMaterial@@YAPAVMaterial@@PAVObj@@PAV?$map@V?$basic_string@DU?$char_traits@D@std@@V?$allocator@D@2@@std@@PAVMaterial@@U?$less@V?$basic_string@DU?$char_traits@D@std@@V?$allocator@D@2@@std@@@2@V?$allocator@U?$pair@$$CBV?$basic_string@DU?$char_traits@D@std@@V?$allocator@D@2@@std@@PAVMaterial@@@std@@@2@@std@@@Z$9 004825e0 f   read.obj
 0001:000815e8       __unwindfunclet$?processMaterial@@YAPAVMaterial@@PAVObj@@PAV?$map@V?$basic_string@DU?$char_traits@D@std@@V?$allocator@D@2@@std@@PAVMaterial@@U?$less@V?$basic_string@DU?$char_traits@D@std@@V?$allocator@D@2@@std@@@2@V?$allocator@U?$pair@$$CBV?$basic_string@DU?$char_traits@D@std@@V?$allocator@D@2@@std@@PAVMaterial@@@std@@@2@@std@@@Z$10 004825e8 f   read.obj
 0001:000815f0       __unwindfunclet$?processMaterial@@YAPAVMaterial@@PAVObj@@PAV?$map@V?$basic_string@DU?$char_traits@D@std@@V?$allocator@D@2@@std@@PAVMaterial@@U?$less@V?$basic_string@DU?$char_traits@D@std@@V?$allocator@D@2@@std@@@2@V?$allocator@U?$pair@$$CBV?$basic_string@DU?$char_traits@D@std@@V?$allocator@D@2@@std@@PAVMaterial@@@std@@@2@@std@@@Z$11 004825f0 f   read.obj
 0001:000815f8       __unwindfunclet$?processMaterial@@YAPAVMaterial@@PAVObj@@PAV?$map@V?$basic_string@DU?$char_traits@D@std@@V?$allocator@D@2@@std@@PAVMaterial@@U?$less@V?$basic_string@DU?$char_traits@D@std@@V?$allocator@D@2@@std@@@2@V?$allocator@U?$pair@$$CBV?$basic_string@DU?$char_traits@D@std@@V?$allocator@D@2@@std@@PAVMaterial@@@std@@@2@@std@@@Z$12 004825f8 f   read.obj
 0001:00081600       __unwindfunclet$?processMaterial@@YAPAVMaterial@@PAVObj@@PAV?$map@V?$basic_string@DU?$char_traits@D@std@@V?$allocator@D@2@@std@@PAVMaterial@@U?$less@V?$basic_string@DU?$char_traits@D@std@@V?$allocator@D@2@@std@@@2@V?$allocator@U?$pair@$$CBV?$basic_string@DU?$char_traits@D@std@@V?$allocator@D@2@@std@@PAVMaterial@@@std@@@2@@std@@@Z$13 00482600 f   read.obj
 0001:00081608       __unwindfunclet$?processMaterial@@YAPAVMaterial@@PAVObj@@PAV?$map@V?$basic_string@DU?$char_traits@D@std@@V?$allocator@D@2@@std@@PAVMaterial@@U?$less@V?$basic_string@DU?$char_traits@D@std@@V?$allocator@D@2@@std@@@2@V?$allocator@U?$pair@$$CBV?$basic_string@DU?$char_traits@D@std@@V?$allocator@D@2@@std@@PAVMaterial@@@std@@@2@@std@@@Z$14 00482608 f   read.obj
 0001:00081610       __unwindfunclet$?processMaterial@@YAPAVMaterial@@PAVObj@@PAV?$map@V?$basic_string@DU?$char_traits@D@std@@V?$allocator@D@2@@std@@PAVMaterial@@U?$less@V?$basic_string@DU?$char_traits@D@std@@V?$allocator@D@2@@std@@@2@V?$allocator@U?$pair@$$CBV?$basic_string@DU?$char_traits@D@std@@V?$allocator@D@2@@std@@PAVMaterial@@@std@@@2@@std@@@Z$15 00482610 f   read.obj
 0001:00081618       __unwindfunclet$?processMaterial@@YAPAVMaterial@@PAVObj@@PAV?$map@V?$basic_string@DU?$char_traits@D@std@@V?$allocator@D@2@@std@@PAVMaterial@@U?$less@V?$basic_string@DU?$char_traits@D@std@@V?$allocator@D@2@@std@@@2@V?$allocator@U?$pair@$$CBV?$basic_string@DU?$char_traits@D@std@@V?$allocator@D@2@@std@@PAVMaterial@@@std@@@2@@std@@@Z$16 00482618 f   read.obj
 0001:00081620       __unwindfunclet$?processMaterial@@YAPAVMaterial@@PAVObj@@PAV?$map@V?$basic_string@DU?$char_traits@D@std@@V?$allocator@D@2@@std@@PAVMaterial@@U?$less@V?$basic_string@DU?$char_traits@D@std@@V?$allocator@D@2@@std@@@2@V?$allocator@U?$pair@$$CBV?$basic_string@DU?$char_traits@D@std@@V?$allocator@D@2@@std@@PAVMaterial@@@std@@@2@@std@@@Z$17 00482620 f   read.obj
 0001:00081628       __unwindfunclet$?processMaterial@@YAPAVMaterial@@PAVObj@@PAV?$map@V?$basic_string@DU?$char_traits@D@std@@V?$allocator@D@2@@std@@PAVMaterial@@U?$less@V?$basic_string@DU?$char_traits@D@std@@V?$allocator@D@2@@std@@@2@V?$allocator@U?$pair@$$CBV?$basic_string@DU?$char_traits@D@std@@V?$allocator@D@2@@std@@PAVMaterial@@@std@@@2@@std@@@Z$18 00482628 f   read.obj
 0001:00081630       __unwindfunclet$?processMaterial@@YAPAVMaterial@@PAVObj@@PAV?$map@V?$basic_string@DU?$char_traits@D@std@@V?$allocator@D@2@@std@@PAVMaterial@@U?$less@V?$basic_string@DU?$char_traits@D@std@@V?$allocator@D@2@@std@@@2@V?$allocator@U?$pair@$$CBV?$basic_string@DU?$char_traits@D@std@@V?$allocator@D@2@@std@@PAVMaterial@@@std@@@2@@std@@@Z$19 00482630 f   read.obj
 0001:00081638       __unwindfunclet$?processMaterial@@YAPAVMaterial@@PAVObj@@PAV?$map@V?$basic_string@DU?$char_traits@D@std@@V?$allocator@D@2@@std@@PAVMaterial@@U?$less@V?$basic_string@DU?$char_traits@D@std@@V?$allocator@D@2@@std@@@2@V?$allocator@U?$pair@$$CBV?$basic_string@DU?$char_traits@D@std@@V?$allocator@D@2@@std@@PAVMaterial@@@std@@@2@@std@@@Z$20 00482638 f   read.obj
 0001:00081640       __unwindfunclet$?processMaterial@@YAPAVMaterial@@PAVObj@@PAV?$map@V?$basic_string@DU?$char_traits@D@std@@V?$allocator@D@2@@std@@PAVMaterial@@U?$less@V?$basic_string@DU?$char_traits@D@std@@V?$allocator@D@2@@std@@@2@V?$allocator@U?$pair@$$CBV?$basic_string@DU?$char_traits@D@std@@V?$allocator@D@2@@std@@PAVMaterial@@@std@@@2@@std@@@Z$23 00482640 f   read.obj
 0001:0008164b       __ehhandler$?processMaterial@@YAPAVMaterial@@PAVObj@@PAV?$map@V?$basic_string@DU?$char_traits@D@std@@V?$allocator@D@2@@std@@PAVMaterial@@U?$less@V?$basic_string@DU?$char_traits@D@std@@V?$allocator@D@2@@std@@@2@V?$allocator@U?$pair@$$CBV?$basic_string@DU?$char_traits@D@std@@V?$allocator@D@2@@std@@PAVMaterial@@@std@@@2@@std@@@Z 0048264b f   read.obj
 0001:00081680       __unwindfunclet$?processObject@@YAXPAVObj@@PAVScene@@AAV?$map@V?$basic_string@DU?$char_traits@D@std@@V?$allocator@D@2@@std@@PAVMaterial@@U?$less@V?$basic_string@DU?$char_traits@D@std@@V?$allocator@D@2@@std@@@2@V?$allocator@U?$pair@$$CBV?$basic_string@DU?$char_traits@D@std@@V?$allocator@D@2@@std@@PAVMaterial@@@std@@@2@@std@@@Z$0 00482680 f   read.obj
 0001:00081688       __unwindfunclet$?processObject@@YAXPAVObj@@PAVScene@@AAV?$map@V?$basic_string@DU?$char_traits@D@std@@V?$allocator@D@2@@std@@PAVMaterial@@U?$less@V?$basic_string@DU?$char_traits@D@std@@V?$allocator@D@2@@std@@@2@V?$allocator@U?$pair@$$CBV?$basic_string@DU?$char_traits@D@std@@V?$allocator@D@2@@std@@PAVMaterial@@@std@@@2@@std@@@Z$7 00482688 f   read.obj
 0001:00081690       __unwindfunclet$?processObject@@YAXPAVObj@@PAVScene@@AAV?$map@V?$basic_string@DU?$char_traits@D@std@@V?$allocator@D@2@@std@@PAVMaterial@@U?$less@V?$basic_string@DU?$char_traits@D@std@@V?$allocator@D@2@@std@@@2@V?$allocator@U?$pair@$$CBV?$basic_string@DU?$char_traits@D@std@@V?$allocator@D@2@@std@@PAVMaterial@@@std@@@2@@std@@@Z$8 00482690 f   read.obj
 0001:0008169f       __unwindfunclet$?processObject@@YAXPAVObj@@PAVScene@@AAV?$map@V?$basic_string@DU?$char_traits@D@std@@V?$allocator@D@2@@std@@PAVMaterial@@U?$less@V?$basic_string@DU?$char_traits@D@std@@V?$allocator@D@2@@std@@@2@V?$allocator@U?$pair@$$CBV?$basic_string@DU?$char_traits@D@std@@V?$allocator@D@2@@std@@PAVMaterial@@@std@@@2@@std@@@Z$9 0048269f f   read.obj
 0001:000816b8       __unwindfunclet$?processObject@@YAXPAVObj@@PAVScene@@AAV?$map@V?$basic_string@DU?$char_traits@D@std@@V?$allocator@D@2@@std@@PAVMaterial@@U?$less@V?$basic_string@DU?$char_traits@D@std@@V?$allocator@D@2@@std@@@2@V?$allocator@U?$pair@$$CBV?$basic_string@DU?$char_traits@D@std@@V?$allocator@D@2@@std@@PAVMaterial@@@std@@@2@@std@@@Z$10 004826b8 f   read.obj
 0001:000816c0       __unwindfunclet$?processObject@@YAXPAVObj@@PAVScene@@AAV?$map@V?$basic_string@DU?$char_traits@D@std@@V?$allocator@D@2@@std@@PAVMaterial@@U?$less@V?$basic_string@DU?$char_traits@D@std@@V?$allocator@D@2@@std@@@2@V?$allocator@U?$pair@$$CBV?$basic_string@DU?$char_traits@D@std@@V?$allocator@D@2@@std@@PAVMaterial@@@std@@@2@@std@@@Z$11 004826c0 f   read.obj
 0001:000816cf       __unwindfunclet$?processObject@@YAXPAVObj@@PAVScene@@AAV?$map@V?$basic_string@DU?$char_traits@D@std@@V?$allocator@D@2@@std@@PAVMaterial@@U?$less@V?$basic_string@DU?$char_traits@D@std@@V?$allocator@D@2@@std@@@2@V?$allocator@U?$pair@$$CBV?$basic_string@DU?$char_traits@D@std@@V?$allocator@D@2@@std@@PAVMaterial@@@std@@@2@@std@@@Z$12 004826cf f   read.obj
 0001:000816e8       __unwindfunclet$?processObject@@YAXPAVObj@@PAVScene@@AAV?$map@V?$basic_string@DU?$char_traits@D@std@@V?$allocator@D@2@@std@@PAVMaterial@@U?$less@V?$basic_string@DU?$char_traits@D@std@@V?$allocator@D@2@@std@@@2@V?$allocator@U?$pair@$$CBV?$basic_string@DU?$char_traits@D@std@@V?$allocator@D@2@@std@@PAVMaterial@@@std@@@2@@std@@@Z$14 004826e8 f   read.obj
 0001:000816f0       __unwindfunclet$?processObject@@YAXPAVObj@@PAVScene@@AAV?$map@V?$basic_string@DU?$char_traits@D@std@@V?$allocator@D@2@@std@@PAVMaterial@@U?$less@V?$basic_string@DU?$char_traits@D@std@@V?$allocator@D@2@@std@@@2@V?$allocator@U?$pair@$$CBV?$basic_string@DU?$char_traits@D@std@@V?$allocator@D@2@@std@@PAVMaterial@@@std@@@2@@std@@@Z$15 004826f0 f   read.obj
 0001:000816f8       __unwindfunclet$?processObject@@YAXPAVObj@@PAVScene@@AAV?$map@V?$basic_string@DU?$char_traits@D@std@@V?$allocator@D@2@@std@@PAVMaterial@@U?$less@V?$basic_string@DU?$char_traits@D@std@@V?$allocator@D@2@@std@@@2@V?$allocator@U?$pair@$$CBV?$basic_string@DU?$char_traits@D@std@@V?$allocator@D@2@@std@@PAVMaterial@@@std@@@2@@std@@@Z$5 004826f8 f   read.obj
 0001:00081703       __unwindfunclet$?processObject@@YAXPAVObj@@PAVScene@@AAV?$map@V?$basic_string@DU?$char_traits@D@std@@V?$allocator@D@2@@std@@PAVMaterial@@U?$less@V?$basic_string@DU?$char_traits@D@std@@V?$allocator@D@2@@std@@@2@V?$allocator@U?$pair@$$CBV?$basic_string@DU?$char_traits@D@std@@V?$allocator@D@2@@std@@PAVMaterial@@@std@@@2@@std@@@Z$6 00482703 f   read.obj
 0001:0008170b       __ehhandler$?processObject@@YAXPAVObj@@PAVScene@@AAV?$map@V?$basic_string@DU?$char_traits@D@std@@V?$allocator@D@2@@std@@PAVMaterial@@U?$less@V?$basic_string@DU?$char_traits@D@std@@V?$allocator@D@2@@std@@@2@V?$allocator@U?$pair@$$CBV?$basic_string@DU?$char_traits@D@std@@V?$allocator@D@2@@std@@PAVMaterial@@@std@@@2@@std@@@Z 0048270b f   read.obj
 0001:00081740       __unwindfunclet$?processTrimesh@@YAXV?$basic_string@DU?$char_traits@D@std@@V?$allocator@D@2@@std@@PAVObj@@PAVScene@@ABV?$map@V?$basic_string@DU?$char_traits@D@std@@V?$allocator@D@2@@std@@PAVMaterial@@U?$less@V?$basic_string@DU?$char_traits@D@std@@V?$allocator@D@2@@std@@@2@V?$allocator@U?$pair@$$CBV?$basic_string@DU?$char_traits@D@std@@V?$allocator@D@2@@std@@PAVMaterial@@@std@@@2@@2@PAVTransformNode@@@Z$0 00482740 f   read.obj
 0001:00081748       __unwindfunclet$?processTrimesh@@YAXV?$basic_string@DU?$char_traits@D@std@@V?$allocator@D@2@@std@@PAVObj@@PAVScene@@ABV?$map@V?$basic_string@DU?$char_traits@D@std@@V?$allocator@D@2@@std@@PAVMaterial@@U?$less@V?$basic_string@DU?$char_traits@D@std@@V?$allocator@D@2@@std@@@2@V?$allocator@U?$pair@$$CBV?$basic_string@DU?$char_traits@D@std@@V?$allocator@D@2@@std@@PAVMaterial@@@std@@@2@@2@PAVTransformNode@@@Z$1 00482748 f   read.obj
 0001:00081750       __unwindfunclet$?processTrimesh@@YAXV?$basic_string@DU?$char_traits@D@std@@V?$allocator@D@2@@std@@PAVObj@@PAVScene@@ABV?$map@V?$basic_string@DU?$char_traits@D@std@@V?$allocator@D@2@@std@@PAVMaterial@@U?$less@V?$basic_string@DU?$char_traits@D@std@@V?$allocator@D@2@@std@@@2@V?$allocator@U?$pair@$$CBV?$basic_string@DU?$char_traits@D@std@@V?$allocator@D@2@@std@@PAVMaterial@@@std@@@2@@2@PAVTransformNode@@@Z$2 00482750 f   read.obj
 0001:00081758       __unwindfunclet$?processTrimesh@@YAXV?$basic_string@DU?$char_traits@D@std@@V?$allocator@D@2@@std@@PAVObj@@PAVScene@@ABV?$map@V?$basic_string@DU?$char_traits@D@std@@V?$allocator@D@2@@std@@PAVMaterial@@U?$less@V?$basic_string@DU?$char_traits@D@std@@V?$allocator@D@2@@std@@@2@V?$allocator@U?$pair@$$CBV?$basic_string@DU?$char_traits@D@std@@V?$allocator@D@2@@std@@PAVMaterial@@@std@@@2@@2@PAVTransformNode@@@Z$5 00482758 f   read.obj
 0001:00081760       __unwindfunclet$?processTrimesh@@YAXV?$basic_string@DU?$char_traits@D@std@@V?$allocator@D@2@@std@@PAVObj@@PAVScene@@ABV?$map@V?$basic_string@DU?$char_traits@D@std@@V?$allocator@D@2@@std@@PAVMaterial@@U?$less@V?$basic_string@DU?$char_traits@D@std@@V?$allocator@D@2@@std@@@2@V?$allocator@U?$pair@$$CBV?$basic_string@DU?$char_traits@D@std@@V?$allocator@D@2@@std@@PAVMaterial@@@std@@@2@@2@PAVTransformNode@@@Z$6 00482760 f   read.obj
 0001:00081768       __unwindfunclet$?processTrimesh@@YAXV?$basic_string@DU?$char_traits@D@std@@V?$allocator@D@2@@std@@PAVObj@@PAVScene@@ABV?$map@V?$basic_string@DU?$char_traits@D@std@@V?$allocator@D@2@@std@@PAVMaterial@@U?$less@V?$basic_string@DU?$char_traits@D@std@@V?$allocator@D@2@@std@@@2@V?$allocator@U?$pair@$$CBV?$basic_string@DU?$char_traits@D@std@@V?$allocator@D@2@@std@@PAVMaterial@@@std@@@2@@2@PAVTransformNode@@@Z$9 00482768 f   read.obj
 0001:00081770       __unwindfunclet$?processTrimesh@@YAXV?$basic_string@DU?$char_traits@D@std@@V?$allocator@D@2@@std@@PAVObj@@PAVScene@@ABV?$map@V?$basic_string@DU?$char_traits@D@std@@V?$allocator@D@2@@std@@PAVMaterial@@U?$less@V?$basic_string@DU?$char_traits@D@std@@V?$allocator@D@2@@std@@@2@V?$allocator@U?$pair@$$CBV?$basic_string@DU?$char_traits@D@std@@V?$allocator@D@2@@std@@PAVMaterial@@@std@@@2@@2@PAVTransformNode@@@Z$8 00482770 f   read.obj
 0001:00081778       __unwindfunclet$?processTrimesh@@YAXV?$basic_string@DU?$char_traits@D@std@@V?$allocator@D@2@@std@@PAVObj@@PAVScene@@ABV?$map@V?$basic_string@DU?$char_traits@D@std@@V?$allocator@D@2@@std@@PAVMaterial@@U?$less@V?$basic_string@DU?$char_traits@D@std@@V?$allocator@D@2@@std@@@2@V?$allocator@U?$pair@$$CBV?$basic_string@DU?$char_traits@D@std@@V?$allocator@D@2@@std@@PAVMaterial@@@std@@@2@@2@PAVTransformNode@@@Z$7 00482778 f   read.obj
 0001:00081780       __unwindfunclet$?processTrimesh@@YAXV?$basic_string@DU?$char_traits@D@std@@V?$allocator@D@2@@std@@PAVObj@@PAVScene@@ABV?$map@V?$basic_string@DU?$char_traits@D@std@@V?$allocator@D@2@@std@@PAVMaterial@@U?$less@V?$basic_string@DU?$char_traits@D@std@@V?$allocator@D@2@@std@@@2@V?$allocator@U?$pair@$$CBV?$basic_string@DU?$char_traits@D@std@@V?$allocator@D@2@@std@@PAVMaterial@@@std@@@2@@2@PAVTransformNode@@@Z$10 00482780 f   read.obj
 0001:00081788       __unwindfunclet$?processTrimesh@@YAXV?$basic_string@DU?$char_traits@D@std@@V?$allocator@D@2@@std@@PAVObj@@PAVScene@@ABV?$map@V?$basic_string@DU?$char_traits@D@std@@V?$allocator@D@2@@std@@PAVMaterial@@U?$less@V?$basic_string@DU?$char_traits@D@std@@V?$allocator@D@2@@std@@@2@V?$allocator@U?$pair@$$CBV?$basic_string@DU?$char_traits@D@std@@V?$allocator@D@2@@std@@PAVMaterial@@@std@@@2@@2@PAVTransformNode@@@Z$11 00482788 f   read.obj
 0001:00081790       __unwindfunclet$?processTrimesh@@YAXV?$basic_string@DU?$char_traits@D@std@@V?$allocator@D@2@@std@@PAVObj@@PAVScene@@ABV?$map@V?$basic_string@DU?$char_traits@D@std@@V?$allocator@D@2@@std@@PAVMaterial@@U?$less@V?$basic_string@DU?$char_traits@D@std@@V?$allocator@D@2@@std@@@2@V?$allocator@U?$pair@$$CBV?$basic_string@DU?$char_traits@D@std@@V?$allocator@D@2@@std@@PAVMaterial@@@std@@@2@@2@PAVTransformNode@@@Z$12 00482790 f   read.obj
 0001:00081798       __unwindfunclet$?processTrimesh@@YAXV?$basic_string@DU?$char_traits@D@std@@V?$allocator@D@2@@std@@PAVObj@@PAVScene@@ABV?$map@V?$basic_string@DU?$char_traits@D@std@@V?$allocator@D@2@@std@@PAVMaterial@@U?$less@V?$basic_string@DU?$char_traits@D@std@@V?$allocator@D@2@@std@@@2@V?$allocator@U?$pair@$$CBV?$basic_string@DU?$char_traits@D@std@@V?$allocator@D@2@@std@@PAVMaterial@@@std@@@2@@2@PAVTransformNode@@@Z$13 00482798 f   read.obj
 0001:000817a0       __unwindfunclet$?processTrimesh@@YAXV?$basic_string@DU?$char_traits@D@std@@V?$allocator@D@2@@std@@PAVObj@@PAVScene@@ABV?$map@V?$basic_string@DU?$char_traits@D@std@@V?$allocator@D@2@@std@@PAVMaterial@@U?$less@V?$basic_string@DU?$char_traits@D@std@@V?$allocator@D@2@@std@@@2@V?$allocator@U?$pair@$$CBV?$basic_string@DU?$char_traits@D@std@@V?$allocator@D@2@@std@@PAVMaterial@@@std@@@2@@2@PAVTransformNode@@@Z$14 004827a0 f   read.obj
 0001:000817a8       __ehhandler$?processTrimesh@@YAXV?$basic_string@DU?$char_traits@D@std@@V?$allocator@D@2@@std@@PAVObj@@PAVScene@@ABV?$map@V?$basic_string@DU?$char_traits@D@std@@V?$allocator@D@2@@std@@PAVMaterial@@U?$less@V?$basic_string@DU?$char_traits@D@std@@V?$allocator@D@2@@std@@@2@V?$allocator@U?$pair@$$CBV?$basic_string@DU?$char_traits@D@std@@V?$allocator@D@2@@std@@PAVMaterial@@@std@@@2@@2@PAVTransformNode@@@Z 004827a8 f   read.obj
 0001:000817d0       __unwindfunclet$?readScene@@YAPAVScene@@AAV?$basic_istream@DU?$char_traits@D@std@@@std@@@Z$0 004827d0 f   read.obj
 0001:000817e5       __unwindfunclet$?readScene@@YAPAVScene@@AAV?$basic_istream@DU?$char_traits@D@std@@@std@@@Z$1 004827e5 f   read.obj
 0001:000817f0       __unwindfunclet$?readScene@@YAPAVScene@@AAV?$basic_istream@DU?$char_traits@D@std@@@std@@@Z$2 004827f0 f   read.obj
 0001:000817fb       __unwindfunclet$?readScene@@YAPAVScene@@AAV?$basic_istream@DU?$char_traits@D@std@@@std@@@Z$3 004827fb f   read.obj
 0001:00081806       __unwindfunclet$?readScene@@YAPAVScene@@AAV?$basic_istream@DU?$char_traits@D@std@@@std@@@Z$4 00482806 f   read.obj
 0001:00081811       __ehhandler$?readScene@@YAPAVScene@@AAV?$basic_istream@DU?$char_traits@D@std@@@std@@@Z 00482811 f   read.obj
 0001:00081840       __unwindfunclet$?readScene@@YAPAVScene@@ABV?$basic_string@DU?$char_traits@D@std@@V?$allocator@D@2@@std@@@Z$2 00482840 f   read.obj
 0001:0008184b       __ehhandler$?readScene@@YAPAVScene@@ABV?$basic_string@DU?$char_traits@D@std@@V?$allocator@D@2@@std@@@Z 0048284b f   read.obj
 0001:00081870       __unwindfunclet$?uflow@?$basic_filebuf@DU?$char_traits@D@std@@@std@@MAEHXZ$0 00482870 f   read.obj
 0001:00081878       __ehhandler$?uflow@?$basic_filebuf@DU?$char_traits@D@std@@@std@@MAEHXZ 00482878 f   read.obj
 0001:000818a0       __unwindfunclet$?verifyTuple@@YAXABV?$vector@PAVObj@@V?$allocator@PAVObj@@@std@@@std@@I@Z$0 004828a0 f   read.obj
 0001:000818ab       __unwindfunclet$?verifyTuple@@YAXABV?$vector@PAVObj@@V?$allocator@PAVObj@@@std@@@std@@I@Z$1 004828ab f   read.obj
 0001:000818b3       __ehhandler$?verifyTuple@@YAXABV?$vector@PAVObj@@V?$allocator@PAVObj@@@std@@@std@@I@Z 004828b3 f   read.obj
 0001:000818e0       __unwindfunclet$?shadowAttenuation@DirectionalLight@@UBE?AVvec3f@@ABV2@@Z$0 004828e0 f   light.obj
 0001:000818eb       __ehhandler$?shadowAttenuation@DirectionalLight@@UBE?AVvec3f@@ABV2@@Z 004828eb f   light.obj
 0001:00081920       __unwindfunclet$?shadowAttenuation_@PointLight@@IBE?AVvec3f@@ABV2@0@Z$0 00482920 f   light.obj
 0001:00081928       __ehhandler$?shadowAttenuation_@PointLight@@IBE?AVvec3f@@ABV2@0@Z 00482928 f   light.obj
 0001:00081950       __unwindfunclet$?intersect@Scene@@QBE_NABVray@@AAVisect@@@Z$0 00482950 f   scene.obj
 0001:00081958       __ehhandler$?intersect@Scene@@QBE_NABVray@@AAVisect@@@Z 00482958 f   scene.obj
 0001:00081980       __unwindfunclet$?intersectLocal@Cone@@UBE_NABVray@@AAVisect@@@Z$0 00482980 f   Cone.obj
 0001:00081988       __ehhandler$?intersectLocal@Cone@@UBE_NABVray@@AAVisect@@@Z 00482988 f   Cone.obj
 0001:000819b0       __unwindfunclet$?intersectLocal@Cylinder@@UBE_NABVray@@AAVisect@@@Z$0 004829b0 f   Cylinder.obj
 0001:000819b8       __ehhandler$?intersectLocal@Cylinder@@UBE_NABVray@@AAVisect@@@Z 004829b8 f   Cylinder.obj
 0001:000819e0       __ehhandler$??$_Resize@V<lambda_c34ecdecde49bf1d2564cf10b5269ebb>@@@?$vector@Vvec3f@@V?$allocator@Vvec3f@@@std@@@std@@AAEXIV<lambda_c34ecdecde49bf1d2564cf10b5269ebb>@@@Z 004829e0 f   trimesh.obj
 0001:00081a00       __ehhandler$??$emplace_back@ABVvec3f@@@?$vector@Vvec3f@@V?$allocator@Vvec3f@@@std@@@std@@QAEXABVvec3f@@@Z 00482a00 f   trimesh.obj
 0001:00081a20       __unwindfunclet$?addFace@Trimesh@@QAE_NHHH@Z$0 00482a20 f   trimesh.obj
 0001:00081a2f       __ehhandler$?addFace@Trimesh@@QAE_NHHH@Z 00482a2f f   trimesh.obj
 0001:00081a50       __unwindfunclet$?option@Fl@@SA_NW4Fl_Option@1@@Z$0 00482a50 f   fltk:Fl.obj
 0001:00081a58       __unwindfunclet$?option@Fl@@SA_NW4Fl_Option@1@@Z$1 00482a58 f   fltk:Fl.obj
 0001:00081a60       __unwindfunclet$?option@Fl@@SA_NW4Fl_Option@1@@Z$2 00482a60 f   fltk:Fl.obj
 0001:00081a68       __unwindfunclet$?option@Fl@@SA_NW4Fl_Option@1@@Z$3 00482a68 f   fltk:Fl.obj
 0001:00081a70       __ehhandler$?option@Fl@@SA_NW4Fl_Option@1@@Z 00482a70 f   fltk:Fl.obj
 0001:00081a8b       __unwindfunclet$?copy@Fl@@SAXPBDHH0@Z$0 00482a8b f   fltk:Fl.obj
 0001:00081a93       __ehhandler$?copy@Fl@@SAXPBDHH0@Z 00482a93 f   fltk:Fl.obj
 0001:00081aae       __ehhandler$??1Fl_Widget_Tracker@@QAE@XZ 00482aae f   fltk:Fl.obj
 0001:00081ad0       __ehhandler$??1Fl_Win32_At_Exit@@QAE@XZ 00482ad0 f   fltk:Fl.obj
 0001:00081af0       __unwindfunclet$?makeform@@YAPAVFl_Window@@XZ$0 00482af0 f   fltk:fl_ask.obj
 0001:00081b02       __unwindfunclet$?makeform@@YAPAVFl_Window@@XZ$1 00482b02 f   fltk:fl_ask.obj
 0001:00081b11       __unwindfunclet$?makeform@@YAPAVFl_Window@@XZ$2 00482b11 f   fltk:fl_ask.obj
 0001:00081b23       __unwindfunclet$?makeform@@YAPAVFl_Window@@XZ$3 00482b23 f   fltk:fl_ask.obj
 0001:00081b32       __unwindfunclet$?makeform@@YAPAVFl_Window@@XZ$4 00482b32 f   fltk:fl_ask.obj
 0001:00081b41       __unwindfunclet$?makeform@@YAPAVFl_Window@@XZ$5 00482b41 f   fltk:fl_ask.obj
 0001:00081b50       __unwindfunclet$?makeform@@YAPAVFl_Window@@XZ$6 00482b50 f   fltk:fl_ask.obj
 0001:00081b5f       __ehhandler$?makeform@@YAPAVFl_Window@@XZ 00482b5f f   fltk:fl_ask.obj
 0001:00081b80       __unwindfunclet$??0Fl_Window@@QAE@HHPBD@Z$0 00482b80 f   fltk:Fl_Window.obj
 0001:00081b88       __ehhandler$??0Fl_Window@@QAE@HHPBD@Z 00482b88 f   fltk:Fl_Window.obj
 0001:00081ba3       __unwindfunclet$??0Fl_Window@@QAE@HHHHPBD@Z$0 00482ba3 f   fltk:Fl_Window.obj
 0001:00081bab       __ehhandler$??0Fl_Window@@QAE@HHHHPBD@Z 00482bab f   fltk:Fl_Window.obj
 0001:00081bc6       __ehhandler$??1Fl_Window@@UAE@XZ 00482bc6 f   fltk:Fl_Window.obj
 0001:00081bf0       __unwindfunclet$?handle@Fl_Group@@UAEHH@Z$0 00482bf0 f   fltk:Fl_Group.obj
 0001:00081bf8       __ehhandler$?handle@Fl_Group@@UAEHH@Z 00482bf8 f   fltk:Fl_Group.obj
 0001:00081c16       __unwindfunclet$??0Fl_Group@@QAE@HHHHPBD@Z$0 00482c16 f   fltk:Fl_Group.obj
 0001:00081c1e       __ehhandler$??0Fl_Group@@QAE@HHHHPBD@Z 00482c1e f   fltk:Fl_Group.obj
 0001:00081c39       __ehhandler$??1Fl_Group@@UAE@XZ 00482c39 f   fltk:Fl_Group.obj
 0001:00081c54       __unwindfunclet$??0Fl_Input_Choice@@QAE@HHHHPBD@Z$0 00482c54 f   fltk:Fl_Group.obj
 0001:00081c5c       __unwindfunclet$??0Fl_Input_Choice@@QAE@HHHHPBD@Z$1 00482c5c f   fltk:Fl_Group.obj
 0001:00081c6e       __unwindfunclet$??0Fl_Input_Choice@@QAE@HHHHPBD@Z$2 00482c6e f   fltk:Fl_Group.obj
 0001:00081c7d       __ehhandler$??0Fl_Input_Choice@@QAE@HHHHPBD@Z 00482c7d f   fltk:Fl_Group.obj
 0001:00081c98       __unwindfunclet$??0Fl_Spinner@@QAE@HHHHPBD@Z$0 00482c98 f   fltk:Fl_Group.obj
 0001:00081ca0       __unwindfunclet$??0Fl_Spinner@@QAE@HHHHPBD@Z$1 00482ca0 f   fltk:Fl_Group.obj
 0001:00081cae       __unwindfunclet$??0Fl_Spinner@@QAE@HHHHPBD@Z$2 00482cae f   fltk:Fl_Group.obj
 0001:00081cbc       __unwindfunclet$??0Fl_Spinner@@QAE@HHHHPBD@Z$3 00482cbc f   fltk:Fl_Group.obj
 0001:00081cca       __ehhandler$??0Fl_Spinner@@QAE@HHHHPBD@Z 00482cca f   fltk:Fl_Group.obj
 0001:00081cf0       __unwindfunclet$?inp_cb@Fl_Input_Choice@@CAXPAVFl_Widget@@PAX@Z$0 00482cf0 f   fltk:Fl_Group.obj
 0001:00081cf8       __ehhandler$?inp_cb@Fl_Input_Choice@@CAXPAVFl_Widget@@PAX@Z 00482cf8 f   fltk:Fl_Group.obj
 0001:00081d20       __unwindfunclet$?menu_cb@Fl_Input_Choice@@CAXPAVFl_Widget@@PAX@Z$0 00482d20 f   fltk:Fl_Group.obj
 0001:00081d28       __ehhandler$?menu_cb@Fl_Input_Choice@@CAXPAVFl_Widget@@PAX@Z 00482d28 f   fltk:Fl_Group.obj
 0001:00081d50       __ehhandler$??1Fl_Menu_@@UAE@XZ 00482d50 f   fltk:Fl_Menu_.obj
 0001:00081d70       __unwindfunclet$?simulate_key_action@Fl_Button@@IAEXXZ$0 00482d70 f   fltk:Fl_Button.obj
 0001:00081d7f       __ehhandler$?simulate_key_action@Fl_Button@@IAEXXZ 00482d7f f   fltk:Fl_Button.obj
 0001:00081d9a       __unwindfunclet$?handle@Fl_Button@@UAEHH@Z$1 00482d9a f   fltk:Fl_Button.obj
 0001:00081da2       __unwindfunclet$?handle@Fl_Button@@UAEHH@Z$2 00482da2 f   fltk:Fl_Button.obj
 0001:00081daa       __ehhandler$?handle@Fl_Button@@UAEHH@Z 00482daa f   fltk:Fl_Button.obj
 0001:00081dd0       __unwindfunclet$?fl_dir_chooser@@YAPADPBD0H@Z$0 00482dd0 f   fltk:fl_file_dir.obj
 0001:00081de2       __ehhandler$?fl_dir_chooser@@YAPADPBD0H@Z 00482de2 f   fltk:fl_file_dir.obj
 0001:00081dfd       __unwindfunclet$?fl_file_chooser@@YAPADPBD00H@Z$0 00482dfd f   fltk:fl_file_dir.obj
 0001:00081e0f       __ehhandler$?fl_file_chooser@@YAPADPBD00H@Z 00482e0f f   fltk:fl_file_dir.obj
 0001:00081e30       __ehhandler$??1Fl_Widget@@UAE@XZ 00482e30 f   fltk:Fl_Widget.obj
 0001:00081e4b       __unwindfunclet$?do_callback@Fl_Widget@@QAEXPAV1@PAX@Z$0 00482e4b f   fltk:Fl_Widget.obj
 0001:00081e53       __ehhandler$?do_callback@Fl_Widget@@QAEXPAV1@PAX@Z 00482e53 f   fltk:Fl_Widget.obj
 0001:00081e70       __unwindfunclet$??0Fl_RGB_Image@@QAE@PBVFl_Pixmap@@I@Z$0 00482e70 f   fltk:Fl_Image.obj
 0001:00081e78       __ehhandler$??0Fl_RGB_Image@@QAE@PBVFl_Pixmap@@I@Z 00482e78 f   fltk:Fl_Image.obj
 0001:00081e93       __ehhandler$??1Fl_RGB_Image@@UAE@XZ 00482e93 f   fltk:Fl_Image.obj
 0001:00081eb0       __unwindfunclet$?tooltip_timeout@@YAXPAX@Z$0 00482eb0 f   fltk:Fl_Tooltip.obj
 0001:00081ec2       __ehhandler$?tooltip_timeout@@YAXPAX@Z 00482ec2 f   fltk:Fl_Tooltip.obj
 0001:00081ee0       __unwindfunclet$??0Fl_TooltipBox@@QAE@XZ$0 00482ee0 f   fltk:Fl_Tooltip.obj
 0001:00081ee8       __ehhandler$??0Fl_TooltipBox@@QAE@XZ 00482ee8 f   fltk:Fl_Tooltip.obj
 0001:00081f10       __ehhandler$??1Fl_Double_Window@@UAE@XZ 00482f10 f   fltk:Fl_Double_Window.obj
 0001:00081f30       __unwindfunclet$??0Fl_Preferences@@QAE@W4Root@0@PBD1@Z$0 00482f30 f   fltk:Fl_Preferences.obj
 0001:00081f3f       __unwindfunclet$??0Fl_Preferences@@QAE@W4Root@0@PBD1@Z$1 00482f3f f   fltk:Fl_Preferences.obj
 0001:00081f4e       __ehhandler$??0Fl_Preferences@@QAE@W4Root@0@PBD1@Z 00482f4e f   fltk:Fl_Preferences.obj
 0001:00081f69       __unwindfunclet$??0Fl_Preferences@@QAE@PBD00@Z$0 00482f69 f   fltk:Fl_Preferences.obj
 0001:00081f78       __unwindfunclet$??0Fl_Preferences@@QAE@PBD00@Z$1 00482f78 f   fltk:Fl_Preferences.obj
 0001:00081f87       __ehhandler$??0Fl_Preferences@@QAE@PBD00@Z 00482f87 f   fltk:Fl_Preferences.obj
 0001:00081fa2       __unwindfunclet$??0Fl_Preferences@@QAE@PAV0@PBD@Z$1 00482fa2 f   fltk:Fl_Preferences.obj
 0001:00081fb1       __unwindfunclet$??0Fl_Preferences@@QAE@PAV0@PBD@Z$2 00482fb1 f   fltk:Fl_Preferences.obj
 0001:00081fc0       __ehhandler$??0Fl_Preferences@@QAE@PAV0@PBD@Z 00482fc0 f   fltk:Fl_Preferences.obj
 0001:00081fdb       __ehhandler$??1Node@Fl_Preferences@@QAE@XZ 00482fdb f   fltk:Fl_Preferences.obj
 0001:00081ff6       __unwindfunclet$?find@Node@Fl_Preferences@@QAEPAV12@PBD@Z$0 00482ff6 f   fltk:Fl_Preferences.obj
 0001:00082005       __ehhandler$?find@Node@Fl_Preferences@@QAEPAV12@PBD@Z 00483005 f   fltk:Fl_Preferences.obj
 0001:00082020       __ehhandler$??1RootNode@Fl_Preferences@@QAE@XZ 00483020 f   fltk:Fl_Preferences.obj
 0001:0008203b       __unwindfunclet$??0Fl_Plugin@@QAE@PBD0@Z$0 0048303b f   fltk:Fl_Preferences.obj
 0001:00082043       __ehhandler$??0Fl_Plugin@@QAE@PBD0@Z 00483043 f   fltk:Fl_Preferences.obj
 0001:0008205e       __ehhandler$??1Fl_Plugin@@UAE@XZ 0048305e f   fltk:Fl_Preferences.obj
 0001:00082079       __unwindfunclet$??0Fl_Plugin_Manager@@QAE@PBD@Z$0 00483079 f   fltk:Fl_Preferences.obj
 0001:00082081       __ehhandler$??0Fl_Plugin_Manager@@QAE@PBD@Z 00483081 f   fltk:Fl_Preferences.obj
 0001:0008209c       __unwindfunclet$?plugin@Fl_Plugin_Manager@@QAEPAVFl_Plugin@@H@Z$0 0048309c f   fltk:Fl_Preferences.obj
 0001:000820a4       __ehhandler$?plugin@Fl_Plugin_Manager@@QAEPAVFl_Plugin@@H@Z 004830a4 f   fltk:Fl_Preferences.obj
 0001:000820c9       __unwindfunclet$?plugin@Fl_Plugin_Manager@@QAEPAVFl_Plugin@@PBD@Z$0 004830c9 f   fltk:Fl_Preferences.obj
 0001:000820d1       __ehhandler$?plugin@Fl_Plugin_Manager@@QAEPAVFl_Plugin@@PBD@Z 004830d1 f   fltk:Fl_Preferences.obj
 0001:000820f6       __unwindfunclet$?addPlugin@Fl_Plugin_Manager@@QAEPAXPBDPAVFl_Plugin@@@Z$0 004830f6 f   fltk:Fl_Preferences.obj
 0001:000820fe       __ehhandler$?addPlugin@Fl_Plugin_Manager@@QAEPAXPBDPAVFl_Plugin@@@Z 004830fe f   fltk:Fl_Preferences.obj
 0001:00082123       __unwindfunclet$?loadAll@Fl_Plugin_Manager@@SAHPBD0@Z$0 00483123 f   fltk:Fl_Preferences.obj
 0001:0008212b       __ehhandler$?loadAll@Fl_Plugin_Manager@@SAHPBD0@Z 0048312b f   fltk:Fl_Preferences.obj
 0001:00082150       __unwindfunclet$??0Fl_Display_Device@@QAE@PAVFl_Graphics_Driver@@@Z$0 00483150 f   fltk:Fl_Device.obj
 0001:00082158       __ehhandler$??0Fl_Display_Device@@QAE@PAVFl_Graphics_Driver@@@Z 00483158 f   fltk:Fl_Device.obj
 0001:00082180       __unwindfunclet$?find@@YAPAVFl_Font_Descriptor@@HHH@Z$0 00483180 f   fltk:fl_font.obj
 0001:00082192       __ehhandler$?find@@YAPAVFl_Font_Descriptor@@HHH@Z 00483192 f   fltk:fl_font.obj
 0001:000821b0       __ehhandler$??1Fl_Pixmap@@UAE@XZ 004831b0 f   fltk:Fl_Pixmap.obj
 0001:000821cb       __unwindfunclet$?copy@Fl_Pixmap@@UAEPAVFl_Image@@HH@Z$0 004831cb f   fltk:Fl_Pixmap.obj
 0001:000821dd       __unwindfunclet$?copy@Fl_Pixmap@@UAEPAVFl_Image@@HH@Z$1 004831dd f   fltk:Fl_Pixmap.obj
 0001:000821ef       __ehhandler$?copy@Fl_Pixmap@@UAEPAVFl_Image@@HH@Z 004831ef f   fltk:Fl_Pixmap.obj
 0001:00082220       __unwindfunclet$??0Fl_Pixmap@@QAE@PBQAD@Z$0 00483220 f   fltk:Fl_Pixmap.obj
 0001:00082228       __ehhandler$??0Fl_Pixmap@@QAE@PBQAD@Z 00483228 f   fltk:Fl_Pixmap.obj
 0001:00082250       __unwindfunclet$??0Fl_Pixmap@@QAE@PBQBD@Z$0 00483250 f   fltk:Fl_Pixmap.obj
 0001:00082258       __ehhandler$??0Fl_Pixmap@@QAE@PBQBD@Z 00483258 f   fltk:Fl_Pixmap.obj
 0001:00082280       __ehhandler$??1Fl_Bitmap@@UAE@XZ 00483280 f   fltk:Fl_Bitmap.obj
 0001:000822a0       __unwindfunclet$?reload_scheme@Fl@@SAHXZ$0 004832a0 f   fltk:Fl_get_system_colors.obj
 0001:000822af       __ehhandler$?reload_scheme@Fl@@SAHXZ 004832af f   fltk:Fl_get_system_colors.obj
 0001:000822d0       __unwindfunclet$?shape_pixmap_@Fl_Window@@AAEXPAVFl_Pixmap@@@Z$0 004832d0 f   fltk:Fl_Window_shape.obj
 0001:000822df       __ehhandler$?shape_pixmap_@Fl_Window@@AAEXPAVFl_Pixmap@@@Z 004832df f   fltk:Fl_Window_shape.obj
 0001:00082300       __unwindfunclet$?popup@Fl_Menu_Button@@QAEPBUFl_Menu_Item@@XZ$0 00483300 f   fltk:Fl_Menu_Button.obj
 0001:00082308       __ehhandler$?popup@Fl_Menu_Button@@QAEPBUFl_Menu_Item@@XZ 00483308 f   fltk:Fl_Menu_Button.obj
 0001:00082330       __unwindfunclet$?pulldown@Fl_Menu_Item@@QBEPBU1@HHHHPBU1@PBVFl_Menu_@@0H@Z$2 00483330 f   fltk:Fl_Menu.obj
 0001:0008233b       __unwindfunclet$?pulldown@Fl_Menu_Item@@QBEPBU1@HHHHPBU1@PBVFl_Menu_@@0H@Z$3 0048333b f   fltk:Fl_Menu.obj
 0001:00082350       __unwindfunclet$?pulldown@Fl_Menu_Item@@QBEPBU1@HHHHPBU1@PBVFl_Menu_@@0H@Z$4 00483350 f   fltk:Fl_Menu.obj
 0001:00082365       __unwindfunclet$?pulldown@Fl_Menu_Item@@QBEPBU1@HHHHPBU1@PBVFl_Menu_@@0H@Z$5 00483365 f   fltk:Fl_Menu.obj
 0001:0008237a       __ehhandler$?pulldown@Fl_Menu_Item@@QBEPBU1@HHHHPBU1@PBVFl_Menu_@@0H@Z 0048337a f   fltk:Fl_Menu.obj
 0001:00082398       __unwindfunclet$??0menutitle@@QAE@HHHHPBUFl_Menu_Item@@@Z$0 00483398 f   fltk:Fl_Menu.obj
 0001:000823a0       __ehhandler$??0menutitle@@QAE@HHHHPBUFl_Menu_Item@@@Z 004833a0 f   fltk:Fl_Menu.obj
 0001:000823bb       __unwindfunclet$??0menuwindow@@QAE@PBUFl_Menu_Item@@HHHH00HHH@Z$0 004833bb f   fltk:Fl_Menu.obj
 0001:000823c3       __unwindfunclet$??0menuwindow@@QAE@PBUFl_Menu_Item@@HHHH00HHH@Z$1 004833c3 f   fltk:Fl_Menu.obj
 0001:000823d5       __unwindfunclet$??0menuwindow@@QAE@PBUFl_Menu_Item@@HHHH00HHH@Z$2 004833d5 f   fltk:Fl_Menu.obj
 0001:000823e7       __ehhandler$??0menuwindow@@QAE@PBUFl_Menu_Item@@HHHH00HHH@Z 004833e7 f   fltk:Fl_Menu.obj
 0001:00082405       __ehhandler$??1menuwindow@@UAE@XZ 00483405 f   fltk:Fl_Menu.obj
 0001:00082420       __unwindfunclet$?handle@Fl_Slider@@IAEHHHHHH@Z$0 00483420 f   fltk:Fl_Slider.obj
 0001:00082428       __unwindfunclet$?handle@Fl_Slider@@IAEHHHHHH@Z$1 00483428 f   fltk:Fl_Slider.obj
 0001:00082430       __ehhandler$?handle@Fl_Slider@@IAEHHHHHH@Z 00483430 f   fltk:Fl_Slider.obj
 0001:0008244e       __unwindfunclet$??0Fl_Slider@@QAE@HHHHPBD@Z$0 0048344e f   fltk:Fl_Slider.obj
 0001:00082456       __ehhandler$??0Fl_Slider@@QAE@HHHHPBD@Z 00483456 f   fltk:Fl_Slider.obj
 0001:00082471       __unwindfunclet$??0Fl_Slider@@QAE@EHHHHPBD@Z$0 00483471 f   fltk:Fl_Slider.obj
 0001:00082479       __ehhandler$??0Fl_Slider@@QAE@EHHHHPBD@Z 00483479 f   fltk:Fl_Slider.obj
 0001:000824a0       __unwindfunclet$??0Fl_File_Chooser@@QAE@PBD0H0@Z$0 004834a0 f   fltk:Fl_File_Chooser.obj
 0001:000824b2       __unwindfunclet$??0Fl_File_Chooser@@QAE@PBD0H0@Z$1 004834b2 f   fltk:Fl_File_Chooser.obj
 0001:000824c1       __unwindfunclet$??0Fl_File_Chooser@@QAE@PBD0H0@Z$2 004834c1 f   fltk:Fl_File_Chooser.obj
 0001:000824d0       __unwindfunclet$??0Fl_File_Chooser@@QAE@PBD0H0@Z$3 004834d0 f   fltk:Fl_File_Chooser.obj
 0001:000824df       __unwindfunclet$??0Fl_File_Chooser@@QAE@PBD0H0@Z$4 004834df f   fltk:Fl_File_Chooser.obj
 0001:000824ee       __unwindfunclet$??0Fl_File_Chooser@@QAE@PBD0H0@Z$5 004834ee f   fltk:Fl_File_Chooser.obj
 0001:000824fd       __unwindfunclet$??0Fl_File_Chooser@@QAE@PBD0H0@Z$6 004834fd f   fltk:Fl_File_Chooser.obj
 0001:0008250f       __unwindfunclet$??0Fl_File_Chooser@@QAE@PBD0H0@Z$7 0048350f f   fltk:Fl_File_Chooser.obj
 0001:0008251e       __unwindfunclet$??0Fl_File_Chooser@@QAE@PBD0H0@Z$8 0048351e f   fltk:Fl_File_Chooser.obj
 0001:0008252d       __unwindfunclet$??0Fl_File_Chooser@@QAE@PBD0H0@Z$9 0048352d f   fltk:Fl_File_Chooser.obj
 0001:0008253c       __unwindfunclet$??0Fl_File_Chooser@@QAE@PBD0H0@Z$10 0048353c f   fltk:Fl_File_Chooser.obj
 0001:0008254b       __unwindfunclet$??0Fl_File_Chooser@@QAE@PBD0H0@Z$11 0048354b f   fltk:Fl_File_Chooser.obj
 0001:0008255d       __unwindfunclet$??0Fl_File_Chooser@@QAE@PBD0H0@Z$12 0048355d f   fltk:Fl_File_Chooser.obj
 0001:0008256f       __unwindfunclet$??0Fl_File_Chooser@@QAE@PBD0H0@Z$13 0048356f f   fltk:Fl_File_Chooser.obj
 0001:00082584       __unwindfunclet$??0Fl_File_Chooser@@QAE@PBD0H0@Z$14 00483584 f   fltk:Fl_File_Chooser.obj
 0001:00082596       __unwindfunclet$??0Fl_File_Chooser@@QAE@PBD0H0@Z$15 00483596 f   fltk:Fl_File_Chooser.obj
 0001:000825a8       __unwindfunclet$??0Fl_File_Chooser@@QAE@PBD0H0@Z$16 004835a8 f   fltk:Fl_File_Chooser.obj
 0001:000825ba       __unwindfunclet$??0Fl_File_Chooser@@QAE@PBD0H0@Z$17 004835ba f   fltk:Fl_File_Chooser.obj
 0001:000825cc       __unwindfunclet$??0Fl_File_Chooser@@QAE@PBD0H0@Z$18 004835cc f   fltk:Fl_File_Chooser.obj
 0001:000825de       __unwindfunclet$??0Fl_File_Chooser@@QAE@PBD0H0@Z$19 004835de f   fltk:Fl_File_Chooser.obj
 0001:000825f3       __unwindfunclet$??0Fl_File_Chooser@@QAE@PBD0H0@Z$20 004835f3 f   fltk:Fl_File_Chooser.obj
 0001:00082608       __unwindfunclet$??0Fl_File_Chooser@@QAE@PBD0H0@Z$21 00483608 f   fltk:Fl_File_Chooser.obj
 0001:0008261a       __unwindfunclet$??0Fl_File_Chooser@@QAE@PBD0H0@Z$22 0048361a f   fltk:Fl_File_Chooser.obj
 0001:0008262c       __unwindfunclet$??0Fl_File_Chooser@@QAE@PBD0H0@Z$23 0048362c f   fltk:Fl_File_Chooser.obj
 0001:0008263e       __unwindfunclet$??0Fl_File_Chooser@@QAE@PBD0H0@Z$24 0048363e f   fltk:Fl_File_Chooser.obj
 0001:00082650       __unwindfunclet$??0Fl_File_Chooser@@QAE@PBD0H0@Z$25 00483650 f   fltk:Fl_File_Chooser.obj
 0001:00082662       __unwindfunclet$??0Fl_File_Chooser@@QAE@PBD0H0@Z$26 00483662 f   fltk:Fl_File_Chooser.obj
 0001:00082674       __unwindfunclet$??0Fl_File_Chooser@@QAE@PBD0H0@Z$27 00483674 f   fltk:Fl_File_Chooser.obj
 0001:00082686       __unwindfunclet$??0Fl_File_Chooser@@QAE@PBD0H0@Z$28 00483686 f   fltk:Fl_File_Chooser.obj
 0001:00082698       __ehhandler$??0Fl_File_Chooser@@QAE@PBD0H0@Z 00483698 f   fltk:Fl_File_Chooser.obj
 0001:000826b6       __ehhandler$??1Fl_File_Chooser@@QAE@XZ 004836b6 f   fltk:Fl_File_Chooser.obj
 0001:000826e0       __ehhandler$??1Fl_Menu_Window@@UAE@XZ 004836e0 f   fltk:Fl_Menu_Window.obj
 0001:00082700       __ehhandler$??1Fl_Overlay_Window@@UAE@XZ 00483700 f   fltk:Fl_Overlay_Window.obj
 0001:00082720       __unwindfunclet$?copy@Fl_Tiled_Image@@UAEPAVFl_Image@@HH@Z$0 00483720 f   fltk:Fl_Tiled_Image.obj
 0001:0008272f       __ehhandler$?copy@Fl_Tiled_Image@@UAEPAVFl_Image@@HH@Z 0048372f f   fltk:Fl_Tiled_Image.obj
 0001:00082750       __unwindfunclet$?fallback_cursor@@YAXPAVFl_Window@@W4Fl_Cursor@@@Z$0 00483750 f   fltk:fl_cursor.obj
 0001:00082758       __unwindfunclet$?fallback_cursor@@YAXPAVFl_Window@@W4Fl_Cursor@@@Z$1 00483758 f   fltk:fl_cursor.obj
 0001:00082760       __ehhandler$?fallback_cursor@@YAXPAVFl_Window@@W4Fl_Cursor@@@Z 00483760 f   fltk:fl_cursor.obj
 0001:00082780       __unwindfunclet$??0Fl_Browser_@@IAE@HHHHPBD@Z$0 00483780 f   fltk:Fl_Browser_.obj
 0001:00082788       __unwindfunclet$??0Fl_Browser_@@IAE@HHHHPBD@Z$1 00483788 f   fltk:Fl_Browser_.obj
 0001:00082796       __unwindfunclet$??0Fl_Browser_@@IAE@HHHHPBD@Z$2 00483796 f   fltk:Fl_Browser_.obj
 0001:000827a4       __ehhandler$??0Fl_Browser_@@IAE@HHHHPBD@Z 004837a4 f   fltk:Fl_Browser_.obj
 0001:000827bf       __unwindfunclet$?handle@Fl_Browser_@@UAEHH@Z$2 004837bf f   fltk:Fl_Browser_.obj
 0001:000827c7       __ehhandler$?handle@Fl_Browser_@@UAEHH@Z 004837c7 f   fltk:Fl_Browser_.obj
 0001:000827e5       __unwindfunclet$?select_only@Fl_Browser_@@QAEHPAXH@Z$0 004837e5 f   fltk:Fl_Browser_.obj
 0001:000827ed       __ehhandler$?select_only@Fl_Browser_@@QAEHPAXH@Z 004837ed f   fltk:Fl_Browser_.obj
 0001:00082810       __ehhandler$??1Fl_Browser@@UAE@XZ 00483810 f   fltk:Fl_File_Browser.obj
 0001:00082830       __unwindfunclet$?handle@Fl_File_Input@@UAEHH@Z$0 00483830 f   fltk:Fl_File_Input.obj
 0001:00082838       __ehhandler$?handle@Fl_File_Input@@UAEHH@Z 00483838 f   fltk:Fl_File_Input.obj
 0001:00082860       __unwindfunclet$??0Fl_Shared_Image@@IAE@PBDPAVFl_Image@@@Z$0 00483860 f   fltk:Fl_Shared_Image.obj
 0001:00082868       __ehhandler$??0Fl_Shared_Image@@IAE@PBDPAVFl_Image@@@Z 00483868 f   fltk:Fl_Shared_Image.obj
 0001:00082883       __unwindfunclet$?reload@Fl_Shared_Image@@QAEXXZ$0 00483883 f   fltk:Fl_Shared_Image.obj
 0001:00082892       __unwindfunclet$?reload@Fl_Shared_Image@@QAEXXZ$1 00483892 f   fltk:Fl_Shared_Image.obj
 0001:000828a1       __ehhandler$?reload@Fl_Shared_Image@@QAEXXZ 004838a1 f   fltk:Fl_Shared_Image.obj
 0001:000828c9       __unwindfunclet$?copy@Fl_Shared_Image@@UAEPAVFl_Image@@HH@Z$0 004838c9 f   fltk:Fl_Shared_Image.obj
 0001:000828d8       __ehhandler$?copy@Fl_Shared_Image@@UAEPAVFl_Image@@HH@Z 004838d8 f   fltk:Fl_Shared_Image.obj
 0001:000828f3       __unwindfunclet$?find@Fl_Shared_Image@@SAPAV1@PBDHH@Z$0 004838f3 f   fltk:Fl_Shared_Image.obj
 0001:00082902       __ehhandler$?find@Fl_Shared_Image@@SAPAV1@PBDHH@Z 00483902 f   fltk:Fl_Shared_Image.obj
 0001:0008291d       __unwindfunclet$?get@Fl_Shared_Image@@SAPAV1@PBDHH@Z$0 0048391d f   fltk:Fl_Shared_Image.obj
 0001:0008292c       __ehhandler$?get@Fl_Shared_Image@@SAPAV1@PBDHH@Z 0048392c f   fltk:Fl_Shared_Image.obj
 0001:00082950       __ehhandler$??1Fl_Scrollbar@@UAE@XZ 00483950 f   fltk:Fl_Scrollbar.obj
 0001:00082970       __unwindfunclet$??0Fl_XBM_Image@@QAE@PBD@Z$0 00483970 f   fltk:Fl_XBM_Image.obj
 0001:0008297b       __ehhandler$??0Fl_XBM_Image@@QAE@PBD@Z 0048397b f   fltk:Fl_XBM_Image.obj
 0001:000829b0       __unwindfunclet$??0Fl_XPM_Image@@QAE@PBD@Z$4 004839b0 f   fltk:Fl_XPM_Image.obj
 0001:000829bb       __ehhandler$??0Fl_XPM_Image@@QAE@PBD@Z 004839bb f   fltk:Fl_XPM_Image.obj
 0001:000829f0       __ehhandler$??1Fl_Gl_Window@@UAE@XZ 004839f0 f   fltkgl:Fl_Gl_Window.obj
 0001:00082a0b       __ehhandler$??1_Fac_node@std@@QAE@XZ 00483a0b f   msvcprt:locale0_implib.obj
 0001:00082a90       ??__Fclass_name_list@?1??make@Fl_X@@SAPAV1@PAVFl_Window@@@Z@YAXXZ 00483a90 f   fltk:Fl.obj
 0001:00082aa0       ??__Ffl_gdi_display@@YAXXZ 00483aa0 f   fltk:Fl.obj
 0001:00082ac0       ??__Ffl_gdi_driver@@YAXXZ  00483ac0 f   fltk:Fl.obj
 0001:00082b00       ??__Fwin32_at_exit@@YAXXZ  00483b00 f   fltk:Fl.obj
 0001:00082b10       ??__Ftile@@YAXXZ           00483b10 f   fltk:Fl_get_system_colors.obj
 0001:00082b20       ??__FflDropTarget@@YAXXZ   00483b20 f   fltk:fl_dnd.obj
 0001:00082b30       ??__Fimage_new@@YAXXZ      00483b30 f   fltk:Fl_File_Chooser.obj
 0001:00082b40       ??__F?prefs_@Fl_File_Chooser@@0VFl_Preferences@@A@@YAXXZ 00483b40 f   fltk:Fl_File_Chooser2.obj
 0001:00082b50       ??__FGl_Device_Plugin@@YAXXZ 00483b50 f   fltkgl:Fl_Gl_Device_Plugin.obj
 0001:00082b5f       ??__F_Fac_tidy_reg@std@@YAXXZ 00483b5f f   msvcprt:locale0_implib.obj
 0002:00000768       ?pre_cpp_initializer@@3P6AXXZA 00484768     MSVCRT:exe_winmain.obj
 0002:0000076c       ?_Fac_tidy_reg$initializer$@std@@3P6AXXZA 0048476c     msvcprt:locale0_implib.obj
 0002:00000770       ?fl_gdi_driver$initializer$@@3P6AXXZA 00484770     fltk:Fl.obj
 0002:00000774       ?fl_gdi_display$initializer$@@3P6AXXZA 00484774     fltk:Fl.obj
 0002:00000778       ?win32_at_exit$initializer$@@3P6AXXZA 00484778     fltk:Fl.obj
 0002:0000077c       ?fl_display$initializer$@@3P6AXXZA 0048477c     fltk:Fl.obj
 0002:00000780       ?current_label$initializer$@@3P6AXXZA 00484780     fltk:fl_file_dir.obj
 0002:00000784       ??color_$initializer$@Fl_Tooltip@@0P6AXXZA@@3P6AXXZA 00484784     fltk:Fl_Tooltip.obj
 0002:00000788       ?tile$initializer$@@3P6AXXZA 00484788     fltk:Fl_get_system_colors.obj
 0002:0000078c       ?flDropTarget$initializer$@@3P6AXXZA 0048478c     fltk:fl_dnd.obj
 0002:00000790       ?image_new$initializer$@@3P6AXXZA 00484790     fltk:Fl_File_Chooser.obj
 0002:00000794       ??prefs_$initializer$@Fl_File_Chooser@@0P6AXXZA@@3P6AXXZA 00484794     fltk:Fl_File_Chooser2.obj
 0002:00000798       ?Gl_Device_Plugin$initializer$@@3P6AXXZA 00484798     fltkgl:Fl_Gl_Device_Plugin.obj
 0002:000007a4       ?pre_c_initializer@@3P6AHXZA 004847a4     MSVCRT:exe_winmain.obj
 0002:000007a8       ?post_pgo_initializer@@3P6AHXZA 004847a8     MSVCRT:exe_winmain.obj
 0002:000007ac       ?__scrt_initialize_tss_var@@3P6AHXZA 004847ac     MSVCRT:thread_safe_statics.obj
 0002:00000b3c       ??_7?$_CancellationTokenCallback@V<lambda_3b8ab8d2629adf61a42ee3fe177a046b>@@@details@Concurrency@@6B@ 00484b3c     TraceUI.obj
 0002:00000e40       ??_7?$_Func_impl@V<lambda_5e5ab22ea98f4361dbf159481d01f54d>@@V?$allocator@H@std@@X$$V@std@@6B@ 00484e40     TraceUI.obj
 0002:00000e5c       ??_7?$_Func_impl@V<lambda_7c33b2c4310ad8c6be497d7a2a561bb8>@@V?$allocator@H@std@@X$$V@std@@6B@ 00484e5c     TraceUI.obj
 0002:00000e78       ??_7?$_Func_impl@V<lambda_cab26a778e4185933e9c5b0cfaedfe5e>@@V?$allocator@H@std@@E$$V@std@@6B@ 00484e78     TraceUI.obj
 0002:00000e94       ??_7?$_Func_impl@V<lambda_0456396a71e3abd88ede77bdd2823d8e>@@V?$allocator@H@std@@X$$V@std@@6B@ 00484e94     TraceUI.obj
 0002:00000ecc       ??_7?$_PPLTaskHandle@EU?$_InitialTaskHandle@XV<lambda_855a1ef4dbee54ab7f2f1e055b9bdfad>@@U_TypeSelectorNoAsync@details@Concurrency@@@?$task@E@Concurrency@@U_TaskProcHandle@details@3@@details@Concurrency@@6B@ 00484ecc     TraceUI.obj
 0002:00000ed8       ??_7?$_InitialTaskHandle@XV<lambda_855a1ef4dbee54ab7f2f1e055b9bdfad>@@U_TypeSelectorNoAsync@details@Concurrency@@@?$task@E@Concurrency@@6B@ 00484ed8     TraceUI.obj
 0002:00000ee4       ??_7?$_PPLTaskHandle@EU?$_InitialTaskHandle@XV<lambda_0ebde0502725cf61f7686a2917d1749f>@@U_TypeSelectorNoAsync@details@Concurrency@@@?$task@E@Concurrency@@U_TaskProcHandle@details@3@@details@Concurrency@@6B@ 00484ee4     TraceUI.obj
 0002:00000ef0       ??_7?$_InitialTaskHandle@XV<lambda_0ebde0502725cf61f7686a2917d1749f>@@U_TypeSelectorNoAsync@details@Concurrency@@@?$task@E@Concurrency@@6B@ 00484ef0     TraceUI.obj
 0002:00000f18       ??_7?$_PPLTaskHandle@EU?$_InitialTaskHandle@XV<lambda_042c6af70ca74ab46830ae50c8c14c9e>@@U_TypeSelectorNoAsync@details@Concurrency@@@?$task@E@Concurrency@@U_TaskProcHandle@details@3@@details@Concurrency@@6B@ 00484f18     TraceUI.obj
 0002:00000f24       ??_7?$_InitialTaskHandle@XV<lambda_042c6af70ca74ab46830ae50c8c14c9e>@@U_TypeSelectorNoAsync@details@Concurrency@@@?$task@E@Concurrency@@6B@ 00484f24     TraceUI.obj
 0002:00000f30       ??_7?$_PPLTaskHandle@EU?$_InitialTaskHandle@XV<lambda_483208dc91e150c0c9b495b53fd62158>@@U_TypeSelectorNoAsync@details@Concurrency@@@?$task@E@Concurrency@@U_TaskProcHandle@details@3@@details@Concurrency@@6B@ 00484f30     TraceUI.obj
 0002:00000f3c       ??_7?$_InitialTaskHandle@XV<lambda_483208dc91e150c0c9b495b53fd62158>@@U_TypeSelectorNoAsync@details@Concurrency@@@?$task@E@Concurrency@@6B@ 00484f3c     TraceUI.obj
 0002:00000f48       ??_7?$_Func_impl@V<lambda_855a1ef4dbee54ab7f2f1e055b9bdfad>@@V?$allocator@H@std@@X$$V@std@@6B@ 00484f48     TraceUI.obj
 0002:00000f64       ??_7?$_Func_impl@V<lambda_0ebde0502725cf61f7686a2917d1749f>@@V?$allocator@H@std@@X$$V@std@@6B@ 00484f64     TraceUI.obj
 0002:00000f80       ??_7?$_Func_impl@V<lambda_042c6af70ca74ab46830ae50c8c14c9e>@@V?$allocator@H@std@@X$$V@std@@6B@ 00484f80     TraceUI.obj
 0002:00000f9c       ??_7?$_Func_impl@V<lambda_483208dc91e150c0c9b495b53fd62158>@@V?$allocator@H@std@@X$$V@std@@6B@ 00484f9c     TraceUI.obj
 0002:00001017       ?piecewise_construct@std@@3Upiecewise_construct_t@1@B 00485017     parse.obj
 0002:000012e0       ?piecewise_construct@std@@3Upiecewise_construct_t@1@B 004852e0     read.obj
 0002:00001a58       $SG64698                   00485a58     fltk:Fl.obj
 0002:00001a63       $SG65886                   00485a63     fltk:Fl.obj
 0002:00001a64       $SG64700                   00485a64     fltk:Fl.obj
 0002:00001a6f       $SG65888                   00485a6f     fltk:Fl.obj
 0002:00001a70       $SG64701                   00485a70     fltk:Fl.obj
 0002:00001ac1       $SG66049                   00485ac1     fltk:Fl.obj
 0002:00001ac2       $SG65232                   00485ac2     fltk:Fl.obj
 0002:00001ac3       $SG57316                   00485ac3     fltk:Fl.obj
 0002:00001ac4       $SG64702                   00485ac4     fltk:Fl.obj
 0002:00001acb       $SG57317                   00485acb     fltk:Fl.obj
 0002:00001acc       $SG64703                   00485acc     fltk:Fl.obj
 0002:00001adc       $SG64727                   00485adc     fltk:Fl.obj
 0002:00001ae8       $SG64729                   00485ae8     fltk:Fl.obj
 0002:00001b54       $SG64730                   00485b54     fltk:Fl.obj
 0002:00001b6c       $SG64731                   00485b6c     fltk:Fl.obj
 0002:00001b7c       $SG64732                   00485b7c     fltk:Fl.obj
 0002:00001b94       $SG64733                   00485b94     fltk:Fl.obj
 0002:00001ba8       $SG65808                   00485ba8     fltk:Fl.obj
 0002:00001bb0       $SG65812                   00485bb0     fltk:Fl.obj
 0002:00001bd8       $SG65885                   00485bd8     fltk:Fl.obj
 0002:00001be8       $SG65258                   00485be8     fltk:Fl.obj
 0002:00001c08       $SG65259                   00485c08     fltk:Fl.obj
 0002:00001c10       ?vktab@@3QBU<unnamed-type-vktab>@@B 00485c10     fltk:Fl.obj
 0002:00001d78       $SG66442                   00485d78     fltk:Fl.obj
 0002:00001d80       $SG66443                   00485d80     fltk:Fl.obj
 0002:00001d8c       $SG66444                   00485d8c     fltk:Fl.obj
 0002:00001d94       $SG66445                   00485d94     fltk:Fl.obj
 0002:00001da0       $SG66446                   00485da0     fltk:Fl.obj
 0002:00001db0       $SG66447                   00485db0     fltk:Fl.obj
 0002:00001db8       $SG66448                   00485db8     fltk:Fl.obj
 0002:00001dc8       $SG66449                   00485dc8     fltk:Fl.obj
 0002:00001dd4       $SG66450                   00485dd4     fltk:Fl.obj
 0002:00001ddc       $SG66451                   00485ddc     fltk:Fl.obj
 0002:00001de8       $SG66452                   00485de8     fltk:Fl.obj
 0002:00001df0       $SG66453                   00485df0     fltk:Fl.obj
 0002:00001dfc       $SG66455                   00485dfc     fltk:Fl.obj
 0002:00001e0c       $SG66457                   00485e0c     fltk:Fl.obj
 0002:00001e14       $SG66459                   00485e14     fltk:Fl.obj
 0002:00001e24       $SG66461                   00485e24     fltk:Fl.obj
 0002:00001e30       $SG65467                   00485e30     fltk:Fl.obj
 0002:00001e40       $SG57320                   00485e40     fltk:Fl.obj
 0002:00001e4c       $SG57321                   00485e4c     fltk:Fl.obj
 0002:000020b8       $SG44708                   004860b8     fltk:fl_ask.obj
 0002:000020bc       $SG44819                   004860bc     fltk:fl_ask.obj
 0002:000020c0       $SG44836                   004860c0     fltk:fl_ask.obj
 0002:000020c4       $SG44837                   004860c4     fltk:fl_ask.obj
 0002:000020c8       $SG44838                   004860c8     fltk:fl_ask.obj
 0002:000020cc       $SG44839                   004860cc     fltk:fl_ask.obj
 0002:000020d4       $SG44840                   004860d4     fltk:fl_ask.obj
 0002:000020dc       $SG44869                   004860dc     fltk:fl_ask.obj
 0002:000020e0       $SG44870                   004860e0     fltk:fl_ask.obj
 0002:000020e4       $SG44886                   004860e4     fltk:fl_ask.obj
 0002:000020e8       $SG44887                   004860e8     fltk:fl_ask.obj
 0002:000020ec       $SG42229                   004860ec     fltk:Fl_Window.obj
 0002:00002120       $SG45894                   00486120     fltk:Fl_Group.obj
 0002:00002128       $SG45895                   00486128     fltk:Fl_Group.obj
 0002:00002130       $SG45896                   00486130     fltk:Fl_Group.obj
 0002:00002134       $SG45897                   00486134     fltk:Fl_Group.obj
 0002:000021e0       $SG10044                   004861e0     fltk:Fl_Menu_.obj
 0002:000021e2       $SG10099                   004861e2     fltk:Fl_Menu_.obj
 0002:000021e4       $SG10047                   004861e4     fltk:Fl_Menu_.obj
 0002:000021e8       $SG10055                   004861e8     fltk:Fl_Menu_.obj
 0002:000021ec       $SG10058                   004861ec     fltk:Fl_Menu_.obj
 0002:000021f0       $SG10103                   004861f0     fltk:Fl_Menu_.obj
 0002:000021f4       $SG10109                   004861f4     fltk:Fl_Menu_.obj
 0002:00002248       $SG10582                   00486248     fltk:Fl_Valuator.obj
 0002:0000224c       $SG10583                   0048624c     fltk:Fl_Valuator.obj
 0002:00002254       $SG10586                   00486254     fltk:Fl_Valuator.obj
 0002:00002378       $SG44342                   00486378     fltk:Fl_Light_Button.obj
 0002:00002380       $SG44348                   00486380     fltk:Fl_Light_Button.obj
 0002:00002388       $SG44354                   00486388     fltk:Fl_Light_Button.obj
 0002:00002390       $SG44359                   00486390     fltk:Fl_Light_Button.obj
 0002:00002408       $SG44708                   00486408     fltk:fl_file_dir.obj
 0002:0000240a       $SG44727                   0048640a     fltk:fl_file_dir.obj
 0002:0000240c       $SG44750                   0048640c     fltk:fl_file_dir.obj
 0002:00002410       $SG44752                   00486410     fltk:fl_file_dir.obj
 0002:00002414       $SG44753                   00486414     fltk:fl_file_dir.obj
 0002:00002418       ?combining@?1??mk_wcwidth@@9@9 00486418     fltk:fl_utf.obj
 0002:00002888       $SG42141                   00486888     fltk:screen_xywh.obj
 0002:00002894       $SG42143                   00486894     fltk:screen_xywh.obj
 0002:000028a8       $SG42145                   004868a8     fltk:screen_xywh.obj
 0002:0000291c       $SG46037                   0048691c     fltk:Fl_Double_Window.obj
 0002:00002928       $SG46039                   00486928     fltk:Fl_Double_Window.obj
 0002:00002990       $SG45139                   00486990     fltk:Fl_Preferences.obj
 0002:00002993       $SG45431                   00486993     fltk:Fl_Preferences.obj
 0002:00002994       $SG45243                   00486994     fltk:Fl_Preferences.obj
 0002:000029a0       $SG45215                   004869a0     fltk:Fl_Preferences.obj
 0002:00002a22       $SG45679                   00486a22     fltk:Fl_Preferences.obj
 0002:00002a23       $SG45693                   00486a23     fltk:Fl_Preferences.obj
 0002:00002a24       $SG45217                   00486a24     fltk:Fl_Preferences.obj
 0002:00002a42       $SG45040                   00486a42     fltk:Fl_Preferences.obj
 0002:00002a48       $SG45220                   00486a48     fltk:Fl_Preferences.obj
 0002:00002acc       $SG45222                   00486acc     fltk:Fl_Preferences.obj
 0002:00002adc       $SG45226                   00486adc     fltk:Fl_Preferences.obj
 0002:00002ae4       $SG45227                   00486ae4     fltk:Fl_Preferences.obj
 0002:00002af4       $SG45239                   00486af4     fltk:Fl_Preferences.obj
 0002:00002afc       $SG45242                   00486afc     fltk:Fl_Preferences.obj
 0002:00002b04       $SG45277                   00486b04     fltk:Fl_Preferences.obj
 0002:00002b08       $SG45285                   00486b08     fltk:Fl_Preferences.obj
 0002:00002b0c       $SG45288                   00486b0c     fltk:Fl_Preferences.obj
 0002:00002b10       $SG45290                   00486b10     fltk:Fl_Preferences.obj
 0002:00002b14       $SG45297                   00486b14     fltk:Fl_Preferences.obj
 0002:00002b18       $SG45299                   00486b18     fltk:Fl_Preferences.obj
 0002:00002b3c       $SG45300                   00486b3c     fltk:Fl_Preferences.obj
 0002:00002b4c       $SG45301                   00486b4c     fltk:Fl_Preferences.obj
 0002:00002b60       $SG45315                   00486b60     fltk:Fl_Preferences.obj
 0002:00002b64       $SG45373                   00486b64     fltk:Fl_Preferences.obj
 0002:00002b6c       $SG45376                   00486b6c     fltk:Fl_Preferences.obj
 0002:00002b70       $SG45378                   00486b70     fltk:Fl_Preferences.obj
 0002:00002b74       $SG45380                   00486b74     fltk:Fl_Preferences.obj
 0002:00002b78       $SG45386                   00486b78     fltk:Fl_Preferences.obj
 0002:00002b80       $SG45401                   00486b80     fltk:Fl_Preferences.obj
 0002:00002b88       $SG45605                   00486b88     fltk:Fl_Preferences.obj
 0002:00002b90       $SG45606                   00486b90     fltk:Fl_Preferences.obj
 0002:00002b98       $SG45680                   00486b98     fltk:Fl_Preferences.obj
 0002:00002ba0       $SG45694                   00486ba0     fltk:Fl_Preferences.obj
 0002:00002ba8       $SG45704                   00486ba8     fltk:Fl_Preferences.obj
 0002:00002bb0       $SG45727                   00486bb0     fltk:Fl_Preferences.obj
 0002:00002bb8       $SG44762                   00486bb8     fltk:Fl_Preferences.obj
 0002:00002bc4       $SG44764                   00486bc4     fltk:Fl_Preferences.obj
 0002:00002bd0       $SG44768                   00486bd0     fltk:Fl_Preferences.obj
 0002:00002c04       $SG44786                   00486c04     fltk:Fl_Preferences.obj
 0002:00002c08       $SG44770                   00486c08     fltk:Fl_Preferences.obj
 0002:00002c50       $SG44803                   00486c50     fltk:Fl_Preferences.obj
 0002:00002c54       $SG44831                   00486c54     fltk:Fl_Preferences.obj
 0002:00002c58       $SG44928                   00486c58     fltk:Fl_Preferences.obj
 0002:00002c5c       $SG44942                   00486c5c     fltk:Fl_Preferences.obj
 0002:00002c60       $SG44949                   00486c60     fltk:Fl_Preferences.obj
 0002:00002c68       $SG44962                   00486c68     fltk:Fl_Preferences.obj
 0002:00002c6c       $SG44969                   00486c6c     fltk:Fl_Preferences.obj
 0002:00002c90       $SG43581                   00486c90     fltk:Fl_Device.obj
 0002:00002c9c       $SG43582                   00486c9c     fltk:Fl_Device.obj
 0002:00002cb0       $SG43583                   00486cb0     fltk:Fl_Device.obj
 0002:00002cc4       $SG43584                   00486cc4     fltk:Fl_Device.obj
 0002:00002cd8       $SG43585                   00486cd8     fltk:Fl_Device.obj
 0002:00002cf0       $SG43586                   00486cf0     fltk:Fl_Device.obj
 0002:00002d50       $SG46024                   00486d50     fltk:fl_rect.obj
 0002:00002d74       $SG46030                   00486d74     fltk:fl_rect.obj
 0002:00002d9c       $SG46038                   00486d9c     fltk:fl_rect.obj
 0002:00002dc0       $SG45911                   00486dc0     fltk:fl_line_style.obj
 0002:00002df4       $SG45160                   00486df4     fltk:fl_vertex.obj
 0002:00002e20       $SG45166                   00486e20     fltk:fl_vertex.obj
 0002:00002e80       $SG41251                   00486e80     fltk:fl_font.obj
 0002:00002e88       $SG41252                   00486e88     fltk:fl_font.obj
 0002:00002e90       $SG41253                   00486e90     fltk:fl_font.obj
 0002:00002e98       $SG41254                   00486e98     fltk:fl_font.obj
 0002:00002ea0       $SG41255                   00486ea0     fltk:fl_font.obj
 0002:00002eb0       $SG41256                   00486eb0     fltk:fl_font.obj
 0002:00002ec0       $SG41257                   00486ec0     fltk:fl_font.obj
 0002:00002ed0       $SG41258                   00486ed0     fltk:fl_font.obj
 0002:00002ee0       $SG41259                   00486ee0     fltk:fl_font.obj
 0002:00002ef4       $SG41260                   00486ef4     fltk:fl_font.obj
 0002:00002f08       $SG41261                   00486f08     fltk:fl_font.obj
 0002:00002f1c       $SG41262                   00486f1c     fltk:fl_font.obj
 0002:00002f30       $SG41263                   00486f30     fltk:fl_font.obj
 0002:00002f38       $SG41264                   00486f38     fltk:fl_font.obj
 0002:00002f44       $SG41265                   00486f44     fltk:fl_font.obj
 0002:00002f50       $SG41266                   00486f50     fltk:fl_font.obj
 0002:00002f60       $SG41358                   00486f60     fltk:fl_font.obj
 0002:00002fac       $SG41372                   00486fac     fltk:fl_font.obj
 0002:00002fb8       $SG41374                   00486fb8     fltk:fl_font.obj
 0002:00002fcc       ?matrix@?1??text_extents@Fl_GDI_Graphics_Driver@@UAEXPBDHAAH111@Z@4U_MAT2@@B 00486fcc     fltk:fl_font.obj
 0002:00002fdc       $SG46288                   00486fdc     fltk:Fl_Pixmap.obj
 0002:00002fe8       $SG46290                   00486fe8     fltk:Fl_Pixmap.obj
 0002:00002ff8       $SG46341                   00486ff8     fltk:Fl_Pixmap.obj
 0002:00003004       $SG46408                   00487004     fltk:Fl_Pixmap.obj
 0002:00003010       $SG46409                   00487010     fltk:Fl_Pixmap.obj
 0002:0000301c       $SG46465                   0048701c     fltk:Fl_Pixmap.obj
 0002:00003028       $SG46473                   00487028     fltk:Fl_Pixmap.obj
 0002:00003040       $SG46474                   00487040     fltk:Fl_Pixmap.obj
 0002:00003054       $SG46494                   00487054     fltk:Fl_Pixmap.obj
 0002:0000305c       $SG46537                   0048705c     fltk:Fl_Pixmap.obj
 0002:00003068       $SG46545                   00487068     fltk:Fl_Pixmap.obj
 0002:00003080       $SG46546                   00487080     fltk:Fl_Pixmap.obj
 0002:000030b8       $SG46225                   004870b8     fltk:Fl_Bitmap.obj
 0002:000030c0       $SG46368                   004870c0     fltk:Fl_Bitmap.obj
 0002:000030cc       $SG46370                   004870cc     fltk:Fl_Bitmap.obj
 0002:00003100       ?tile_xpm@@3QBQBDB         00487100     fltk:Fl_get_system_colors.obj
 0002:00003210       $SG45223                   00487210     fltk:Fl_get_system_colors.obj
 0002:00003220       $SG45224                   00487220     fltk:Fl_get_system_colors.obj
 0002:00003264       $SG45355                   00487264     fltk:Fl_get_system_colors.obj
 0002:00003270       $SG45225                   00487270     fltk:Fl_get_system_colors.obj
 0002:000032b4       $SG45357                   004872b4     fltk:Fl_get_system_colors.obj
 0002:000032c0       $SG45226                   004872c0     fltk:Fl_get_system_colors.obj
 0002:00003304       $SG45359                   00487304     fltk:Fl_get_system_colors.obj
 0002:00003310       $SG45227                   00487310     fltk:Fl_get_system_colors.obj
 0002:00003354       $SG45361                   00487354     fltk:Fl_get_system_colors.obj
 0002:00003360       $SG45228                   00487360     fltk:Fl_get_system_colors.obj
 0002:000033a4       $SG45383                   004873a4     fltk:Fl_get_system_colors.obj
 0002:000033b8       $SG45229                   004873b8     fltk:Fl_get_system_colors.obj
 0002:000033fc       $SG45490                   004873fc     fltk:Fl_get_system_colors.obj
 0002:00003408       $SG45230                   00487408     fltk:Fl_get_system_colors.obj
 0002:0000344c       $SG45503                   0048744c     fltk:Fl_get_system_colors.obj
 0002:00003454       $SG45576                   00487454     fltk:Fl_get_system_colors.obj
 0002:00003458       $SG45231                   00487458     fltk:Fl_get_system_colors.obj
 0002:0000349c       $SG45504                   0048749c     fltk:Fl_get_system_colors.obj
 0002:000034a4       $SG45577                   004874a4     fltk:Fl_get_system_colors.obj
 0002:000034b8       $SG45232                   004874b8     fltk:Fl_get_system_colors.obj
 0002:000034fc       $SG45507                   004874fc     fltk:Fl_get_system_colors.obj
 0002:00003504       $SG45572                   00487504     fltk:Fl_get_system_colors.obj
 0002:00003510       $SG45233                   00487510     fltk:Fl_get_system_colors.obj
 0002:00003558       $SG45234                   00487558     fltk:Fl_get_system_colors.obj
 0002:000035a0       $SG45235                   004875a0     fltk:Fl_get_system_colors.obj
 0002:000035e8       $SG45236                   004875e8     fltk:Fl_get_system_colors.obj
 0002:00003630       $SG45237                   00487630     fltk:Fl_get_system_colors.obj
 0002:00003678       $SG45238                   00487678     fltk:Fl_get_system_colors.obj
 0002:000036c0       $SG45239                   004876c0     fltk:Fl_get_system_colors.obj
 0002:00003708       $SG45240                   00487708     fltk:Fl_get_system_colors.obj
 0002:00003750       $SG45241                   00487750     fltk:Fl_get_system_colors.obj
 0002:00003798       $SG45242                   00487798     fltk:Fl_get_system_colors.obj
 0002:000037e0       $SG45243                   004877e0     fltk:Fl_get_system_colors.obj
 0002:00003828       $SG45244                   00487828     fltk:Fl_get_system_colors.obj
 0002:00003870       $SG45245                   00487870     fltk:Fl_get_system_colors.obj
 0002:000038b8       $SG45246                   004878b8     fltk:Fl_get_system_colors.obj
 0002:00003900       $SG45247                   00487900     fltk:Fl_get_system_colors.obj
 0002:00003948       $SG45248                   00487948     fltk:Fl_get_system_colors.obj
 0002:00003990       $SG45249                   00487990     fltk:Fl_get_system_colors.obj
 0002:000039d8       $SG45250                   004879d8     fltk:Fl_get_system_colors.obj
 0002:00003a20       $SG45251                   00487a20     fltk:Fl_get_system_colors.obj
 0002:00003a68       $SG45252                   00487a68     fltk:Fl_get_system_colors.obj
 0002:00003ab0       $SG45253                   00487ab0     fltk:Fl_get_system_colors.obj
 0002:00003af8       $SG45254                   00487af8     fltk:Fl_get_system_colors.obj
 0002:00003b40       $SG45255                   00487b40     fltk:Fl_get_system_colors.obj
 0002:00003b88       $SG45256                   00487b88     fltk:Fl_get_system_colors.obj
 0002:00003bd0       $SG45257                   00487bd0     fltk:Fl_get_system_colors.obj
 0002:00003c18       $SG45258                   00487c18     fltk:Fl_get_system_colors.obj
 0002:00003c60       $SG45259                   00487c60     fltk:Fl_get_system_colors.obj
 0002:00003ca8       $SG45260                   00487ca8     fltk:Fl_get_system_colors.obj
 0002:00003cf0       $SG45261                   00487cf0     fltk:Fl_get_system_colors.obj
 0002:00003d38       $SG45262                   00487d38     fltk:Fl_get_system_colors.obj
 0002:00003d80       $SG45263                   00487d80     fltk:Fl_get_system_colors.obj
 0002:00003dc8       $SG45264                   00487dc8     fltk:Fl_get_system_colors.obj
 0002:00003e10       $SG45265                   00487e10     fltk:Fl_get_system_colors.obj
 0002:00003e58       $SG45266                   00487e58     fltk:Fl_get_system_colors.obj
 0002:00003ea0       $SG45267                   00487ea0     fltk:Fl_get_system_colors.obj
 0002:00003ee8       $SG45268                   00487ee8     fltk:Fl_get_system_colors.obj
 0002:00003f30       $SG45269                   00487f30     fltk:Fl_get_system_colors.obj
 0002:00003f78       $SG45270                   00487f78     fltk:Fl_get_system_colors.obj
 0002:00003fc0       $SG45271                   00487fc0     fltk:Fl_get_system_colors.obj
 0002:00004008       $SG45272                   00488008     fltk:Fl_get_system_colors.obj
 0002:00004050       $SG45273                   00488050     fltk:Fl_get_system_colors.obj
 0002:00004098       $SG45274                   00488098     fltk:Fl_get_system_colors.obj
 0002:000040e0       $SG45275                   004880e0     fltk:Fl_get_system_colors.obj
 0002:00004128       $SG45276                   00488128     fltk:Fl_get_system_colors.obj
 0002:00004170       $SG45277                   00488170     fltk:Fl_get_system_colors.obj
 0002:000041b8       $SG45278                   004881b8     fltk:Fl_get_system_colors.obj
 0002:00004200       $SG45279                   00488200     fltk:Fl_get_system_colors.obj
 0002:00004248       $SG45280                   00488248     fltk:Fl_get_system_colors.obj
 0002:00004290       $SG45281                   00488290     fltk:Fl_get_system_colors.obj
 0002:000042d8       $SG45282                   004882d8     fltk:Fl_get_system_colors.obj
 0002:00004320       $SG45283                   00488320     fltk:Fl_get_system_colors.obj
 0002:00004368       $SG45284                   00488368     fltk:Fl_get_system_colors.obj
 0002:000043b0       $SG45285                   004883b0     fltk:Fl_get_system_colors.obj
 0002:000043f8       $SG45286                   004883f8     fltk:Fl_get_system_colors.obj
 0002:00004440       $SG45287                   00488440     fltk:Fl_get_system_colors.obj
 0002:00004484       $SG45495                   00488484     fltk:Fl_get_system_colors.obj
 0002:0000448c       $SG45496                   0048848c     fltk:Fl_get_system_colors.obj
 0002:00004494       $SG45499                   00488494     fltk:Fl_get_system_colors.obj
 0002:0000449c       $SG45500                   0048849c     fltk:Fl_get_system_colors.obj
 0002:000044a4       $SG45508                   004884a4     fltk:Fl_get_system_colors.obj
 0002:000044ac       $SG45510                   004884ac     fltk:Fl_get_system_colors.obj
 0002:000044bc       $SG45582                   004884bc     fltk:Fl_get_system_colors.obj
 0002:000044c4       $SG45586                   004884c4     fltk:Fl_get_system_colors.obj
 0002:000044e0       $SG40782                   004884e0     fltk:Fl_abort.obj
 0002:000044e8       $SG40798                   004884e8     fltk:Fl_abort.obj
 0002:00004568       $SG41874                   00488568     fltk:fl_utf8.obj
 0002:00004569       $SG41891                   00488569     fltk:fl_utf8.obj
 0002:0000456c       $SG44291                   0048856c     fltk:fl_shortcut.obj
 0002:00004574       $SG44292                   00488574     fltk:fl_shortcut.obj
 0002:00004580       $SG44293                   00488580     fltk:fl_shortcut.obj
 0002:00004584       $SG44294                   00488584     fltk:fl_shortcut.obj
 0002:0000458c       $SG44295                   0048858c     fltk:fl_shortcut.obj
 0002:00004594       $SG44296                   00488594     fltk:fl_shortcut.obj
 0002:0000459c       $SG44297                   0048859c     fltk:fl_shortcut.obj
 0002:000045a8       $SG44298                   004885a8     fltk:fl_shortcut.obj
 0002:000045b0       $SG44299                   004885b0     fltk:fl_shortcut.obj
 0002:000045b8       $SG44300                   004885b8     fltk:fl_shortcut.obj
 0002:000045c0       $SG44301                   004885c0     fltk:fl_shortcut.obj
 0002:000045c4       $SG44302                   004885c4     fltk:fl_shortcut.obj
 0002:000045cc       $SG44303                   004885cc     fltk:fl_shortcut.obj
 0002:000045d4       $SG44304                   004885d4     fltk:fl_shortcut.obj
 0002:000045dc       $SG44305                   004885dc     fltk:fl_shortcut.obj
 0002:000045e8       $SG44306                   004885e8     fltk:fl_shortcut.obj
 0002:000045ec       $SG44307                   004885ec     fltk:fl_shortcut.obj
 0002:000045f4       $SG44308                   004885f4     fltk:fl_shortcut.obj
 0002:000045fc       $SG44309                   004885fc     fltk:fl_shortcut.obj
 0002:00004604       $SG44310                   00488604     fltk:fl_shortcut.obj
 0002:00004610       $SG44311                   00488610     fltk:fl_shortcut.obj
 0002:0000461c       $SG44312                   0048861c     fltk:fl_shortcut.obj
 0002:00004624       $SG44313                   00488624     fltk:fl_shortcut.obj
 0002:0000462c       $SG44314                   0048862c     fltk:fl_shortcut.obj
 0002:00004638       $SG44315                   00488638     fltk:fl_shortcut.obj
 0002:00004644       $SG44316                   00488644     fltk:fl_shortcut.obj
 0002:00004650       $SG44317                   00488650     fltk:fl_shortcut.obj
 0002:00004658       $SG44318                   00488658     fltk:fl_shortcut.obj
 0002:00004660       $SG44319                   00488660     fltk:fl_shortcut.obj
 0002:00004668       $SG44320                   00488668     fltk:fl_shortcut.obj
 0002:00004670       $SG44321                   00488670     fltk:fl_shortcut.obj
 0002:00004678       $SG44345                   00488678     fltk:fl_shortcut.obj
 0002:00004680       $SG44347                   00488680     fltk:fl_shortcut.obj
 0002:00004688       $SG44349                   00488688     fltk:fl_shortcut.obj
 0002:00004690       $SG44351                   00488690     fltk:fl_shortcut.obj
 0002:00004698       $SG44364                   00488698     fltk:fl_shortcut.obj
 0002:0000469c       $SG44373                   0048869c     fltk:fl_shortcut.obj
 0002:000046f0       $SG46112                   004886f0     fltk:Fl_Input_.obj
 0002:000046f1       $SG46069                   004886f1     fltk:Fl_Input_.obj
 0002:000046f4       $SG45674                   004886f4     fltk:Fl_Input_.obj
 0002:000046fc       $SG46044                   004886fc     fltk:Fl_Input_.obj
 0002:00004738       $SG44697                   00488738     fltk:Fl_Input.obj
 0002:00004740       $SG44915                   00488740     fltk:Fl_Input.obj
 0002:0000485c       $SG45334                   0048885c     fltk:fl_draw.obj
 0002:00004860       $SG45341                   00488860     fltk:fl_draw.obj
 0002:00004864       ?active_ramp@@3QBEB        00488864     fltk:fl_boxtype.obj
 0002:0000487c       ?inactive_ramp@@3QBEB      0048887c     fltk:fl_boxtype.obj
 0002:00004894       $SG44250                   00488894     fltk:fl_boxtype.obj
 0002:0000489c       $SG44265                   0048889c     fltk:fl_boxtype.obj
 0002:000048a4       $SG44280                   004888a4     fltk:fl_boxtype.obj
 0002:000048b0       $SG44295                   004888b0     fltk:fl_boxtype.obj
 0002:000048bc       $SG44310                   004888bc     fltk:fl_boxtype.obj
 0002:000048c8       $SG44325                   004888c8     fltk:fl_boxtype.obj
 0002:00004924       $SG44871                   00488924     fltk:Fl_Menu.obj
 0002:0000492c       $SG44877                   0048892c     fltk:Fl_Menu.obj
 0002:00004934       $SG44881                   00488934     fltk:Fl_Menu.obj
 0002:00004994       $SG45565                   00488994     fltk:Fl_Slider.obj
 0002:00004ac0       $SG8172                    00488ac0     fltk:filename_absolute.obj
 0002:00004ac4       $SG8183                    00488ac4     fltk:filename_absolute.obj
 0002:00004ac8       ?idata_new@@3QBEB          00488ac8     fltk:Fl_File_Chooser.obj
 0002:00004ae8       $SG46903                   00488ae8     fltk:Fl_File_Chooser.obj
 0002:00004af4       $SG46906                   00488af4     fltk:Fl_File_Chooser.obj
 0002:00004afc       $SG46908                   00488afc     fltk:Fl_File_Chooser.obj
 0002:00004b08       $SG46913                   00488b08     fltk:Fl_File_Chooser.obj
 0002:00004b0c       $SG46917                   00488b0c     fltk:Fl_File_Chooser.obj
 0002:00004b14       $SG46919                   00488b14     fltk:Fl_File_Chooser.obj
 0002:00004b28       $SG46923                   00488b28     fltk:Fl_File_Chooser.obj
 0002:00004b34       $SG46926                   00488b34     fltk:Fl_File_Chooser.obj
 0002:00004b38       $SG46928                   00488b38     fltk:Fl_File_Chooser.obj
 0002:00004b40       $SG46932                   00488b40     fltk:Fl_File_Chooser.obj
 0002:00004b54       $SG46936                   00488b54     fltk:Fl_File_Chooser.obj
 0002:00004b58       $SG46938                   00488b58     fltk:Fl_File_Chooser.obj
 0002:00004b5c       $SG46940                   00488b5c     fltk:Fl_File_Chooser.obj
 0002:00004b60       $SG46943                   00488b60     fltk:Fl_File_Chooser.obj
 0002:00004b68       $SG46945                   00488b68     fltk:Fl_File_Chooser.obj
 0002:00004b70       $SG46947                   00488b70     fltk:Fl_File_Chooser.obj
 0002:00004b78       $SG47147                   00488b78     fltk:Fl_File_Chooser2.obj
 0002:00004b84       $SG47148                   00488b84     fltk:Fl_File_Chooser2.obj
 0002:00004b8d       $SG47266                   00488b8d     fltk:Fl_File_Chooser2.obj
 0002:00004b8e       $SG47286                   00488b8e     fltk:Fl_File_Chooser2.obj
 0002:00004b8f       $SG47313                   00488b8f     fltk:Fl_File_Chooser2.obj
 0002:00004b90       $SG47175                   00488b90     fltk:Fl_File_Chooser2.obj
 0002:00004ba1       $SG47316                   00488ba1     fltk:Fl_File_Chooser2.obj
 0002:00004ba2       $SG47542                   00488ba2     fltk:Fl_File_Chooser2.obj
 0002:00004ba3       $SG47676                   00488ba3     fltk:Fl_File_Chooser2.obj
 0002:00004ba4       $SG47176                   00488ba4     fltk:Fl_File_Chooser2.obj
 0002:00004bb4       $SG47177                   00488bb4     fltk:Fl_File_Chooser2.obj
 0002:00004bc4       $SG47178                   00488bc4     fltk:Fl_File_Chooser2.obj
 0002:00004be4       $SG47179                   00488be4     fltk:Fl_File_Chooser2.obj
 0002:00004bf0       $SG47180                   00488bf0     fltk:Fl_File_Chooser2.obj
 0002:00004bfc       $SG47181                   00488bfc     fltk:Fl_File_Chooser2.obj
 0002:00004c08       $SG47182                   00488c08     fltk:Fl_File_Chooser2.obj
 0002:00004c1c       $SG47183                   00488c1c     fltk:Fl_File_Chooser2.obj
 0002:00004c2c       $SG47184                   00488c2c     fltk:Fl_File_Chooser2.obj
 0002:00004c44       $SG47185                   00488c44     fltk:Fl_File_Chooser2.obj
 0002:00004c4c       $SG47186                   00488c4c     fltk:Fl_File_Chooser2.obj
 0002:00004c54       $SG47187                   00488c54     fltk:Fl_File_Chooser2.obj
 0002:00004c5c       $SG47188                   00488c5c     fltk:Fl_File_Chooser2.obj
 0002:00004c70       $SG47232                   00488c70     fltk:Fl_File_Chooser2.obj
 0002:00004c74       $SG47242                   00488c74     fltk:Fl_File_Chooser2.obj
 0002:00004c78       $SG47246                   00488c78     fltk:Fl_File_Chooser2.obj
 0002:00004c7c       $SG47259                   00488c7c     fltk:Fl_File_Chooser2.obj
 0002:00004c84       $SG47260                   00488c84     fltk:Fl_File_Chooser2.obj
 0002:00004c94       $SG47285                   00488c94     fltk:Fl_File_Chooser2.obj
 0002:00004ca4       $SG47311                   00488ca4     fltk:Fl_File_Chooser2.obj
 0002:00004cb4       $SG47312                   00488cb4     fltk:Fl_File_Chooser2.obj
 0002:00004cc4       $SG47336                   00488cc4     fltk:Fl_File_Chooser2.obj
 0002:00004cc8       $SG47337                   00488cc8     fltk:Fl_File_Chooser2.obj
 0002:00004ccc       $SG47338                   00488ccc     fltk:Fl_File_Chooser2.obj
 0002:00004cd4       $SG47409                   00488cd4     fltk:Fl_File_Chooser2.obj
 0002:00004cd8       $SG47416                   00488cd8     fltk:Fl_File_Chooser2.obj
 0002:00004cdc       $SG47418                   00488cdc     fltk:Fl_File_Chooser2.obj
 0002:00004ce4       $SG47452                   00488ce4     fltk:Fl_File_Chooser2.obj
 0002:00004ce8       $SG47456                   00488ce8     fltk:Fl_File_Chooser2.obj
 0002:00004cec       $SG47458                   00488cec     fltk:Fl_File_Chooser2.obj
 0002:00004cf0       $SG47466                   00488cf0     fltk:Fl_File_Chooser2.obj
 0002:00004cf4       $SG47469                   00488cf4     fltk:Fl_File_Chooser2.obj
 0002:00004cfc       $SG47472                   00488cfc     fltk:Fl_File_Chooser2.obj
 0002:00004d00       $SG47479                   00488d00     fltk:Fl_File_Chooser2.obj
 0002:00004d08       $SG47490                   00488d08     fltk:Fl_File_Chooser2.obj
 0002:00004d0c       $SG47522                   00488d0c     fltk:Fl_File_Chooser2.obj
 0002:00004d10       $SG47538                   00488d10     fltk:Fl_File_Chooser2.obj
 0002:00004d14       $SG47540                   00488d14     fltk:Fl_File_Chooser2.obj
 0002:00004d1c       $SG47541                   00488d1c     fltk:Fl_File_Chooser2.obj
 0002:00004d2c       $SG47582                   00488d2c     fltk:Fl_File_Chooser2.obj
 0002:00004d38       $SG47586                   00488d38     fltk:Fl_File_Chooser2.obj
 0002:00004d44       $SG47589                   00488d44     fltk:Fl_File_Chooser2.obj
 0002:00004d54       $SG47596                   00488d54     fltk:Fl_File_Chooser2.obj
 0002:00004d58       $SG47619                   00488d58     fltk:Fl_File_Chooser2.obj
 0002:00004d5c       $SG47626                   00488d5c     fltk:Fl_File_Chooser2.obj
 0002:00004d60       $SG47654                   00488d60     fltk:Fl_File_Chooser2.obj
 0002:00004d68       $SG47682                   00488d68     fltk:Fl_File_Chooser2.obj
 0002:00004d6c       $SG47704                   00488d6c     fltk:Fl_File_Chooser2.obj
 0002:00004d70       $SG44199                   00488d70     fltk:fl_draw_pixmap.obj
 0002:00004da8       $SG44319                   00488da8     fltk:fl_plastic.obj
 0002:00004db4       $SG44343                   00488db4     fltk:fl_plastic.obj
 0002:00004dc0       $SG44344                   00488dc0     fltk:fl_plastic.obj
 0002:00004dc8       $SG44354                   00488dc8     fltk:fl_plastic.obj
 0002:00004dd8       $SG44355                   00488dd8     fltk:fl_plastic.obj
 0002:00004de0       $SG44363                   00488de0     fltk:fl_plastic.obj
 0002:00004df0       $SG44364                   00488df0     fltk:fl_plastic.obj
 0002:00004df8       $SG44372                   00488df8     fltk:fl_plastic.obj
 0002:00004e04       $SG44382                   00488e04     fltk:fl_plastic.obj
 0002:00004e10       $SG44390                   00488e10     fltk:fl_plastic.obj
 0002:00004e1c       $SG44391                   00488e1c     fltk:fl_plastic.obj
 0002:00004eb8       _ucs_table_0041            00488eb8     fltk:case.obj
 0002:000053a4       _ucs_table_24B6            004893a4     fltk:case.obj
 0002:000053d8       _ucs_table_0386            004893d8     fltk:case.obj
 0002:00005780       _ucs_table_10A0            00489780     fltk:case.obj
 0002:000057cc       _ucs_table_33CE            004897cc     fltk:case.obj
 0002:000057d0       _ucs_table_1E00            004897d0     fltk:case.obj
 0002:00005bcc       _ucs_table_FF21            00489bcc     fltk:case.obj
 0002:00005c00       _ucs_table_2102            00489c00     fltk:case.obj
 0002:00005c68       _ucs_table_0300            00489c68     fltk:is_spacing.obj
 0002:00005d2c       _ucs_table_0483            00489d2c     fltk:is_spacing.obj
 0002:00005d34       _ucs_table_20D0            00489d34     fltk:is_spacing.obj
 0002:00005d58       _ucs_table_0591            00489d58     fltk:is_spacing.obj
 0002:00005dc0       _ucs_table_064B            00489dc0     fltk:is_spacing.obj
 0002:00005f08       _ucs_table_0901            00489f08     fltk:is_spacing.obj
 0002:000067a4       _ucs_table_FB1E            0048a7a4     fltk:is_spacing.obj
 0002:000067a8       _ucs_table_0E31            0048a7a8     fltk:is_spacing.obj
 0002:00006abc       _ucs_table_FE20            0048aabc     fltk:is_spacing.obj
 0002:00006ac8       _ucs_table_302A            0048aac8     fltk:is_spacing.obj
 0002:00006bb0       ?fl_cursor_wait_xpm@@3QBQBDB 0048abb0     fltk:fl_cursor.obj
 0002:00006c08       $SG44165                   0048ac08     fltk:fl_cursor.obj
 0002:00006c14       $SG44166                   0048ac14     fltk:fl_cursor.obj
 0002:00006c20       $SG44167                   0048ac20     fltk:fl_cursor.obj
 0002:00006c2c       $SG44168                   0048ac2c     fltk:fl_cursor.obj
 0002:00006c38       $SG44169                   0048ac38     fltk:fl_cursor.obj
 0002:00006c48       $SG44170                   0048ac48     fltk:fl_cursor.obj
 0002:00006c58       $SG44171                   0048ac58     fltk:fl_cursor.obj
 0002:00006c68       $SG44172                   0048ac68     fltk:fl_cursor.obj
 0002:00006c78       $SG44173                   0048ac78     fltk:fl_cursor.obj
 0002:00006c88       $SG44174                   0048ac88     fltk:fl_cursor.obj
 0002:00006c98       $SG44175                   0048ac98     fltk:fl_cursor.obj
 0002:00006ca8       $SG44176                   0048aca8     fltk:fl_cursor.obj
 0002:00006cb8       $SG44177                   0048acb8     fltk:fl_cursor.obj
 0002:00006cc8       $SG44178                   0048acc8     fltk:fl_cursor.obj
 0002:00006cd8       $SG44179                   0048acd8     fltk:fl_cursor.obj
 0002:00006ce8       $SG44180                   0048ace8     fltk:fl_cursor.obj
 0002:00006cf8       $SG44181                   0048acf8     fltk:fl_cursor.obj
 0002:00006d08       $SG44182                   0048ad08     fltk:fl_cursor.obj
 0002:00006d18       $SG44183                   0048ad18     fltk:fl_cursor.obj
 0002:00006d28       $SG44184                   0048ad28     fltk:fl_cursor.obj
 0002:00006d38       $SG44185                   0048ad38     fltk:fl_cursor.obj
 0002:00006d48       $SG44186                   0048ad48     fltk:fl_cursor.obj
 0002:00006d58       ?fl_cursor_help_xpm@@3QBQBDB 0048ad58     fltk:fl_cursor.obj
 0002:00006dec       $SG44189                   0048adec     fltk:fl_cursor.obj
 0002:00006df8       $SG44190                   0048adf8     fltk:fl_cursor.obj
 0002:00006e04       $SG44191                   0048ae04     fltk:fl_cursor.obj
 0002:00006e10       $SG44192                   0048ae10     fltk:fl_cursor.obj
 0002:00006e1c       $SG44193                   0048ae1c     fltk:fl_cursor.obj
 0002:00006e28       $SG44194                   0048ae28     fltk:fl_cursor.obj
 0002:00006e34       $SG44195                   0048ae34     fltk:fl_cursor.obj
 0002:00006e40       $SG44196                   0048ae40     fltk:fl_cursor.obj
 0002:00006e4c       $SG44197                   0048ae4c     fltk:fl_cursor.obj
 0002:00006e58       $SG44198                   0048ae58     fltk:fl_cursor.obj
 0002:00006e64       $SG44199                   0048ae64     fltk:fl_cursor.obj
 0002:00006e78       $SG44200                   0048ae78     fltk:fl_cursor.obj
 0002:00006e8c       $SG44201                   0048ae8c     fltk:fl_cursor.obj
 0002:00006ea0       $SG44202                   0048aea0     fltk:fl_cursor.obj
 0002:00006eb4       $SG44203                   0048aeb4     fltk:fl_cursor.obj
 0002:00006ec8       $SG44204                   0048aec8     fltk:fl_cursor.obj
 0002:00006edc       $SG44205                   0048aedc     fltk:fl_cursor.obj
 0002:00006ef0       $SG44206                   0048aef0     fltk:fl_cursor.obj
 0002:00006f04       $SG44207                   0048af04     fltk:fl_cursor.obj
 0002:00006f18       $SG44208                   0048af18     fltk:fl_cursor.obj
 0002:00006f2c       $SG44209                   0048af2c     fltk:fl_cursor.obj
 0002:00006f40       $SG44210                   0048af40     fltk:fl_cursor.obj
 0002:00006f54       $SG44211                   0048af54     fltk:fl_cursor.obj
 0002:00006f68       $SG44212                   0048af68     fltk:fl_cursor.obj
 0002:00006f7c       $SG44213                   0048af7c     fltk:fl_cursor.obj
 0002:00006f90       $SG44214                   0048af90     fltk:fl_cursor.obj
 0002:00006fa4       $SG44215                   0048afa4     fltk:fl_cursor.obj
 0002:00006fb8       $SG44216                   0048afb8     fltk:fl_cursor.obj
 0002:00006fcc       $SG44217                   0048afcc     fltk:fl_cursor.obj
 0002:00006fe0       $SG44218                   0048afe0     fltk:fl_cursor.obj
 0002:00006ff4       $SG44219                   0048aff4     fltk:fl_cursor.obj
 0002:00007008       $SG44220                   0048b008     fltk:fl_cursor.obj
 0002:0000701c       $SG44221                   0048b01c     fltk:fl_cursor.obj
 0002:00007030       $SG44222                   0048b030     fltk:fl_cursor.obj
 0002:00007044       $SG44223                   0048b044     fltk:fl_cursor.obj
 0002:00007058       $SG44224                   0048b058     fltk:fl_cursor.obj
 0002:0000706c       $SG44225                   0048b06c     fltk:fl_cursor.obj
 0002:00007080       ?fl_cursor_nwse_xpm@@3QBQBDB 0048b080     fltk:fl_cursor.obj
 0002:00007130       $SG44228                   0048b130     fltk:fl_cursor.obj
 0002:0000713c       $SG44229                   0048b13c     fltk:fl_cursor.obj
 0002:00007148       $SG44230                   0048b148     fltk:fl_cursor.obj
 0002:00007154       $SG44231                   0048b154     fltk:fl_cursor.obj
 0002:00007160       $SG44232                   0048b160     fltk:fl_cursor.obj
 0002:0000716c       $SG44233                   0048b16c     fltk:fl_cursor.obj
 0002:00007178       $SG44234                   0048b178     fltk:fl_cursor.obj
 0002:00007184       $SG44235                   0048b184     fltk:fl_cursor.obj
 0002:00007190       $SG44236                   0048b190     fltk:fl_cursor.obj
 0002:0000719c       $SG44237                   0048b19c     fltk:fl_cursor.obj
 0002:000071a8       $SG44238                   0048b1a8     fltk:fl_cursor.obj
 0002:000071b4       $SG44239                   0048b1b4     fltk:fl_cursor.obj
 0002:000071c0       $SG44240                   0048b1c0     fltk:fl_cursor.obj
 0002:000071cc       $SG44241                   0048b1cc     fltk:fl_cursor.obj
 0002:000071d8       $SG44242                   0048b1d8     fltk:fl_cursor.obj
 0002:000071e4       $SG44243                   0048b1e4     fltk:fl_cursor.obj
 0002:000071f0       $SG44244                   0048b1f0     fltk:fl_cursor.obj
 0002:000071fc       $SG44245                   0048b1fc     fltk:fl_cursor.obj
 0002:00007208       $SG44246                   0048b208     fltk:fl_cursor.obj
 0002:00007214       $SG44247                   0048b214     fltk:fl_cursor.obj
 0002:00007220       $SG44248                   0048b220     fltk:fl_cursor.obj
 0002:0000722c       $SG44249                   0048b22c     fltk:fl_cursor.obj
 0002:00007238       $SG44250                   0048b238     fltk:fl_cursor.obj
 0002:00007244       $SG44251                   0048b244     fltk:fl_cursor.obj
 0002:00007250       $SG44252                   0048b250     fltk:fl_cursor.obj
 0002:0000725c       $SG44253                   0048b25c     fltk:fl_cursor.obj
 0002:00007268       $SG44254                   0048b268     fltk:fl_cursor.obj
 0002:00007274       $SG44255                   0048b274     fltk:fl_cursor.obj
 0002:00007280       $SG44256                   0048b280     fltk:fl_cursor.obj
 0002:0000728c       $SG44257                   0048b28c     fltk:fl_cursor.obj
 0002:0000729c       $SG44258                   0048b29c     fltk:fl_cursor.obj
 0002:000072ac       $SG44259                   0048b2ac     fltk:fl_cursor.obj
 0002:000072bc       $SG44260                   0048b2bc     fltk:fl_cursor.obj
 0002:000072cc       $SG44261                   0048b2cc     fltk:fl_cursor.obj
 0002:000072dc       $SG44262                   0048b2dc     fltk:fl_cursor.obj
 0002:000072ec       $SG44263                   0048b2ec     fltk:fl_cursor.obj
 0002:000072fc       $SG44264                   0048b2fc     fltk:fl_cursor.obj
 0002:0000730c       $SG44265                   0048b30c     fltk:fl_cursor.obj
 0002:0000731c       $SG44266                   0048b31c     fltk:fl_cursor.obj
 0002:0000732c       $SG44267                   0048b32c     fltk:fl_cursor.obj
 0002:0000733c       $SG44268                   0048b33c     fltk:fl_cursor.obj
 0002:0000734c       $SG44269                   0048b34c     fltk:fl_cursor.obj
 0002:0000735c       $SG44270                   0048b35c     fltk:fl_cursor.obj
 0002:0000736c       $SG44271                   0048b36c     fltk:fl_cursor.obj
 0002:00007380       ?fl_cursor_nesw_xpm@@3QBQBDB 0048b380     fltk:fl_cursor.obj
 0002:00007430       $SG44274                   0048b430     fltk:fl_cursor.obj
 0002:0000743c       $SG44275                   0048b43c     fltk:fl_cursor.obj
 0002:00007448       $SG44276                   0048b448     fltk:fl_cursor.obj
 0002:00007454       $SG44277                   0048b454     fltk:fl_cursor.obj
 0002:00007460       $SG44278                   0048b460     fltk:fl_cursor.obj
 0002:0000746c       $SG44279                   0048b46c     fltk:fl_cursor.obj
 0002:00007478       $SG44280                   0048b478     fltk:fl_cursor.obj
 0002:00007484       $SG44281                   0048b484     fltk:fl_cursor.obj
 0002:00007490       $SG44282                   0048b490     fltk:fl_cursor.obj
 0002:0000749c       $SG44283                   0048b49c     fltk:fl_cursor.obj
 0002:000074a8       $SG44284                   0048b4a8     fltk:fl_cursor.obj
 0002:000074b4       $SG44285                   0048b4b4     fltk:fl_cursor.obj
 0002:000074c0       $SG44286                   0048b4c0     fltk:fl_cursor.obj
 0002:000074cc       $SG44287                   0048b4cc     fltk:fl_cursor.obj
 0002:000074d8       $SG44288                   0048b4d8     fltk:fl_cursor.obj
 0002:000074e4       $SG44289                   0048b4e4     fltk:fl_cursor.obj
 0002:000074f0       $SG44290                   0048b4f0     fltk:fl_cursor.obj
 0002:000074fc       $SG44291                   0048b4fc     fltk:fl_cursor.obj
 0002:00007508       $SG44292                   0048b508     fltk:fl_cursor.obj
 0002:00007514       $SG44293                   0048b514     fltk:fl_cursor.obj
 0002:00007520       $SG44294                   0048b520     fltk:fl_cursor.obj
 0002:0000752c       $SG44295                   0048b52c     fltk:fl_cursor.obj
 0002:00007538       $SG44296                   0048b538     fltk:fl_cursor.obj
 0002:00007544       $SG44297                   0048b544     fltk:fl_cursor.obj
 0002:00007550       $SG44298                   0048b550     fltk:fl_cursor.obj
 0002:0000755c       $SG44299                   0048b55c     fltk:fl_cursor.obj
 0002:00007568       $SG44300                   0048b568     fltk:fl_cursor.obj
 0002:00007574       $SG44301                   0048b574     fltk:fl_cursor.obj
 0002:00007580       $SG44302                   0048b580     fltk:fl_cursor.obj
 0002:0000758c       $SG44303                   0048b58c     fltk:fl_cursor.obj
 0002:0000759c       $SG44304                   0048b59c     fltk:fl_cursor.obj
 0002:000075ac       $SG44305                   0048b5ac     fltk:fl_cursor.obj
 0002:000075bc       $SG44306                   0048b5bc     fltk:fl_cursor.obj
 0002:000075cc       $SG44307                   0048b5cc     fltk:fl_cursor.obj
 0002:000075dc       $SG44308                   0048b5dc     fltk:fl_cursor.obj
 0002:000075ec       $SG44309                   0048b5ec     fltk:fl_cursor.obj
 0002:000075fc       $SG44310                   0048b5fc     fltk:fl_cursor.obj
 0002:0000760c       $SG44311                   0048b60c     fltk:fl_cursor.obj
 0002:0000761c       $SG44312                   0048b61c     fltk:fl_cursor.obj
 0002:0000762c       $SG44313                   0048b62c     fltk:fl_cursor.obj
 0002:0000763c       $SG44314                   0048b63c     fltk:fl_cursor.obj
 0002:0000764c       $SG44315                   0048b64c     fltk:fl_cursor.obj
 0002:0000765c       $SG44316                   0048b65c     fltk:fl_cursor.obj
 0002:0000766c       $SG44317                   0048b66c     fltk:fl_cursor.obj
 0002:00007680       ?fl_cursor_none_xpm@@3QBQBDB 0048b680     fltk:fl_cursor.obj
 0002:000076c4       $SG44320                   0048b6c4     fltk:fl_cursor.obj
 0002:000076d0       $SG44321                   0048b6d0     fltk:fl_cursor.obj
 0002:000076dc       $SG44322                   0048b6dc     fltk:fl_cursor.obj
 0002:000076ec       $SG44323                   0048b6ec     fltk:fl_cursor.obj
 0002:000076fc       $SG44324                   0048b6fc     fltk:fl_cursor.obj
 0002:0000770c       $SG44325                   0048b70c     fltk:fl_cursor.obj
 0002:0000771c       $SG44326                   0048b71c     fltk:fl_cursor.obj
 0002:0000772c       $SG44327                   0048b72c     fltk:fl_cursor.obj
 0002:0000773c       $SG44328                   0048b73c     fltk:fl_cursor.obj
 0002:0000774c       $SG44329                   0048b74c     fltk:fl_cursor.obj
 0002:0000775c       $SG44330                   0048b75c     fltk:fl_cursor.obj
 0002:0000776c       $SG44331                   0048b76c     fltk:fl_cursor.obj
 0002:0000777c       $SG44332                   0048b77c     fltk:fl_cursor.obj
 0002:0000778c       $SG44333                   0048b78c     fltk:fl_cursor.obj
 0002:0000779c       $SG44334                   0048b79c     fltk:fl_cursor.obj
 0002:000077ac       $SG44335                   0048b7ac     fltk:fl_cursor.obj
 0002:000077bc       $SG44336                   0048b7bc     fltk:fl_cursor.obj
 0002:000077cc       $SG45409                   0048b7cc     fltk:fl_symbols.obj
 0002:000077d0       $SG45410                   0048b7d0     fltk:fl_symbols.obj
 0002:000077d4       $SG45411                   0048b7d4     fltk:fl_symbols.obj
 0002:000077d8       $SG45412                   0048b7d8     fltk:fl_symbols.obj
 0002:000077dc       $SG45413                   0048b7dc     fltk:fl_symbols.obj
 0002:000077e0       $SG45414                   0048b7e0     fltk:fl_symbols.obj
 0002:000077e4       $SG45415                   0048b7e4     fltk:fl_symbols.obj
 0002:000077e8       $SG45416                   0048b7e8     fltk:fl_symbols.obj
 0002:000077ec       $SG45417                   0048b7ec     fltk:fl_symbols.obj
 0002:000077f0       $SG45418                   0048b7f0     fltk:fl_symbols.obj
 0002:000077f4       $SG45419                   0048b7f4     fltk:fl_symbols.obj
 0002:000077f8       $SG45420                   0048b7f8     fltk:fl_symbols.obj
 0002:000077fc       $SG45421                   0048b7fc     fltk:fl_symbols.obj
 0002:00007800       $SG45422                   0048b800     fltk:fl_symbols.obj
 0002:00007804       $SG45423                   0048b804     fltk:fl_symbols.obj
 0002:00007808       $SG45424                   0048b808     fltk:fl_symbols.obj
 0002:0000780c       $SG45425                   0048b80c     fltk:fl_symbols.obj
 0002:00007810       $SG45426                   0048b810     fltk:fl_symbols.obj
 0002:00007818       $SG45427                   0048b818     fltk:fl_symbols.obj
 0002:00007824       $SG45428                   0048b824     fltk:fl_symbols.obj
 0002:0000782c       $SG45429                   0048b82c     fltk:fl_symbols.obj
 0002:00007834       $SG45430                   0048b834     fltk:fl_symbols.obj
 0002:0000783c       $SG45431                   0048b83c     fltk:fl_symbols.obj
 0002:00007844       $SG45432                   0048b844     fltk:fl_symbols.obj
 0002:0000784c       $SG45433                   0048b84c     fltk:fl_symbols.obj
 0002:00007854       $SG45434                   0048b854     fltk:fl_symbols.obj
 0002:0000785c       $SG45435                   0048b85c     fltk:fl_symbols.obj
 0002:00007860       $SG45436                   0048b860     fltk:fl_symbols.obj
 0002:00007868       $SG45437                   0048b868     fltk:fl_symbols.obj
 0002:00007870       $SG45438                   0048b870     fltk:fl_symbols.obj
 0002:00007878       $SG45439                   0048b878     fltk:fl_symbols.obj
 0002:00007884       $SG45440                   0048b884     fltk:fl_symbols.obj
 0002:00007890       $SG45441                   0048b890     fltk:fl_symbols.obj
 0002:0000789c       $SG45442                   0048b89c     fltk:fl_symbols.obj
 0002:000078a8       $SG45443                   0048b8a8     fltk:fl_symbols.obj
 0002:000078b0       $SG45444                   0048b8b0     fltk:fl_symbols.obj
 0002:000078b8       $SG45445                   0048b8b8     fltk:fl_symbols.obj
 0002:000078c0       $SG45446                   0048b8c0     fltk:fl_symbols.obj
 0002:00007a08       $SG44682                   0048ba08     fltk:Fl_Choice.obj
 0002:00007ac8       $SG45318                   0048bac8     fltk:Fl_File_Browser.obj
 0002:00007aca       $SG45319                   0048baca     fltk:Fl_File_Browser.obj
 0002:00007acc       $SG45349                   0048bacc     fltk:Fl_File_Browser.obj
 0002:00007ad0       $SG45350                   0048bad0     fltk:Fl_File_Browser.obj
 0002:00007ad4       $SG45352                   0048bad4     fltk:Fl_File_Browser.obj
 0002:00007adc       $SG45359                   0048badc     fltk:Fl_File_Browser.obj
 0002:00007ae0       $SG45362                   0048bae0     fltk:Fl_File_Browser.obj
 0002:00007ae4       $SG45363                   0048bae4     fltk:Fl_File_Browser.obj
 0002:00007aec       $SG45375                   0048baec     fltk:Fl_File_Browser.obj
 0002:00007c10       ?no_columns@@3QBHB         0048bc10     fltk:Fl_Browser.obj
 0002:00007d58       $SG39948                   0048bd58     fltk:filename_expand.obj
 0002:00007d60       $SG8058                    0048bd60     fltk:filename_isdir.obj
 0002:00007d64       $SG42447                   0048bd64     fltk:Fl_Shared_Image.obj
 0002:00007d68       $SG42451                   0048bd68     fltk:Fl_Shared_Image.obj
 0002:00007d70       $SG42455                   0048bd70     fltk:Fl_Shared_Image.obj
 0002:00007dcc       $SG45518                   0048bdcc     fltk:Fl_Scrollbar.obj
 0002:00007dd4       $SG45526                   0048bdd4     fltk:Fl_Scrollbar.obj
 0002:00007e18       $SG9200                    0048be18     fltk:Fl_XBM_Image.obj
 0002:00007e1c       $SG9202                    0048be1c     fltk:Fl_XBM_Image.obj
 0002:00007e2c       $SG9206                    0048be2c     fltk:Fl_XBM_Image.obj
 0002:00007e34       $SG9209                    0048be34     fltk:Fl_XBM_Image.obj
 0002:00007e60       $SG42289                   0048be60     fltk:Fl_XPM_Image.obj
 0002:00007e64       $SG42304                   0048be64     fltk:Fl_XPM_Image.obj
 0002:00007e98       $SG43609                   0048be98     fltkgl:Fl_Gl_Window.obj
 0002:00007eb0       $SG43661                   0048beb0     fltkgl:Fl_Gl_Window.obj
 0002:00007ec0       $SG43665                   0048bec0     fltkgl:Fl_Gl_Window.obj
 0002:00007ec8       $SG43668                   0048bec8     fltkgl:Fl_Gl_Window.obj
 0002:00007ed4       $SG43671                   0048bed4     fltkgl:Fl_Gl_Window.obj
 0002:00007ee0       $SG43728                   0048bee0     fltkgl:Fl_Gl_Window.obj
 0002:000087fc       _GS_ExceptionPointers      0048c7fc     MSVCRT:gs_report.obj
 0002:00008810       _Int32ToUInt32             0048c810     MSVCRT:_ftol3_.obj
 0002:00008818       _DP2to32                   0048c818     MSVCRT:_ftol3_.obj
 0002:00008820       _MantissaMask              0048c820     MSVCRT:_ftol3_.obj
 0002:00008828       _IntegerBit                0048c828     MSVCRT:_ftol3_.obj
 0002:00008830       _SignBit64                 0048c830     MSVCRT:_ftol3_.obj
 0002:00008838       _MinFP64                   0048c838     MSVCRT:_ftol3_.obj
 0002:00008840       _MinInt64                  0048c840     MSVCRT:_ftol3_.obj
 0002:00008848       _MaxInt64                  0048c848     MSVCRT:_ftol3_.obj
 0002:00008850       _MaxUInt64                 0048c850     MSVCRT:_ftol3_.obj
 0002:00008858       _MaxFP32                   0048c858     MSVCRT:_ftol3_.obj
 0002:00008860       _MinFP32                   0048c860     MSVCRT:_ftol3_.obj
 0002:00008868       _MinSubInexact             0048c868     MSVCRT:_ftol3_.obj
 0002:00008870       _FpExcptTable              0048c870     MSVCRT:_ftol3_.obj
 0002:00008880       _i1075                     0048c880     MSVCRT:_ftol3_.obj
 0002:00008884       _i1087                     0048c884     MSVCRT:_ftol3_.obj
 0002:00008888       _x0800                     0048c888     MSVCRT:_ftol3_.obj
 0002:0000888c       _x17FF                     0048c88c     MSVCRT:_ftol3_.obj
 0002:00008890       _CWMask                    0048c890     MSVCRT:_ftol3_.obj
 0002:00008fa0       ??_R4?$_CancellationTokenCallback@V<lambda_3b8ab8d2629adf61a42ee3fe177a046b>@@@details@Concurrency@@6B@ 0048cfa0     TraceUI.obj
 0002:00008fb4       ??_R3?$_CancellationTokenCallback@V<lambda_3b8ab8d2629adf61a42ee3fe177a046b>@@@details@Concurrency@@8 0048cfb4     TraceUI.obj
 0002:00008fc4       ??_R2?$_CancellationTokenCallback@V<lambda_3b8ab8d2629adf61a42ee3fe177a046b>@@@details@Concurrency@@8 0048cfc4     TraceUI.obj
 0002:00008fd4       ??_R1A@?0A@EA@?$_CancellationTokenCallback@V<lambda_3b8ab8d2629adf61a42ee3fe177a046b>@@@details@Concurrency@@8 0048cfd4     TraceUI.obj
 0002:000092f0       ??_R4?$_Func_impl@V<lambda_5e5ab22ea98f4361dbf159481d01f54d>@@V?$allocator@H@std@@X$$V@std@@6B@ 0048d2f0     TraceUI.obj
 0002:00009304       ??_R3?$_Func_impl@V<lambda_5e5ab22ea98f4361dbf159481d01f54d>@@V?$allocator@H@std@@X$$V@std@@8 0048d304     TraceUI.obj
 0002:00009314       ??_R2?$_Func_impl@V<lambda_5e5ab22ea98f4361dbf159481d01f54d>@@V?$allocator@H@std@@X$$V@std@@8 0048d314     TraceUI.obj
 0002:00009320       ??_R1A@?0A@EA@?$_Func_impl@V<lambda_5e5ab22ea98f4361dbf159481d01f54d>@@V?$allocator@H@std@@X$$V@std@@8 0048d320     TraceUI.obj
 0002:0000933c       ??_R4?$_Func_impl@V<lambda_7c33b2c4310ad8c6be497d7a2a561bb8>@@V?$allocator@H@std@@X$$V@std@@6B@ 0048d33c     TraceUI.obj
 0002:00009350       ??_R3?$_Func_impl@V<lambda_7c33b2c4310ad8c6be497d7a2a561bb8>@@V?$allocator@H@std@@X$$V@std@@8 0048d350     TraceUI.obj
 0002:00009360       ??_R2?$_Func_impl@V<lambda_7c33b2c4310ad8c6be497d7a2a561bb8>@@V?$allocator@H@std@@X$$V@std@@8 0048d360     TraceUI.obj
 0002:0000936c       ??_R1A@?0A@EA@?$_Func_impl@V<lambda_7c33b2c4310ad8c6be497d7a2a561bb8>@@V?$allocator@H@std@@X$$V@std@@8 0048d36c     TraceUI.obj
 0002:00009388       ??_R4?$_Func_impl@V<lambda_cab26a778e4185933e9c5b0cfaedfe5e>@@V?$allocator@H@std@@E$$V@std@@6B@ 0048d388     TraceUI.obj
 0002:0000939c       ??_R3?$_Func_impl@V<lambda_cab26a778e4185933e9c5b0cfaedfe5e>@@V?$allocator@H@std@@E$$V@std@@8 0048d39c     TraceUI.obj
 0002:000093ac       ??_R2?$_Func_impl@V<lambda_cab26a778e4185933e9c5b0cfaedfe5e>@@V?$allocator@H@std@@E$$V@std@@8 0048d3ac     TraceUI.obj
 0002:000093b8       ??_R1A@?0A@EA@?$_Func_impl@V<lambda_cab26a778e4185933e9c5b0cfaedfe5e>@@V?$allocator@H@std@@E$$V@std@@8 0048d3b8     TraceUI.obj
 0002:000093d4       ??_R4?$_Func_impl@V<lambda_0456396a71e3abd88ede77bdd2823d8e>@@V?$allocator@H@std@@X$$V@std@@6B@ 0048d3d4     TraceUI.obj
 0002:000093e8       ??_R3?$_Func_impl@V<lambda_0456396a71e3abd88ede77bdd2823d8e>@@V?$allocator@H@std@@X$$V@std@@8 0048d3e8     TraceUI.obj
 0002:000093f8       ??_R2?$_Func_impl@V<lambda_0456396a71e3abd88ede77bdd2823d8e>@@V?$allocator@H@std@@X$$V@std@@8 0048d3f8     TraceUI.obj
 0002:00009404       ??_R1A@?0A@EA@?$_Func_impl@V<lambda_0456396a71e3abd88ede77bdd2823d8e>@@V?$allocator@H@std@@X$$V@std@@8 0048d404     TraceUI.obj
 0002:0000946c       ??_R4?$_InitialTaskHandle@XV<lambda_855a1ef4dbee54ab7f2f1e055b9bdfad>@@U_TypeSelectorNoAsync@details@Concurrency@@@?$task@E@Concurrency@@6B@ 0048d46c     TraceUI.obj
 0002:00009480       ??_R3?$_InitialTaskHandle@XV<lambda_855a1ef4dbee54ab7f2f1e055b9bdfad>@@U_TypeSelectorNoAsync@details@Concurrency@@@?$task@E@Concurrency@@8 0048d480     TraceUI.obj
 0002:00009490       ??_R2?$_InitialTaskHandle@XV<lambda_855a1ef4dbee54ab7f2f1e055b9bdfad>@@U_TypeSelectorNoAsync@details@Concurrency@@@?$task@E@Concurrency@@8 0048d490     TraceUI.obj
 0002:000094a0       ??_R1A@?0A@EA@?$_InitialTaskHandle@XV<lambda_855a1ef4dbee54ab7f2f1e055b9bdfad>@@U_TypeSelectorNoAsync@details@Concurrency@@@?$task@E@Concurrency@@8 0048d4a0     TraceUI.obj
 0002:000094bc       ??_R1A@?0A@EA@?$_PPLTaskHandle@EU?$_InitialTaskHandle@XV<lambda_855a1ef4dbee54ab7f2f1e055b9bdfad>@@U_TypeSelectorNoAsync@details@Concurrency@@@?$task@E@Concurrency@@U_TaskProcHandle@details@3@@details@Concurrency@@8 0048d4bc     TraceUI.obj
 0002:000094d8       ??_R3?$_PPLTaskHandle@EU?$_InitialTaskHandle@XV<lambda_855a1ef4dbee54ab7f2f1e055b9bdfad>@@U_TypeSelectorNoAsync@details@Concurrency@@@?$task@E@Concurrency@@U_TaskProcHandle@details@3@@details@Concurrency@@8 0048d4d8     TraceUI.obj
 0002:000094e8       ??_R2?$_PPLTaskHandle@EU?$_InitialTaskHandle@XV<lambda_855a1ef4dbee54ab7f2f1e055b9bdfad>@@U_TypeSelectorNoAsync@details@Concurrency@@@?$task@E@Concurrency@@U_TaskProcHandle@details@3@@details@Concurrency@@8 0048d4e8     TraceUI.obj
 0002:000094f4       ??_R4?$_PPLTaskHandle@EU?$_InitialTaskHandle@XV<lambda_855a1ef4dbee54ab7f2f1e055b9bdfad>@@U_TypeSelectorNoAsync@details@Concurrency@@@?$task@E@Concurrency@@U_TaskProcHandle@details@3@@details@Concurrency@@6B@ 0048d4f4     TraceUI.obj
 0002:00009508       ??_R4?$_InitialTaskHandle@XV<lambda_0ebde0502725cf61f7686a2917d1749f>@@U_TypeSelectorNoAsync@details@Concurrency@@@?$task@E@Concurrency@@6B@ 0048d508     TraceUI.obj
 0002:0000951c       ??_R3?$_InitialTaskHandle@XV<lambda_0ebde0502725cf61f7686a2917d1749f>@@U_TypeSelectorNoAsync@details@Concurrency@@@?$task@E@Concurrency@@8 0048d51c     TraceUI.obj
 0002:0000952c       ??_R2?$_InitialTaskHandle@XV<lambda_0ebde0502725cf61f7686a2917d1749f>@@U_TypeSelectorNoAsync@details@Concurrency@@@?$task@E@Concurrency@@8 0048d52c     TraceUI.obj
 0002:0000953c       ??_R1A@?0A@EA@?$_InitialTaskHandle@XV<lambda_0ebde0502725cf61f7686a2917d1749f>@@U_TypeSelectorNoAsync@details@Concurrency@@@?$task@E@Concurrency@@8 0048d53c     TraceUI.obj
 0002:00009558       ??_R1A@?0A@EA@?$_PPLTaskHandle@EU?$_InitialTaskHandle@XV<lambda_0ebde0502725cf61f7686a2917d1749f>@@U_TypeSelectorNoAsync@details@Concurrency@@@?$task@E@Concurrency@@U_TaskProcHandle@details@3@@details@Concurrency@@8 0048d558     TraceUI.obj
 0002:00009574       ??_R3?$_PPLTaskHandle@EU?$_InitialTaskHandle@XV<lambda_0ebde0502725cf61f7686a2917d1749f>@@U_TypeSelectorNoAsync@details@Concurrency@@@?$task@E@Concurrency@@U_TaskProcHandle@details@3@@details@Concurrency@@8 0048d574     TraceUI.obj
 0002:00009584       ??_R2?$_PPLTaskHandle@EU?$_InitialTaskHandle@XV<lambda_0ebde0502725cf61f7686a2917d1749f>@@U_TypeSelectorNoAsync@details@Concurrency@@@?$task@E@Concurrency@@U_TaskProcHandle@details@3@@details@Concurrency@@8 0048d584     TraceUI.obj
 0002:00009590       ??_R4?$_PPLTaskHandle@EU?$_InitialTaskHandle@XV<lambda_0ebde0502725cf61f7686a2917d1749f>@@U_TypeSelectorNoAsync@details@Concurrency@@@?$task@E@Concurrency@@U_TaskProcHandle@details@3@@details@Concurrency@@6B@ 0048d590     TraceUI.obj
 0002:000095f0       ??_R4?$_InitialTaskHandle@XV<lambda_042c6af70ca74ab46830ae50c8c14c9e>@@U_TypeSelectorNoAsync@details@Concurrency@@@?$task@E@Concurrency@@6B@ 0048d5f0     TraceUI.obj
 0002:00009604       ??_R3?$_InitialTaskHandle@XV<lambda_042c6af70ca74ab46830ae50c8c14c9e>@@U_TypeSelectorNoAsync@details@Concurrency@@@?$task@E@Concurrency@@8 0048d604     TraceUI.obj
 0002:00009614       ??_R2?$_InitialTaskHandle@XV<lambda_042c6af70ca74ab46830ae50c8c14c9e>@@U_TypeSelectorNoAsync@details@Concurrency@@@?$task@E@Concurrency@@8 0048d614     TraceUI.obj
 0002:00009624       ??_R1A@?0A@EA@?$_InitialTaskHandle@XV<lambda_042c6af70ca74ab46830ae50c8c14c9e>@@U_TypeSelectorNoAsync@details@Concurrency@@@?$task@E@Concurrency@@8 0048d624     TraceUI.obj
 0002:00009640       ??_R1A@?0A@EA@?$_PPLTaskHandle@EU?$_InitialTaskHandle@XV<lambda_042c6af70ca74ab46830ae50c8c14c9e>@@U_TypeSelectorNoAsync@details@Concurrency@@@?$task@E@Concurrency@@U_TaskProcHandle@details@3@@details@Concurrency@@8 0048d640     TraceUI.obj
 0002:0000965c       ??_R3?$_PPLTaskHandle@EU?$_InitialTaskHandle@XV<lambda_042c6af70ca74ab46830ae50c8c14c9e>@@U_TypeSelectorNoAsync@details@Concurrency@@@?$task@E@Concurrency@@U_TaskProcHandle@details@3@@details@Concurrency@@8 0048d65c     TraceUI.obj
 0002:0000966c       ??_R2?$_PPLTaskHandle@EU?$_InitialTaskHandle@XV<lambda_042c6af70ca74ab46830ae50c8c14c9e>@@U_TypeSelectorNoAsync@details@Concurrency@@@?$task@E@Concurrency@@U_TaskProcHandle@details@3@@details@Concurrency@@8 0048d66c     TraceUI.obj
 0002:00009678       ??_R4?$_PPLTaskHandle@EU?$_InitialTaskHandle@XV<lambda_042c6af70ca74ab46830ae50c8c14c9e>@@U_TypeSelectorNoAsync@details@Concurrency@@@?$task@E@Concurrency@@U_TaskProcHandle@details@3@@details@Concurrency@@6B@ 0048d678     TraceUI.obj
 0002:0000968c       ??_R4?$_InitialTaskHandle@XV<lambda_483208dc91e150c0c9b495b53fd62158>@@U_TypeSelectorNoAsync@details@Concurrency@@@?$task@E@Concurrency@@6B@ 0048d68c     TraceUI.obj
 0002:000096a0       ??_R3?$_InitialTaskHandle@XV<lambda_483208dc91e150c0c9b495b53fd62158>@@U_TypeSelectorNoAsync@details@Concurrency@@@?$task@E@Concurrency@@8 0048d6a0     TraceUI.obj
 0002:000096b0       ??_R2?$_InitialTaskHandle@XV<lambda_483208dc91e150c0c9b495b53fd62158>@@U_TypeSelectorNoAsync@details@Concurrency@@@?$task@E@Concurrency@@8 0048d6b0     TraceUI.obj
 0002:000096c0       ??_R1A@?0A@EA@?$_InitialTaskHandle@XV<lambda_483208dc91e150c0c9b495b53fd62158>@@U_TypeSelectorNoAsync@details@Concurrency@@@?$task@E@Concurrency@@8 0048d6c0     TraceUI.obj
 0002:000096dc       ??_R1A@?0A@EA@?$_PPLTaskHandle@EU?$_InitialTaskHandle@XV<lambda_483208dc91e150c0c9b495b53fd62158>@@U_TypeSelectorNoAsync@details@Concurrency@@@?$task@E@Concurrency@@U_TaskProcHandle@details@3@@details@Concurrency@@8 0048d6dc     TraceUI.obj
 0002:000096f8       ??_R3?$_PPLTaskHandle@EU?$_InitialTaskHandle@XV<lambda_483208dc91e150c0c9b495b53fd62158>@@U_TypeSelectorNoAsync@details@Concurrency@@@?$task@E@Concurrency@@U_TaskProcHandle@details@3@@details@Concurrency@@8 0048d6f8     TraceUI.obj
 0002:00009708       ??_R2?$_PPLTaskHandle@EU?$_InitialTaskHandle@XV<lambda_483208dc91e150c0c9b495b53fd62158>@@U_TypeSelectorNoAsync@details@Concurrency@@@?$task@E@Concurrency@@U_TaskProcHandle@details@3@@details@Concurrency@@8 0048d708     TraceUI.obj
 0002:00009714       ??_R4?$_PPLTaskHandle@EU?$_InitialTaskHandle@XV<lambda_483208dc91e150c0c9b495b53fd62158>@@U_TypeSelectorNoAsync@details@Concurrency@@@?$task@E@Concurrency@@U_TaskProcHandle@details@3@@details@Concurrency@@6B@ 0048d714     TraceUI.obj
 0002:00009728       ??_R4?$_Func_impl@V<lambda_855a1ef4dbee54ab7f2f1e055b9bdfad>@@V?$allocator@H@std@@X$$V@std@@6B@ 0048d728     TraceUI.obj
 0002:0000973c       ??_R3?$_Func_impl@V<lambda_855a1ef4dbee54ab7f2f1e055b9bdfad>@@V?$allocator@H@std@@X$$V@std@@8 0048d73c     TraceUI.obj
 0002:0000974c       ??_R2?$_Func_impl@V<lambda_855a1ef4dbee54ab7f2f1e055b9bdfad>@@V?$allocator@H@std@@X$$V@std@@8 0048d74c     TraceUI.obj
 0002:00009758       ??_R1A@?0A@EA@?$_Func_impl@V<lambda_855a1ef4dbee54ab7f2f1e055b9bdfad>@@V?$allocator@H@std@@X$$V@std@@8 0048d758     TraceUI.obj
 0002:00009774       ??_R4?$_Func_impl@V<lambda_0ebde0502725cf61f7686a2917d1749f>@@V?$allocator@H@std@@X$$V@std@@6B@ 0048d774     TraceUI.obj
 0002:00009788       ??_R3?$_Func_impl@V<lambda_0ebde0502725cf61f7686a2917d1749f>@@V?$allocator@H@std@@X$$V@std@@8 0048d788     TraceUI.obj
 0002:00009798       ??_R2?$_Func_impl@V<lambda_0ebde0502725cf61f7686a2917d1749f>@@V?$allocator@H@std@@X$$V@std@@8 0048d798     TraceUI.obj
 0002:000097a4       ??_R1A@?0A@EA@?$_Func_impl@V<lambda_0ebde0502725cf61f7686a2917d1749f>@@V?$allocator@H@std@@X$$V@std@@8 0048d7a4     TraceUI.obj
 0002:000097c0       ??_R4?$_Func_impl@V<lambda_042c6af70ca74ab46830ae50c8c14c9e>@@V?$allocator@H@std@@X$$V@std@@6B@ 0048d7c0     TraceUI.obj
 0002:000097d4       ??_R3?$_Func_impl@V<lambda_042c6af70ca74ab46830ae50c8c14c9e>@@V?$allocator@H@std@@X$$V@std@@8 0048d7d4     TraceUI.obj
 0002:000097e4       ??_R2?$_Func_impl@V<lambda_042c6af70ca74ab46830ae50c8c14c9e>@@V?$allocator@H@std@@X$$V@std@@8 0048d7e4     TraceUI.obj
 0002:000097f0       ??_R1A@?0A@EA@?$_Func_impl@V<lambda_042c6af70ca74ab46830ae50c8c14c9e>@@V?$allocator@H@std@@X$$V@std@@8 0048d7f0     TraceUI.obj
 0002:0000980c       ??_R4?$_Func_impl@V<lambda_483208dc91e150c0c9b495b53fd62158>@@V?$allocator@H@std@@X$$V@std@@6B@ 0048d80c     TraceUI.obj
 0002:00009820       ??_R3?$_Func_impl@V<lambda_483208dc91e150c0c9b495b53fd62158>@@V?$allocator@H@std@@X$$V@std@@8 0048d820     TraceUI.obj
 0002:00009830       ??_R2?$_Func_impl@V<lambda_483208dc91e150c0c9b495b53fd62158>@@V?$allocator@H@std@@X$$V@std@@8 0048d830     TraceUI.obj
 0002:0000983c       ??_R1A@?0A@EA@?$_Func_impl@V<lambda_483208dc91e150c0c9b495b53fd62158>@@V?$allocator@H@std@@X$$V@std@@8 0048d83c     TraceUI.obj
 0002:0000bef0       __unwindtable$_main        0048fef0     main.obj
 0002:0000bf08       __ehfuncinfo$_main         0048ff08     main.obj
 0002:0000bf2c       __catchsym$?_Copy@?$basic_string@DU?$char_traits@D@std@@V?$allocator@D@2@@std@@QAEXI@Z$18 0048ff2c     RayTracer.obj
 0002:0000bf3c       __unwindtable$?_Copy@?$basic_string@DU?$char_traits@D@std@@V?$allocator@D@2@@std@@QAEXI@Z 0048ff3c     RayTracer.obj
 0002:0000bf4c       __tryblocktable$?_Copy@?$basic_string@DU?$char_traits@D@std@@V?$allocator@D@2@@std@@QAEXI@Z 0048ff4c     RayTracer.obj
 0002:0000bf60       __ehfuncinfo$?_Copy@?$basic_string@DU?$char_traits@D@std@@V?$allocator@D@2@@std@@QAEXI@Z 0048ff60     RayTracer.obj
 0002:0000bf84       __unwindtable$?trace@RayTracer@@QAE?AVvec3f@@PAVScene@@NN@Z 0048ff84     RayTracer.obj
 0002:0000bf94       __ehfuncinfo$?trace@RayTracer@@QAE?AVvec3f@@PAVScene@@NN@Z 0048ff94     RayTracer.obj
 0002:0000bfb8       __catchsym$?loadScene@RayTracer@@QAE_NPBD@Z$18 0048ffb8     RayTracer.obj
 0002:0000bfc8       __tryblocktable$?loadScene@RayTracer@@QAE_NPBD@Z 0048ffc8     RayTracer.obj
 0002:0000bfdc       __unwindtable$?loadScene@RayTracer@@QAE_NPBD@Z 0048ffdc     RayTracer.obj
 0002:0000bffc       __ehfuncinfo$?loadScene@RayTracer@@QAE_NPBD@Z 0048fffc     RayTracer.obj
 0002:0000c020       __unwindtable$??0?$deque@PBVMaterial@@V?$allocator@PBVMaterial@@@std@@@std@@QAE@ABV01@@Z 00490020     RayTracer.obj
 0002:0000c028       __ehfuncinfo$??0?$deque@PBVMaterial@@V?$allocator@PBVMaterial@@@std@@@std@@QAE@ABV01@@Z 00490028     RayTracer.obj
 0002:0000c04c       __unwindtable$?traceRay@RayTracer@@AAE?AVvec3f@@ABUTraceSet@1@@Z 0049004c     RayTracer.obj
 0002:0000c054       __ehfuncinfo$?traceRay@RayTracer@@AAE?AVvec3f@@ABUTraceSet@1@@Z 00490054     RayTracer.obj
 0002:0000c078       __unwindtable$?traceReflection@RayTracer@@AAE?AVvec3f@@ABUTraceSet@1@ABUReflectionSet@1@@Z 00490078     RayTracer.obj
 0002:0000c088       __ehfuncinfo$?traceReflection@RayTracer@@AAE?AVvec3f@@ABUTraceSet@1@ABUReflectionSet@1@@Z 00490088     RayTracer.obj
 0002:0000c0ac       __unwindtable$?traceRefraction@RayTracer@@AAE?AVvec3f@@ABUTraceSet@1@ABURefractionParam@1@@Z 004900ac     RayTracer.obj
 0002:0000c0bc       __ehfuncinfo$?traceRefraction@RayTracer@@AAE?AVvec3f@@ABUTraceSet@1@ABURefractionParam@1@@Z 004900bc     RayTracer.obj
 0002:0000c0e0       __catchsym$??$insert@V?$_Deque_const_iterator@V?$_Deque_val@U?$_Deque_simple_types@PBVMaterial@@@std@@@std@@@std@@@?$deque@PBVMaterial@@V?$allocator@PBVMaterial@@@std@@@std@@QAE?AV?$_Deque_iterator@V?$_Deque_val@U?$_Deque_simple_types@PBVMaterial@@@std@@@std@@@1@V?$_Deque_const_iterator@V?$_Deque_val@U?$_Deque_simple_types@PBVMaterial@@@std@@@std@@@1@00@Z$47 004900e0     RayTracer.obj
 0002:0000c0f0       __catchsym$??$insert@V?$_Deque_const_iterator@V?$_Deque_val@U?$_Deque_simple_types@PBVMaterial@@@std@@@std@@@std@@@?$deque@PBVMaterial@@V?$allocator@PBVMaterial@@@std@@@std@@QAE?AV?$_Deque_iterator@V?$_Deque_val@U?$_Deque_simple_types@PBVMaterial@@@std@@@std@@@1@V?$_Deque_const_iterator@V?$_Deque_val@U?$_Deque_simple_types@PBVMaterial@@@std@@@std@@@1@00@Z$46 004900f0     RayTracer.obj
 0002:0000c100       __unwindtable$??$insert@V?$_Deque_const_iterator@V?$_Deque_val@U?$_Deque_simple_types@PBVMaterial@@@std@@@std@@@std@@@?$deque@PBVMaterial@@V?$allocator@PBVMaterial@@@std@@@std@@QAE?AV?$_Deque_iterator@V?$_Deque_val@U?$_Deque_simple_types@PBVMaterial@@@std@@@std@@@1@V?$_Deque_const_iterator@V?$_Deque_val@U?$_Deque_simple_types@PBVMaterial@@@std@@@std@@@1@00@Z 00490100     RayTracer.obj
 0002:0000c120       __ehfuncinfo$??$insert@V?$_Deque_const_iterator@V?$_Deque_val@U?$_Deque_simple_types@PBVMaterial@@@std@@@std@@@std@@@?$deque@PBVMaterial@@V?$allocator@PBVMaterial@@@std@@@std@@QAE?AV?$_Deque_iterator@V?$_Deque_val@U?$_Deque_simple_types@PBVMaterial@@@std@@@std@@@1@V?$_Deque_const_iterator@V?$_Deque_val@U?$_Deque_simple_types@PBVMaterial@@@std@@@std@@@1@00@Z 00490120     RayTracer.obj
 0002:0000c144       __tryblocktable$??$insert@V?$_Deque_const_iterator@V?$_Deque_val@U?$_Deque_simple_types@PBVMaterial@@@std@@@std@@@std@@@?$deque@PBVMaterial@@V?$allocator@PBVMaterial@@@std@@@std@@QAE?AV?$_Deque_iterator@V?$_Deque_val@U?$_Deque_simple_types@PBVMaterial@@@std@@@std@@@1@V?$_Deque_const_iterator@V?$_Deque_val@U?$_Deque_simple_types@PBVMaterial@@@std@@@std@@@1@00@Z 00490144     RayTracer.obj
 0002:0000c16c       __catchsym$??$_Construct@V?$_Deque_const_iterator@V?$_Deque_val@U?$_Deque_simple_types@PBVMaterial@@@std@@@std@@@std@@@?$deque@PBVMaterial@@V?$allocator@PBVMaterial@@@std@@@std@@QAEXV?$_Deque_const_iterator@V?$_Deque_val@U?$_Deque_simple_types@PBVMaterial@@@std@@@std@@@1@0@Z$2 0049016c     RayTracer.obj
 0002:0000c17c       __unwindtable$??$_Construct@V?$_Deque_const_iterator@V?$_Deque_val@U?$_Deque_simple_types@PBVMaterial@@@std@@@std@@@std@@@?$deque@PBVMaterial@@V?$allocator@PBVMaterial@@@std@@@std@@QAEXV?$_Deque_const_iterator@V?$_Deque_val@U?$_Deque_simple_types@PBVMaterial@@@std@@@std@@@1@0@Z 0049017c     RayTracer.obj
 0002:0000c18c       __tryblocktable$??$_Construct@V?$_Deque_const_iterator@V?$_Deque_val@U?$_Deque_simple_types@PBVMaterial@@@std@@@std@@@std@@@?$deque@PBVMaterial@@V?$allocator@PBVMaterial@@@std@@@std@@QAEXV?$_Deque_const_iterator@V?$_Deque_val@U?$_Deque_simple_types@PBVMaterial@@@std@@@std@@@1@0@Z 0049018c     RayTracer.obj
 0002:0000c1a0       __ehfuncinfo$??$_Construct@V?$_Deque_const_iterator@V?$_Deque_val@U?$_Deque_simple_types@PBVMaterial@@@std@@@std@@@std@@@?$deque@PBVMaterial@@V?$allocator@PBVMaterial@@@std@@@std@@QAEXV?$_Deque_const_iterator@V?$_Deque_val@U?$_Deque_simple_types@PBVMaterial@@@std@@@std@@@1@0@Z 004901a0     RayTracer.obj
 0002:0000c1c4       __unwindtable$??0TraceGLWindow@@QAE@HHHHPBD@Z 004901c4     TraceGLWindow.obj
 0002:0000c1cc       __ehfuncinfo$??0TraceGLWindow@@QAE@HHHHPBD@Z 004901cc     TraceGLWindow.obj
 0002:0000c1f0       __unwindtable$?rethrow_exception@std@@YAXVexception_ptr@1@@Z 004901f0     TraceUI.obj
 0002:0000c1f8       __ehfuncinfo$?rethrow_exception@std@@YAXVexception_ptr@1@@Z 004901f8     TraceUI.obj
 0002:0000c21c       __unwindtable$?_Makestr@_System_error@std@@CA?AV?$basic_string@DU?$char_traits@D@std@@V?$allocator@D@2@@2@Verror_code@2@V32@@Z 0049021c     TraceUI.obj
 0002:0000c22c       __ehfuncinfo$?_Makestr@_System_error@std@@CA?AV?$basic_string@DU?$char_traits@D@std@@V?$allocator@D@2@@2@Verror_code@2@V32@@Z 0049022c     TraceUI.obj
 0002:0000c250       __unwindtable$??0system_error@std@@QAE@Verror_code@1@@Z 00490250     TraceUI.obj
 0002:0000c258       __ehfuncinfo$??0system_error@std@@QAE@Verror_code@1@@Z 00490258     TraceUI.obj
 0002:0000c27c       __ehfuncinfo$??1?$unique_lock@Vmutex@std@@@std@@QAE@XZ 0049027c     TraceUI.obj
 0002:0000c2a0       __ehfuncinfo$??1?$lock_guard@Vmutex@std@@@std@@QAE@XZ 004902a0     TraceUI.obj
 0002:0000c2c4       __unwindtable$?_Callback@_PPLTaskChore@_DefaultPPLTaskScheduler@details@Concurrency@@CAXPAX@Z 004902c4     TraceUI.obj
 0002:0000c2d4       __ehfuncinfo$?_Callback@_PPLTaskChore@_DefaultPPLTaskScheduler@details@Concurrency@@CAXPAX@Z 004902d4     TraceUI.obj
 0002:0000c2f8       __unwindtable$??_G_PPLTaskChore@_DefaultPPLTaskScheduler@details@Concurrency@@QAEPAXI@Z 004902f8     TraceUI.obj
 0002:0000c300       __ehfuncinfo$??_G_PPLTaskChore@_DefaultPPLTaskScheduler@details@Concurrency@@QAEPAXI@Z 00490300     TraceUI.obj
 0002:0000c324       __unwindtable$??1?$unique_ptr@V_PPLTaskChore@_DefaultPPLTaskScheduler@details@Concurrency@@U?$default_delete@V_PPLTaskChore@_DefaultPPLTaskScheduler@details@Concurrency@@@std@@@std@@QAE@XZ 00490324     TraceUI.obj
 0002:0000c32c       __ehfuncinfo$??1?$unique_ptr@V_PPLTaskChore@_DefaultPPLTaskScheduler@details@Concurrency@@U?$default_delete@V_PPLTaskChore@_DefaultPPLTaskScheduler@details@Concurrency@@@std@@@std@@QAE@XZ 0049032c     TraceUI.obj
 0002:0000c350       __unwindtable$?_Invoke@_CancellationTokenRegistration@details@Concurrency@@AAEXXZ 00490350     TraceUI.obj
 0002:0000c360       __ehfuncinfo$?_Invoke@_CancellationTokenRegistration@details@Concurrency@@AAEXXZ 00490360     TraceUI.obj
 0002:0000c384       __unwindtable$?_RegisterCallback@_CancellationTokenState@details@Concurrency@@QAEXPAV_CancellationTokenRegistration@23@@Z 00490384     TraceUI.obj
 0002:0000c394       __ehfuncinfo$?_RegisterCallback@_CancellationTokenState@details@Concurrency@@QAEXPAV_CancellationTokenRegistration@23@@Z 00490394     TraceUI.obj
 0002:0000c3b8       __unwindtable$?_DeregisterCallback@_CancellationTokenState@details@Concurrency@@QAEXPAV_CancellationTokenRegistration@23@@Z 004903b8     TraceUI.obj
 0002:0000c3d8       __ehfuncinfo$?_DeregisterCallback@_CancellationTokenState@details@Concurrency@@QAEXPAV_CancellationTokenRegistration@23@@Z 004903d8     TraceUI.obj
 0002:0000c3fc       __ehfuncinfo$??1cancellation_token@Concurrency@@QAE@XZ 004903fc     TraceUI.obj
 0002:0000c420       __unwindtable$?_RunChoreBridge@_TaskProcHandle@details@Concurrency@@SAXPAX@Z 00490420     TraceUI.obj
 0002:0000c428       __ehfuncinfo$?_RunChoreBridge@_TaskProcHandle@details@Concurrency@@SAXPAX@Z 00490428     TraceUI.obj
 0002:0000c44c       __unwindtable$?_SetCollectionState@_TaskCollectionBaseImpl@details@Concurrency@@IAEXW4_TaskCollectionState@123@@Z 0049044c     TraceUI.obj
 0002:0000c45c       __ehfuncinfo$?_SetCollectionState@_TaskCollectionBaseImpl@details@Concurrency@@IAEXW4_TaskCollectionState@123@@Z 0049045c     TraceUI.obj
 0002:0000c480       __unwindtable$?WaitUntilStateChangedTo@_TaskCollectionBaseImpl@details@Concurrency@@IAEXW4_TaskCollectionState@123@@Z 00490480     TraceUI.obj
 0002:0000c490       __ehfuncinfo$?WaitUntilStateChangedTo@_TaskCollectionBaseImpl@details@Concurrency@@IAEXW4_TaskCollectionState@123@@Z 00490490     TraceUI.obj
 0002:0000c4b4       __unwindtable$?_ScheduleTask@_TaskCollectionBaseImpl@details@Concurrency@@QAEXPAU_TaskProcHandle@23@W4_TaskInliningMode@23@@Z 004904b4     TraceUI.obj
 0002:0000c4bc       __ehfuncinfo$?_ScheduleTask@_TaskCollectionBaseImpl@details@Concurrency@@QAEXPAU_TaskProcHandle@23@W4_TaskInliningMode@23@@Z 004904bc     TraceUI.obj
 0002:0000c4e0       __unwindtable$?_RunTask@_TaskCollectionBaseImpl@details@Concurrency@@SAXP6AXPAX@Z0W4_TaskInliningMode@23@@Z 004904e0     TraceUI.obj
 0002:0000c4e8       __ehfuncinfo$?_RunTask@_TaskCollectionBaseImpl@details@Concurrency@@SAXP6AXPAX@Z0W4_TaskInliningMode@23@@Z 004904e8     TraceUI.obj
 0002:0000c50c       __unwindtable$?_Bridge@_TaskProcThunk@details@Concurrency@@SAXPAX@Z 0049050c     TraceUI.obj
 0002:0000c514       __ehfuncinfo$?_Bridge@_TaskProcThunk@details@Concurrency@@SAXPAX@Z 00490514     TraceUI.obj
 0002:0000c538       __unwindtable$?_ScheduleFuncWithAutoInline@details@Concurrency@@YAXABV?$function@$$A6AXXZ@std@@W4_TaskInliningMode@12@@Z 00490538     TraceUI.obj
 0002:0000c548       __ehfuncinfo$?_ScheduleFuncWithAutoInline@details@Concurrency@@YAXABV?$function@$$A6AXXZ@std@@W4_TaskInliningMode@12@@Z 00490548     TraceUI.obj
 0002:0000c56c       __unwindtable$?_CaptureCurrent@_ContextCallback@details@Concurrency@@SA?AV123@XZ 0049056c     TraceUI.obj
 0002:0000c574       __ehfuncinfo$?_CaptureCurrent@_ContextCallback@details@Concurrency@@SA?AV123@XZ 00490574     TraceUI.obj
 0002:0000c598       __ehfuncinfo$??1_ContextCallback@details@Concurrency@@QAE@XZ 00490598     TraceUI.obj
 0002:0000c5bc       __unwindtable$?_CallInContext@_ContextCallback@details@Concurrency@@QBEXV?$function@$$A6AXXZ@std@@@Z 004905bc     TraceUI.obj
 0002:0000c5cc       __ehfuncinfo$?_CallInContext@_ContextCallback@details@Concurrency@@QBEXV?$function@$$A6AXXZ@std@@@Z 004905cc     TraceUI.obj
 0002:0000c5f0       __ehfuncinfo$??1_ExceptionHolder@details@Concurrency@@QAE@XZ 004905f0     TraceUI.obj
 0002:0000c614       __unwindtable$??0task_options@Concurrency@@QAE@XZ 00490614     TraceUI.obj
 0002:0000c624       __ehfuncinfo$??0task_options@Concurrency@@QAE@XZ 00490624     TraceUI.obj
 0002:0000c648       __unwindtable$??1task_options@Concurrency@@QAE@XZ 00490648     TraceUI.obj
 0002:0000c658       __ehfuncinfo$??1task_options@Concurrency@@QAE@XZ 00490658     TraceUI.obj
 0002:0000c67c       __ehfuncinfo$??1_TaskWorkItemRAIILogger@details@Concurrency@@QAE@XZ 0049067c     TraceUI.obj
 0002:0000c6a0       __ehfuncinfo$??1_Task_impl_base@details@Concurrency@@UAE@XZ 004906a0     TraceUI.obj
 0002:0000c6c4       __tryblocktable$?_Wait@_Task_impl_base@details@Concurrency@@QAE?AW4task_group_status@3@XZ 004906c4     TraceUI.obj
 0002:0000c6d8       __unwindtable$?_Wait@_Task_impl_base@details@Concurrency@@QAE?AW4task_group_status@3@XZ 004906d8     TraceUI.obj
 0002:0000c6f0       __ehfuncinfo$?_Wait@_Task_impl_base@details@Concurrency@@QAE?AW4task_group_status@3@XZ 004906f0     TraceUI.obj
 0002:0000c714       __catchsym$?_Wait@_Task_impl_base@details@Concurrency@@QAE?AW4task_group_status@3@XZ$9 00490714     TraceUI.obj
 0002:0000c744       __unwindtable$?_CancelWithException@_Task_impl_base@details@Concurrency@@QAE_NABVexception_ptr@std@@@Z 00490744     TraceUI.obj
 0002:0000c754       __ehfuncinfo$?_CancelWithException@_Task_impl_base@details@Concurrency@@QAE_NABVexception_ptr@std@@@Z 00490754     TraceUI.obj
 0002:0000c778       __unwindtable$?_RegisterCancellation@_Task_impl_base@details@Concurrency@@QAEXV?$weak_ptr@U_Task_impl_base@details@Concurrency@@@std@@@Z 00490778     TraceUI.obj
 0002:0000c788       __ehfuncinfo$?_RegisterCancellation@_Task_impl_base@details@Concurrency@@QAEXV?$weak_ptr@U_Task_impl_base@details@Concurrency@@@std@@@Z 00490788     TraceUI.obj
 0002:0000c7ac       __tryblocktable$?_ScheduleTask@_Task_impl_base@details@Concurrency@@QAEXPAU_TaskProcHandle@23@W4_TaskInliningMode@23@@Z 004907ac     TraceUI.obj
 0002:0000c7c0       __unwindtable$?_ScheduleTask@_Task_impl_base@details@Concurrency@@QAEXPAU_TaskProcHandle@23@W4_TaskInliningMode@23@@Z 004907c0     TraceUI.obj
 0002:0000c7d8       __ehfuncinfo$?_ScheduleTask@_Task_impl_base@details@Concurrency@@QAEXPAU_TaskProcHandle@23@W4_TaskInliningMode@23@@Z 004907d8     TraceUI.obj
 0002:0000c7fc       __catchsym$?_ScheduleTask@_Task_impl_base@details@Concurrency@@QAEXPAU_TaskProcHandle@23@W4_TaskInliningMode@23@@Z$7 004907fc     TraceUI.obj
 0002:0000c82c       __unwindtable$?_RunTaskContinuations@_Task_impl_base@details@Concurrency@@QAEXXZ 0049082c     TraceUI.obj
 0002:0000c84c       __ehfuncinfo$?_RunTaskContinuations@_Task_impl_base@details@Concurrency@@QAEXXZ 0049084c     TraceUI.obj
 0002:0000c870       __unwindtable$??$make_shared@U_ExceptionHolder@details@Concurrency@@ABVexception_ptr@std@@V_TaskCreationCallstack@23@@std@@YA?AV?$shared_ptr@U_ExceptionHolder@details@Concurrency@@@0@ABVexception_ptr@0@$$QAV_TaskCreationCallstack@details@Concurrency@@@Z 00490870     TraceUI.obj
 0002:0000c878       __ehfuncinfo$??$make_shared@U_ExceptionHolder@details@Concurrency@@ABVexception_ptr@std@@V_TaskCreationCallstack@23@@std@@YA?AV?$shared_ptr@U_ExceptionHolder@details@Concurrency@@@0@ABVexception_ptr@0@$$QAV_TaskCreationCallstack@details@Concurrency@@@Z 00490878     TraceUI.obj
 0002:0000c89c       __unwindtable$?_Exec@?$_CancellationTokenCallback@V<lambda_3b8ab8d2629adf61a42ee3fe177a046b>@@@details@Concurrency@@MAEXXZ 0049089c     TraceUI.obj
 0002:0000c8a4       __ehfuncinfo$?_Exec@?$_CancellationTokenCallback@V<lambda_3b8ab8d2629adf61a42ee3fe177a046b>@@@details@Concurrency@@MAEXXZ 004908a4     TraceUI.obj
 0002:0000c8c8       __catchsym$??R<lambda_7c33b2c4310ad8c6be497d7a2a561bb8>@@QBEXXZ$41 004908c8     TraceUI.obj
 0002:0000c8d8       __tryblocktable$??R<lambda_7c33b2c4310ad8c6be497d7a2a561bb8>@@QBEXXZ 004908d8     TraceUI.obj
 0002:0000c8ec       __ehfuncinfo$??R<lambda_7c33b2c4310ad8c6be497d7a2a561bb8>@@QBEXXZ 004908ec     TraceUI.obj
 0002:0000c910       __unwindtable$??R<lambda_7c33b2c4310ad8c6be497d7a2a561bb8>@@QBEXXZ 00490910     TraceUI.obj
 0002:0000c938       __unwindtable$?_MakeVoidToUnitFunc@details@Concurrency@@YA?AV?$function@$$A6AEXZ@std@@ABV?$function@$$A6AXXZ@4@@Z 00490938     TraceUI.obj
 0002:0000c950       __ehfuncinfo$?_MakeVoidToUnitFunc@details@Concurrency@@YA?AV?$function@$$A6AEXZ@std@@ABV?$function@$$A6AXXZ@4@@Z 00490950     TraceUI.obj
 0002:0000c974       __unwindtable$?_Make@?$_Task_ptr@E@details@Concurrency@@SA?AV?$shared_ptr@U?$_Task_impl@E@details@Concurrency@@@std@@PAV_CancellationTokenState@23@Uscheduler_ptr@3@@Z 00490974     TraceUI.obj
 0002:0000c97c       __ehfuncinfo$?_Make@?$_Task_ptr@E@details@Concurrency@@SA?AV?$shared_ptr@U?$_Task_impl@E@details@Concurrency@@@std@@PAV_CancellationTokenState@23@Uscheduler_ptr@3@@Z 0049097c     TraceUI.obj
 0002:0000c9a0       __unwindtable$?_Perform@?$_Init_func_transformer@X@Concurrency@@SA?AV?$function@$$A6AEXZ@std@@V?$function@$$A6AXXZ@4@@Z 004909a0     TraceUI.obj
 0002:0000c9a8       __ehfuncinfo$?_Perform@?$_Init_func_transformer@X@Concurrency@@SA?AV?$function@$$A6AEXZ@std@@V?$function@$$A6AXXZ@4@@Z 004909a8     TraceUI.obj
 0002:0000c9cc       __unwindtable$?_CreateImpl@?$task@E@Concurrency@@QAEXPAV_CancellationTokenState@details@2@Uscheduler_ptr@2@@Z 004909cc     TraceUI.obj
 0002:0000c9d4       __ehfuncinfo$?_CreateImpl@?$task@E@Concurrency@@QAEXPAV_CancellationTokenState@details@2@Uscheduler_ptr@2@@Z 004909d4     TraceUI.obj
 0002:0000c9f8       __ehfuncinfo$??1?$_Task_impl@E@details@Concurrency@@UAE@XZ 004909f8     TraceUI.obj
 0002:0000ca1c       __unwindtable$?_CancelAndRunContinuations@?$_Task_impl@E@details@Concurrency@@UAE_N_N00ABV?$shared_ptr@U_ExceptionHolder@details@Concurrency@@@std@@@Z 00490a1c     TraceUI.obj
 0002:0000ca3c       __ehfuncinfo$?_CancelAndRunContinuations@?$_Task_impl@E@details@Concurrency@@UAE_N_N00ABV?$shared_ptr@U_ExceptionHolder@details@Concurrency@@@std@@@Z 00490a3c     TraceUI.obj
 0002:0000ca60       __unwindtable$?_FinalizeAndRunContinuations@?$_Task_impl@E@details@Concurrency@@QAEXE@Z 00490a60     TraceUI.obj
 0002:0000ca70       __ehfuncinfo$?_FinalizeAndRunContinuations@?$_Task_impl@E@details@Concurrency@@QAEXE@Z 00490a70     TraceUI.obj
 0002:0000ca94       __ehfuncinfo$??1?$_Associated_state@H@std@@UAE@XZ 00490a94     TraceUI.obj
 0002:0000cab8       __unwindtable$?_Wait@?$_Associated_state@H@std@@UAEXXZ 00490ab8     TraceUI.obj
 0002:0000cac8       __ehfuncinfo$?_Wait@?$_Associated_state@H@std@@UAEXXZ 00490ac8     TraceUI.obj
 0002:0000caec       __unwindtable$?_Get_value@?$_Associated_state@H@std@@UAEAAH_N@Z 00490aec     TraceUI.obj
 0002:0000cafc       __ehfuncinfo$?_Get_value@?$_Associated_state@H@std@@UAEAAH_N@Z 00490afc     TraceUI.obj
 0002:0000cb20       __unwindtable$?_Set_value@?$_Associated_state@H@std@@QAEX$$QAH_N@Z 00490b20     TraceUI.obj
 0002:0000cb30       __ehfuncinfo$?_Set_value@?$_Associated_state@H@std@@QAEX$$QAH_N@Z 00490b30     TraceUI.obj
 0002:0000cb54       __unwindtable$?_Set_exception@?$_Associated_state@H@std@@QAEXVexception_ptr@2@_N@Z 00490b54     TraceUI.obj
 0002:0000cb6c       __ehfuncinfo$?_Set_exception@?$_Associated_state@H@std@@QAEXVexception_ptr@2@_N@Z 00490b6c     TraceUI.obj
 0002:0000cb90       __unwindtable$?_Set_exception_raw@?$_Associated_state@H@std@@QAEXVexception_ptr@2@PAV?$unique_lock@Vmutex@std@@@2@_N@Z 00490b90     TraceUI.obj
 0002:0000cb98       __ehfuncinfo$?_Set_exception_raw@?$_Associated_state@H@std@@QAEXVexception_ptr@2@PAV?$unique_lock@Vmutex@std@@@2@_N@Z 00490b98     TraceUI.obj
 0002:0000cbbc       __unwindtable$?_Do_notify@?$_Associated_state@H@std@@EAEXPAV?$unique_lock@Vmutex@std@@@2@_N@Z 00490bbc     TraceUI.obj
 0002:0000cbc4       __ehfuncinfo$?_Do_notify@?$_Associated_state@H@std@@EAEXPAV?$unique_lock@Vmutex@std@@@2@_N@Z 00490bc4     TraceUI.obj
 0002:0000cbe8       __ehfuncinfo$??_G?$_Associated_state@H@std@@UAEPAXI@Z 00490be8     TraceUI.obj
 0002:0000cc0c       __unwindtable$??1?$future@X@std@@QAE@XZ 00490c0c     TraceUI.obj
 0002:0000cc14       __ehfuncinfo$??1?$future@X@std@@QAE@XZ 00490c14     TraceUI.obj
 0002:0000cc38       __unwindtable$??1?$_Promise@H@std@@QAE@XZ 00490c38     TraceUI.obj
 0002:0000cc40       __ehfuncinfo$??1?$_Promise@H@std@@QAE@XZ 00490c40     TraceUI.obj
 0002:0000cc64       __ehfuncinfo$??0TraceUI@@QAE@XZ 00490c64     TraceUI.obj
 0002:0000cc88       __unwindtable$??0TraceUI@@QAE@XZ 00490c88     TraceUI.obj
 0002:0000cd30       __ehfuncinfo$?cb_render@TraceUI@@CAXPAVFl_Widget@@PAX@Z 00490d30     TraceUI.obj
 0002:0000cd54       __unwindtable$?cb_render@TraceUI@@CAXPAVFl_Widget@@PAX@Z 00490d54     TraceUI.obj
 0002:0000cd84       __ehfuncinfo$??1?$vector@V?$future@X@std@@V?$allocator@V?$future@X@std@@@2@@std@@QAE@XZ 00490d84     TraceUI.obj
 0002:0000cda8       __unwindtable$??$async@A6AXPAVTraceUI@@HHH@ZAAPAV1@HHAAH@std@@YA?AV?$future@X@0@W4launch@0@A6AXPAVTraceUI@@HHH@ZAAPAV3@$$QAH4AAH@Z 00490da8     TraceUI.obj
 0002:0000cdb8       __ehfuncinfo$??$async@A6AXPAVTraceUI@@HHH@ZAAPAV1@HHAAH@std@@YA?AV?$future@X@0@W4launch@0@A6AXPAVTraceUI@@HHH@ZAAPAV3@$$QAH4AAH@Z 00490db8     TraceUI.obj
 0002:0000cddc       __unwindtable$??$async@A6AXPAVTraceUI@@HHH@ZAAPAV1@HAAHAAH@std@@YA?AV?$future@X@0@W4launch@0@A6AXPAVTraceUI@@HHH@ZAAPAV3@$$QAHAAH5@Z 00490ddc     TraceUI.obj
 0002:0000cdec       __ehfuncinfo$??$async@A6AXPAVTraceUI@@HHH@ZAAPAV1@HAAHAAH@std@@YA?AV?$future@X@0@W4launch@0@A6AXPAVTraceUI@@HHH@ZAAPAV3@$$QAHAAH5@Z 00490dec     TraceUI.obj
 0002:0000ce10       __catchsym$??$emplace_back@V?$future@X@std@@@?$vector@V?$future@X@std@@V?$allocator@V?$future@X@std@@@2@@std@@QAEX$$QAV?$future@X@1@@Z$108 00490e10     TraceUI.obj
 0002:0000ce20       __tryblocktable$??$emplace_back@V?$future@X@std@@@?$vector@V?$future@X@std@@V?$allocator@V?$future@X@std@@@2@@std@@QAEX$$QAV?$future@X@1@@Z 00490e20     TraceUI.obj
 0002:0000ce34       __unwindtable$??$emplace_back@V?$future@X@std@@@?$vector@V?$future@X@std@@V?$allocator@V?$future@X@std@@@2@@std@@QAEX$$QAV?$future@X@1@@Z 00490e34     TraceUI.obj
 0002:0000ce54       __ehfuncinfo$??$emplace_back@V?$future@X@std@@@?$vector@V?$future@X@std@@V?$allocator@V?$future@X@std@@@2@@std@@QAEX$$QAV?$future@X@1@@Z 00490e54     TraceUI.obj
 0002:0000ce78       __unwindtable$??$?0ABVexception_ptr@std@@V_TaskCreationCallstack@details@Concurrency@@@?$_Ref_count_obj@U_ExceptionHolder@details@Concurrency@@@std@@QAE@ABVexception_ptr@1@$$QAV_TaskCreationCallstack@details@Concurrency@@@Z 00490e78     TraceUI.obj
 0002:0000ce90       __ehfuncinfo$??$?0ABVexception_ptr@std@@V_TaskCreationCallstack@details@Concurrency@@@?$_Ref_count_obj@U_ExceptionHolder@details@Concurrency@@@std@@QAE@ABVexception_ptr@1@$$QAV_TaskCreationCallstack@details@Concurrency@@@Z 00490e90     TraceUI.obj
 0002:0000ceb4       __unwindtable$??$_Get_associated_state@XV?$_Fake_no_copy_callable_adapter@A6AXPAVTraceUI@@HHH@ZAAPAV1@HHAAH@std@@@std@@YAPAV?$_Associated_state@H@0@W4launch@0@$$QAV?$_Fake_no_copy_callable_adapter@A6AXPAVTraceUI@@HHH@ZAAPAV1@HHAAH@0@@Z 00490eb4     TraceUI.obj
 0002:0000cecc       __ehfuncinfo$??$_Get_associated_state@XV?$_Fake_no_copy_callable_adapter@A6AXPAVTraceUI@@HHH@ZAAPAV1@HHAAH@std@@@std@@YAPAV?$_Associated_state@H@0@W4launch@0@$$QAV?$_Fake_no_copy_callable_adapter@A6AXPAVTraceUI@@HHH@ZAAPAV1@HHAAH@0@@Z 00490ecc     TraceUI.obj
 0002:0000cef0       __unwindtable$??$_Get_associated_state@XV?$_Fake_no_copy_callable_adapter@A6AXPAVTraceUI@@HHH@ZAAPAV1@HAAHAAH@std@@@std@@YAPAV?$_Associated_state@H@0@W4launch@0@$$QAV?$_Fake_no_copy_callable_adapter@A6AXPAVTraceUI@@HHH@ZAAPAV1@HAAHAAH@0@@Z 00490ef0     TraceUI.obj
 0002:0000cf08       __ehfuncinfo$??$_Get_associated_state@XV?$_Fake_no_copy_callable_adapter@A6AXPAVTraceUI@@HHH@ZAAPAV1@HAAHAAH@std@@@std@@YAPAV?$_Associated_state@H@0@W4launch@0@$$QAV?$_Fake_no_copy_callable_adapter@A6AXPAVTraceUI@@HHH@ZAAPAV1@HAAHAAH@0@@Z 00490f08     TraceUI.obj
 0002:0000cf2c       __unwindtable$??$_Wait_for@_JU?$ratio@$00$0DOI@@std@@@?$_Associated_state@H@std@@QAE?AW4future_status@1@ABV?$duration@_JU?$ratio@$00$0DOI@@std@@@chrono@1@@Z 00490f2c     TraceUI.obj
 0002:0000cf3c       __ehfuncinfo$??$_Wait_for@_JU?$ratio@$00$0DOI@@std@@@?$_Associated_state@H@std@@QAE?AW4future_status@1@ABV?$duration@_JU?$ratio@$00$0DOI@@std@@@chrono@1@@Z 00490f3c     TraceUI.obj
 0002:0000cf60       __unwindtable$??$destroy@V?$future@X@std@@@?$_Wrap_alloc@V?$allocator@V?$future@X@std@@@std@@@std@@QAEXPAV?$future@X@1@@Z 00490f60     TraceUI.obj
 0002:0000cf68       __ehfuncinfo$??$destroy@V?$future@X@std@@@?$_Wrap_alloc@V?$allocator@V?$future@X@std@@@std@@@std@@QAEXPAV?$future@X@1@@Z 00490f68     TraceUI.obj
 0002:0000cf8c       __unwindtable$??$_Destroy_range1@V?$allocator@V?$future@X@std@@@std@@PAV?$future@X@2@@std@@YAXPAV?$future@X@0@0AAU?$_Wrap_alloc@V?$allocator@V?$future@X@std@@@std@@@0@U?$integral_constant@_N$0A@@0@@Z 00490f8c     TraceUI.obj
 0002:0000cf94       __ehfuncinfo$??$_Destroy_range1@V?$allocator@V?$future@X@std@@@std@@PAV?$future@X@2@@std@@YAXPAV?$future@X@0@0AAU?$_Wrap_alloc@V?$allocator@V?$future@X@std@@@std@@@0@U?$integral_constant@_N$0A@@0@@Z 00490f94     TraceUI.obj
 0002:0000cfb8       __catchsym$?_Call_immediate@?$_Packaged_state@$$A6AXXZ@std@@QAEXXZ$6 00490fb8     TraceUI.obj
 0002:0000cfc8       __unwindtable$?_Call_immediate@?$_Packaged_state@$$A6AXXZ@std@@QAEXXZ 00490fc8     TraceUI.obj
 0002:0000cfd8       __tryblocktable$?_Call_immediate@?$_Packaged_state@$$A6AXXZ@std@@QAEXXZ 00490fd8     TraceUI.obj
 0002:0000cfec       __ehfuncinfo$?_Call_immediate@?$_Packaged_state@$$A6AXXZ@std@@QAEXXZ 00490fec     TraceUI.obj
 0002:0000d010       __ehfuncinfo$??1?$_Packaged_state@$$A6AXXZ@std@@UAE@XZ 00491010     TraceUI.obj
 0002:0000d034       __ehfuncinfo$??1?$_Task_async_state@X$0A@@std@@UAE@XZ 00491034     TraceUI.obj
 0002:0000d058       __unwindtable$??_G?$_Task_async_state@X$0A@@std@@UAEPAXI@Z 00491058     TraceUI.obj
 0002:0000d060       __ehfuncinfo$??_G?$_Task_async_state@X$0A@@std@@UAEPAXI@Z 00491060     TraceUI.obj
 0002:0000d084       __unwindtable$??$?0V?$_Fake_no_copy_callable_adapter@A6AXPAVTraceUI@@HHH@ZAAPAV1@HHAAH@std@@@?$_Task_async_state@X$0A@@std@@QAE@$$QAV?$_Fake_no_copy_callable_adapter@A6AXPAVTraceUI@@HHH@ZAAPAV1@HHAAH@1@@Z 00491084     TraceUI.obj
 0002:0000d094       __ehfuncinfo$??$?0V?$_Fake_no_copy_callable_adapter@A6AXPAVTraceUI@@HHH@ZAAPAV1@HHAAH@std@@@?$_Task_async_state@X$0A@@std@@QAE@$$QAV?$_Fake_no_copy_callable_adapter@A6AXPAVTraceUI@@HHH@ZAAPAV1@HHAAH@1@@Z 00491094     TraceUI.obj
 0002:0000d0b8       __ehfuncinfo$??1?$_Task_async_state@X$00@std@@UAE@XZ 004910b8     TraceUI.obj
 0002:0000d0dc       __unwindtable$??$?0V?$_Fake_no_copy_callable_adapter@A6AXPAVTraceUI@@HHH@ZAAPAV1@HHAAH@std@@@?$_Task_async_state@X$00@std@@QAE@$$QAV?$_Fake_no_copy_callable_adapter@A6AXPAVTraceUI@@HHH@ZAAPAV1@HHAAH@1@@Z 004910dc     TraceUI.obj
 0002:0000d0ec       __ehfuncinfo$??$?0V?$_Fake_no_copy_callable_adapter@A6AXPAVTraceUI@@HHH@ZAAPAV1@HHAAH@std@@@?$_Task_async_state@X$00@std@@QAE@$$QAV?$_Fake_no_copy_callable_adapter@A6AXPAVTraceUI@@HHH@ZAAPAV1@HHAAH@1@@Z 004910ec     TraceUI.obj
 0002:0000d110       __unwindtable$??$?0V?$_Fake_no_copy_callable_adapter@A6AXPAVTraceUI@@HHH@ZAAPAV1@HAAHAAH@std@@@?$_Task_async_state@X$0A@@std@@QAE@$$QAV?$_Fake_no_copy_callable_adapter@A6AXPAVTraceUI@@HHH@ZAAPAV1@HAAHAAH@1@@Z 00491110     TraceUI.obj
 0002:0000d120       __ehfuncinfo$??$?0V?$_Fake_no_copy_callable_adapter@A6AXPAVTraceUI@@HHH@ZAAPAV1@HAAHAAH@std@@@?$_Task_async_state@X$0A@@std@@QAE@$$QAV?$_Fake_no_copy_callable_adapter@A6AXPAVTraceUI@@HHH@ZAAPAV1@HAAHAAH@1@@Z 00491120     TraceUI.obj
 0002:0000d144       __unwindtable$??$?0V?$_Fake_no_copy_callable_adapter@A6AXPAVTraceUI@@HHH@ZAAPAV1@HAAHAAH@std@@@?$_Task_async_state@X$00@std@@QAE@$$QAV?$_Fake_no_copy_callable_adapter@A6AXPAVTraceUI@@HHH@ZAAPAV1@HAAHAAH@1@@Z 00491144     TraceUI.obj
 0002:0000d154       __ehfuncinfo$??$?0V?$_Fake_no_copy_callable_adapter@A6AXPAVTraceUI@@HHH@ZAAPAV1@HAAHAAH@std@@@?$_Task_async_state@X$00@std@@QAE@$$QAV?$_Fake_no_copy_callable_adapter@A6AXPAVTraceUI@@HHH@ZAAPAV1@HAAHAAH@1@@Z 00491154     TraceUI.obj
 0002:0000d178       __unwindtable$??$_Uninitialized_move_al_unchecked@PAV?$future@X@std@@PAV12@V?$allocator@V?$future@X@std@@@2@@std@@YAPAV?$future@X@0@PAV10@00AAU?$_Wrap_alloc@V?$allocator@V?$future@X@std@@@std@@@0@U_General_ptr_iterator_tag@0@U_Any_tag@0@@Z 00491178     TraceUI.obj
 0002:0000d190       __ehfuncinfo$??$_Uninitialized_move_al_unchecked@PAV?$future@X@std@@PAV12@V?$allocator@V?$future@X@std@@@2@@std@@YAPAV?$future@X@0@PAV10@00AAU?$_Wrap_alloc@V?$allocator@V?$future@X@std@@@std@@@0@U_General_ptr_iterator_tag@0@U_Any_tag@0@@Z 00491190     TraceUI.obj
 0002:0000d1b4       __unwindtable$?_Move@?$_Func_impl@V<lambda_cab26a778e4185933e9c5b0cfaedfe5e>@@V?$allocator@H@std@@E$$V@std@@EAEPAV?$_Func_base@E$$V@2@PAX@Z 004911b4     TraceUI.obj
 0002:0000d1cc       __ehfuncinfo$?_Move@?$_Func_impl@V<lambda_cab26a778e4185933e9c5b0cfaedfe5e>@@V?$allocator@H@std@@E$$V@std@@EAEPAV?$_Func_base@E$$V@2@PAX@Z 004911cc     TraceUI.obj
 0002:0000d1f0       __catchsym$??$_Reset_impl@V<lambda_cab26a778e4185933e9c5b0cfaedfe5e>@@V?$allocator@H@std@@V?$_Func_impl@V<lambda_cab26a778e4185933e9c5b0cfaedfe5e>@@V?$allocator@H@std@@E$$V@3@U?$_Wrap_alloc@V?$allocator@V?$_Func_impl@V<lambda_cab26a778e4185933e9c5b0cfaedfe5e>@@V?$allocator@H@std@@E$$V@std@@@std@@@3@@?$_Func_class@E$$V@std@@IAEX$$QAV<lambda_cab26a778e4185933e9c5b0cfaedfe5e>@@ABV?$allocator@H@1@PAV?$_Func_impl@V<lambda_cab26a778e4185933e9c5b0cfaedfe5e>@@V?$allocator@H@std@@E$$V@1@AAU?$_Wrap_alloc@V?$allocator@V?$_Func_impl@V<lambda_cab26a778e4185933e9c5b0cfaedfe5e>@@V?$allocator@H@std@@E$$V@std@@@std@@@1@U?$integral_constant@_N$00@1@@Z$29 004911f0     TraceUI.obj
 0002:0000d200       __tryblocktable$??$_Reset_impl@V<lambda_cab26a778e4185933e9c5b0cfaedfe5e>@@V?$allocator@H@std@@V?$_Func_impl@V<lambda_cab26a778e4185933e9c5b0cfaedfe5e>@@V?$allocator@H@std@@E$$V@3@U?$_Wrap_alloc@V?$allocator@V?$_Func_impl@V<lambda_cab26a778e4185933e9c5b0cfaedfe5e>@@V?$allocator@H@std@@E$$V@std@@@std@@@3@@?$_Func_class@E$$V@std@@IAEX$$QAV<lambda_cab26a778e4185933e9c5b0cfaedfe5e>@@ABV?$allocator@H@1@PAV?$_Func_impl@V<lambda_cab26a778e4185933e9c5b0cfaedfe5e>@@V?$allocator@H@std@@E$$V@1@AAU?$_Wrap_alloc@V?$allocator@V?$_Func_impl@V<lambda_cab26a778e4185933e9c5b0cfaedfe5e>@@V?$allocator@H@std@@E$$V@std@@@std@@@1@U?$integral_constant@_N$00@1@@Z 00491200     TraceUI.obj
 0002:0000d214       __ehfuncinfo$??$_Reset_impl@V<lambda_cab26a778e4185933e9c5b0cfaedfe5e>@@V?$allocator@H@std@@V?$_Func_impl@V<lambda_cab26a778e4185933e9c5b0cfaedfe5e>@@V?$allocator@H@std@@E$$V@3@U?$_Wrap_alloc@V?$allocator@V?$_Func_impl@V<lambda_cab26a778e4185933e9c5b0cfaedfe5e>@@V?$allocator@H@std@@E$$V@std@@@std@@@3@@?$_Func_class@E$$V@std@@IAEX$$QAV<lambda_cab26a778e4185933e9c5b0cfaedfe5e>@@ABV?$allocator@H@1@PAV?$_Func_impl@V<lambda_cab26a778e4185933e9c5b0cfaedfe5e>@@V?$allocator@H@std@@E$$V@1@AAU?$_Wrap_alloc@V?$allocator@V?$_Func_impl@V<lambda_cab26a778e4185933e9c5b0cfaedfe5e>@@V?$allocator@H@std@@E$$V@std@@@std@@@1@U?$integral_constant@_N$00@1@@Z 00491214     TraceUI.obj
 0002:0000d238       __unwindtable$??$_Reset_impl@V<lambda_cab26a778e4185933e9c5b0cfaedfe5e>@@V?$allocator@H@std@@V?$_Func_impl@V<lambda_cab26a778e4185933e9c5b0cfaedfe5e>@@V?$allocator@H@std@@E$$V@3@U?$_Wrap_alloc@V?$allocator@V?$_Func_impl@V<lambda_cab26a778e4185933e9c5b0cfaedfe5e>@@V?$allocator@H@std@@E$$V@std@@@std@@@3@@?$_Func_class@E$$V@std@@IAEX$$QAV<lambda_cab26a778e4185933e9c5b0cfaedfe5e>@@ABV?$allocator@H@1@PAV?$_Func_impl@V<lambda_cab26a778e4185933e9c5b0cfaedfe5e>@@V?$allocator@H@std@@E$$V@1@AAU?$_Wrap_alloc@V?$allocator@V?$_Func_impl@V<lambda_cab26a778e4185933e9c5b0cfaedfe5e>@@V?$allocator@H@std@@E$$V@std@@@std@@@1@U?$integral_constant@_N$00@1@@Z 00491238     TraceUI.obj
 0002:0000d260       __unwindtable$??$create_task@V<lambda_855a1ef4dbee54ab7f2f1e055b9bdfad>@@@Concurrency@@YA?AV?$task@X@0@V<lambda_855a1ef4dbee54ab7f2f1e055b9bdfad>@@Vtask_options@0@@Z 00491260     TraceUI.obj
 0002:0000d270       __ehfuncinfo$??$create_task@V<lambda_855a1ef4dbee54ab7f2f1e055b9bdfad>@@@Concurrency@@YA?AV?$task@X@0@V<lambda_855a1ef4dbee54ab7f2f1e055b9bdfad>@@Vtask_options@0@@Z 00491270     TraceUI.obj
 0002:0000d294       __unwindtable$??$create_task@V<lambda_0ebde0502725cf61f7686a2917d1749f>@@@Concurrency@@YA?AV?$task@X@0@V<lambda_0ebde0502725cf61f7686a2917d1749f>@@Vtask_options@0@@Z 00491294     TraceUI.obj
 0002:0000d2a4       __ehfuncinfo$??$create_task@V<lambda_0ebde0502725cf61f7686a2917d1749f>@@@Concurrency@@YA?AV?$task@X@0@V<lambda_0ebde0502725cf61f7686a2917d1749f>@@Vtask_options@0@@Z 004912a4     TraceUI.obj
 0002:0000d2c8       __unwindtable$??$create_task@V<lambda_042c6af70ca74ab46830ae50c8c14c9e>@@@Concurrency@@YA?AV?$task@X@0@V<lambda_042c6af70ca74ab46830ae50c8c14c9e>@@Vtask_options@0@@Z 004912c8     TraceUI.obj
 0002:0000d2d8       __ehfuncinfo$??$create_task@V<lambda_042c6af70ca74ab46830ae50c8c14c9e>@@@Concurrency@@YA?AV?$task@X@0@V<lambda_042c6af70ca74ab46830ae50c8c14c9e>@@Vtask_options@0@@Z 004912d8     TraceUI.obj
 0002:0000d2fc       __unwindtable$??$create_task@V<lambda_483208dc91e150c0c9b495b53fd62158>@@@Concurrency@@YA?AV?$task@X@0@V<lambda_483208dc91e150c0c9b495b53fd62158>@@Vtask_options@0@@Z 004912fc     TraceUI.obj
 0002:0000d30c       __ehfuncinfo$??$create_task@V<lambda_483208dc91e150c0c9b495b53fd62158>@@@Concurrency@@YA?AV?$task@X@0@V<lambda_483208dc91e150c0c9b495b53fd62158>@@Vtask_options@0@@Z 0049130c     TraceUI.obj
 0002:0000d330       __catchsym$??$_Clone@X@?$_Func_impl@V<lambda_cab26a778e4185933e9c5b0cfaedfe5e>@@V?$allocator@H@std@@E$$V@std@@ABEPAV?$_Func_base@E$$V@1@PAXU?$integral_constant@_N$00@1@@Z$33 00491330     TraceUI.obj
 0002:0000d340       __tryblocktable$??$_Clone@X@?$_Func_impl@V<lambda_cab26a778e4185933e9c5b0cfaedfe5e>@@V?$allocator@H@std@@E$$V@std@@ABEPAV?$_Func_base@E$$V@1@PAXU?$integral_constant@_N$00@1@@Z 00491340     TraceUI.obj
 0002:0000d354       __ehfuncinfo$??$_Clone@X@?$_Func_impl@V<lambda_cab26a778e4185933e9c5b0cfaedfe5e>@@V?$allocator@H@std@@E$$V@std@@ABEPAV?$_Func_base@E$$V@1@PAXU?$integral_constant@_N$00@1@@Z 00491354     TraceUI.obj
 0002:0000d378       __unwindtable$??$_Clone@X@?$_Func_impl@V<lambda_cab26a778e4185933e9c5b0cfaedfe5e>@@V?$allocator@H@std@@E$$V@std@@ABEPAV?$_Func_base@E$$V@1@PAXU?$integral_constant@_N$00@1@@Z 00491378     TraceUI.obj
 0002:0000d3a0       __ehfuncinfo$??$?0V<lambda_855a1ef4dbee54ab7f2f1e055b9bdfad>@@@?$task@X@Concurrency@@QAE@V<lambda_855a1ef4dbee54ab7f2f1e055b9bdfad>@@ABVtask_options@1@@Z 004913a0     TraceUI.obj
 0002:0000d3c4       __unwindtable$??$?0V<lambda_855a1ef4dbee54ab7f2f1e055b9bdfad>@@@?$task@X@Concurrency@@QAE@V<lambda_855a1ef4dbee54ab7f2f1e055b9bdfad>@@ABVtask_options@1@@Z 004913c4     TraceUI.obj
 0002:0000d3ec       __ehfuncinfo$??$?0V<lambda_0ebde0502725cf61f7686a2917d1749f>@@@?$task@X@Concurrency@@QAE@V<lambda_0ebde0502725cf61f7686a2917d1749f>@@ABVtask_options@1@@Z 004913ec     TraceUI.obj
 0002:0000d410       __unwindtable$??$?0V<lambda_0ebde0502725cf61f7686a2917d1749f>@@@?$task@X@Concurrency@@QAE@V<lambda_0ebde0502725cf61f7686a2917d1749f>@@ABVtask_options@1@@Z 00491410     TraceUI.obj
 0002:0000d438       __ehfuncinfo$??$?0V<lambda_042c6af70ca74ab46830ae50c8c14c9e>@@@?$task@X@Concurrency@@QAE@V<lambda_042c6af70ca74ab46830ae50c8c14c9e>@@ABVtask_options@1@@Z 00491438     TraceUI.obj
 0002:0000d45c       __unwindtable$??$?0V<lambda_042c6af70ca74ab46830ae50c8c14c9e>@@@?$task@X@Concurrency@@QAE@V<lambda_042c6af70ca74ab46830ae50c8c14c9e>@@ABVtask_options@1@@Z 0049145c     TraceUI.obj
 0002:0000d484       __ehfuncinfo$??$?0V<lambda_483208dc91e150c0c9b495b53fd62158>@@@?$task@X@Concurrency@@QAE@V<lambda_483208dc91e150c0c9b495b53fd62158>@@ABVtask_options@1@@Z 00491484     TraceUI.obj
 0002:0000d4a8       __unwindtable$??$?0V<lambda_483208dc91e150c0c9b495b53fd62158>@@@?$task@X@Concurrency@@QAE@V<lambda_483208dc91e150c0c9b495b53fd62158>@@ABVtask_options@1@@Z 004914a8     TraceUI.obj
 0002:0000d4d0       __ehfuncinfo$??1?$_PPLTaskHandle@EU?$_InitialTaskHandle@XV<lambda_855a1ef4dbee54ab7f2f1e055b9bdfad>@@U_TypeSelectorNoAsync@details@Concurrency@@@?$task@E@Concurrency@@U_TaskProcHandle@details@3@@details@Concurrency@@UAE@XZ 004914d0     TraceUI.obj
 0002:0000d4f4       __tryblocktable$?invoke@?$_PPLTaskHandle@EU?$_InitialTaskHandle@XV<lambda_855a1ef4dbee54ab7f2f1e055b9bdfad>@@U_TypeSelectorNoAsync@details@Concurrency@@@?$task@E@Concurrency@@U_TaskProcHandle@details@3@@details@Concurrency@@UBEXXZ 004914f4     TraceUI.obj
 0002:0000d508       __ehfuncinfo$?invoke@?$_PPLTaskHandle@EU?$_InitialTaskHandle@XV<lambda_855a1ef4dbee54ab7f2f1e055b9bdfad>@@U_TypeSelectorNoAsync@details@Concurrency@@@?$task@E@Concurrency@@U_TaskProcHandle@details@3@@details@Concurrency@@UBEXXZ 00491508     TraceUI.obj
 0002:0000d52c       __unwindtable$?invoke@?$_PPLTaskHandle@EU?$_InitialTaskHandle@XV<lambda_855a1ef4dbee54ab7f2f1e055b9bdfad>@@U_TypeSelectorNoAsync@details@Concurrency@@@?$task@E@Concurrency@@U_TaskProcHandle@details@3@@details@Concurrency@@UBEXXZ 0049152c     TraceUI.obj
 0002:0000d554       __catchsym$?invoke@?$_PPLTaskHandle@EU?$_InitialTaskHandle@XV<lambda_855a1ef4dbee54ab7f2f1e055b9bdfad>@@U_TypeSelectorNoAsync@details@Concurrency@@@?$task@E@Concurrency@@U_TaskProcHandle@details@3@@details@Concurrency@@UBEXXZ$52 00491554     TraceUI.obj
 0002:0000d584       __unwindtable$??_G?$_PPLTaskHandle@EU?$_InitialTaskHandle@XV<lambda_855a1ef4dbee54ab7f2f1e055b9bdfad>@@U_TypeSelectorNoAsync@details@Concurrency@@@?$task@E@Concurrency@@U_TaskProcHandle@details@3@@details@Concurrency@@UAEPAXI@Z 00491584     TraceUI.obj
 0002:0000d58c       __ehfuncinfo$??_G?$_PPLTaskHandle@EU?$_InitialTaskHandle@XV<lambda_855a1ef4dbee54ab7f2f1e055b9bdfad>@@U_TypeSelectorNoAsync@details@Concurrency@@@?$task@E@Concurrency@@U_TaskProcHandle@details@3@@details@Concurrency@@UAEPAXI@Z 0049158c     TraceUI.obj
 0002:0000d5b0       __unwindtable$??1?$_InitialTaskHandle@XV<lambda_855a1ef4dbee54ab7f2f1e055b9bdfad>@@U_TypeSelectorNoAsync@details@Concurrency@@@?$task@E@Concurrency@@UAE@XZ 004915b0     TraceUI.obj
 0002:0000d5b8       __ehfuncinfo$??1?$_InitialTaskHandle@XV<lambda_855a1ef4dbee54ab7f2f1e055b9bdfad>@@U_TypeSelectorNoAsync@details@Concurrency@@@?$task@E@Concurrency@@UAE@XZ 004915b8     TraceUI.obj
 0002:0000d5dc       __unwindtable$??_G?$_InitialTaskHandle@XV<lambda_855a1ef4dbee54ab7f2f1e055b9bdfad>@@U_TypeSelectorNoAsync@details@Concurrency@@@?$task@E@Concurrency@@UAEPAXI@Z 004915dc     TraceUI.obj
 0002:0000d5e4       __ehfuncinfo$??_G?$_InitialTaskHandle@XV<lambda_855a1ef4dbee54ab7f2f1e055b9bdfad>@@U_TypeSelectorNoAsync@details@Concurrency@@@?$task@E@Concurrency@@UAEPAXI@Z 004915e4     TraceUI.obj
 0002:0000d608       __ehfuncinfo$??1?$_PPLTaskHandle@EU?$_InitialTaskHandle@XV<lambda_0ebde0502725cf61f7686a2917d1749f>@@U_TypeSelectorNoAsync@details@Concurrency@@@?$task@E@Concurrency@@U_TaskProcHandle@details@3@@details@Concurrency@@UAE@XZ 00491608     TraceUI.obj
 0002:0000d62c       __tryblocktable$?invoke@?$_PPLTaskHandle@EU?$_InitialTaskHandle@XV<lambda_0ebde0502725cf61f7686a2917d1749f>@@U_TypeSelectorNoAsync@details@Concurrency@@@?$task@E@Concurrency@@U_TaskProcHandle@details@3@@details@Concurrency@@UBEXXZ 0049162c     TraceUI.obj
 0002:0000d640       __ehfuncinfo$?invoke@?$_PPLTaskHandle@EU?$_InitialTaskHandle@XV<lambda_0ebde0502725cf61f7686a2917d1749f>@@U_TypeSelectorNoAsync@details@Concurrency@@@?$task@E@Concurrency@@U_TaskProcHandle@details@3@@details@Concurrency@@UBEXXZ 00491640     TraceUI.obj
 0002:0000d664       __unwindtable$?invoke@?$_PPLTaskHandle@EU?$_InitialTaskHandle@XV<lambda_0ebde0502725cf61f7686a2917d1749f>@@U_TypeSelectorNoAsync@details@Concurrency@@@?$task@E@Concurrency@@U_TaskProcHandle@details@3@@details@Concurrency@@UBEXXZ 00491664     TraceUI.obj
 0002:0000d68c       __catchsym$?invoke@?$_PPLTaskHandle@EU?$_InitialTaskHandle@XV<lambda_0ebde0502725cf61f7686a2917d1749f>@@U_TypeSelectorNoAsync@details@Concurrency@@@?$task@E@Concurrency@@U_TaskProcHandle@details@3@@details@Concurrency@@UBEXXZ$52 0049168c     TraceUI.obj
 0002:0000d6bc       __unwindtable$??_G?$_PPLTaskHandle@EU?$_InitialTaskHandle@XV<lambda_0ebde0502725cf61f7686a2917d1749f>@@U_TypeSelectorNoAsync@details@Concurrency@@@?$task@E@Concurrency@@U_TaskProcHandle@details@3@@details@Concurrency@@UAEPAXI@Z 004916bc     TraceUI.obj
 0002:0000d6c4       __ehfuncinfo$??_G?$_PPLTaskHandle@EU?$_InitialTaskHandle@XV<lambda_0ebde0502725cf61f7686a2917d1749f>@@U_TypeSelectorNoAsync@details@Concurrency@@@?$task@E@Concurrency@@U_TaskProcHandle@details@3@@details@Concurrency@@UAEPAXI@Z 004916c4     TraceUI.obj
 0002:0000d6e8       __unwindtable$??1?$_InitialTaskHandle@XV<lambda_0ebde0502725cf61f7686a2917d1749f>@@U_TypeSelectorNoAsync@details@Concurrency@@@?$task@E@Concurrency@@UAE@XZ 004916e8     TraceUI.obj
 0002:0000d6f0       __ehfuncinfo$??1?$_InitialTaskHandle@XV<lambda_0ebde0502725cf61f7686a2917d1749f>@@U_TypeSelectorNoAsync@details@Concurrency@@@?$task@E@Concurrency@@UAE@XZ 004916f0     TraceUI.obj
 0002:0000d714       __unwindtable$??_G?$_InitialTaskHandle@XV<lambda_0ebde0502725cf61f7686a2917d1749f>@@U_TypeSelectorNoAsync@details@Concurrency@@@?$task@E@Concurrency@@UAEPAXI@Z 00491714     TraceUI.obj
 0002:0000d71c       __ehfuncinfo$??_G?$_InitialTaskHandle@XV<lambda_0ebde0502725cf61f7686a2917d1749f>@@U_TypeSelectorNoAsync@details@Concurrency@@@?$task@E@Concurrency@@UAEPAXI@Z 0049171c     TraceUI.obj
 0002:0000d740       __ehfuncinfo$??1?$_PPLTaskHandle@EU?$_InitialTaskHandle@XV<lambda_042c6af70ca74ab46830ae50c8c14c9e>@@U_TypeSelectorNoAsync@details@Concurrency@@@?$task@E@Concurrency@@U_TaskProcHandle@details@3@@details@Concurrency@@UAE@XZ 00491740     TraceUI.obj
 0002:0000d764       __tryblocktable$?invoke@?$_PPLTaskHandle@EU?$_InitialTaskHandle@XV<lambda_042c6af70ca74ab46830ae50c8c14c9e>@@U_TypeSelectorNoAsync@details@Concurrency@@@?$task@E@Concurrency@@U_TaskProcHandle@details@3@@details@Concurrency@@UBEXXZ 00491764     TraceUI.obj
 0002:0000d778       __ehfuncinfo$?invoke@?$_PPLTaskHandle@EU?$_InitialTaskHandle@XV<lambda_042c6af70ca74ab46830ae50c8c14c9e>@@U_TypeSelectorNoAsync@details@Concurrency@@@?$task@E@Concurrency@@U_TaskProcHandle@details@3@@details@Concurrency@@UBEXXZ 00491778     TraceUI.obj
 0002:0000d79c       __unwindtable$?invoke@?$_PPLTaskHandle@EU?$_InitialTaskHandle@XV<lambda_042c6af70ca74ab46830ae50c8c14c9e>@@U_TypeSelectorNoAsync@details@Concurrency@@@?$task@E@Concurrency@@U_TaskProcHandle@details@3@@details@Concurrency@@UBEXXZ 0049179c     TraceUI.obj
 0002:0000d7c4       __catchsym$?invoke@?$_PPLTaskHandle@EU?$_InitialTaskHandle@XV<lambda_042c6af70ca74ab46830ae50c8c14c9e>@@U_TypeSelectorNoAsync@details@Concurrency@@@?$task@E@Concurrency@@U_TaskProcHandle@details@3@@details@Concurrency@@UBEXXZ$52 004917c4     TraceUI.obj
 0002:0000d7f4       __unwindtable$??_G?$_PPLTaskHandle@EU?$_InitialTaskHandle@XV<lambda_042c6af70ca74ab46830ae50c8c14c9e>@@U_TypeSelectorNoAsync@details@Concurrency@@@?$task@E@Concurrency@@U_TaskProcHandle@details@3@@details@Concurrency@@UAEPAXI@Z 004917f4     TraceUI.obj
 0002:0000d7fc       __ehfuncinfo$??_G?$_PPLTaskHandle@EU?$_InitialTaskHandle@XV<lambda_042c6af70ca74ab46830ae50c8c14c9e>@@U_TypeSelectorNoAsync@details@Concurrency@@@?$task@E@Concurrency@@U_TaskProcHandle@details@3@@details@Concurrency@@UAEPAXI@Z 004917fc     TraceUI.obj
 0002:0000d820       __unwindtable$??1?$_InitialTaskHandle@XV<lambda_042c6af70ca74ab46830ae50c8c14c9e>@@U_TypeSelectorNoAsync@details@Concurrency@@@?$task@E@Concurrency@@UAE@XZ 00491820     TraceUI.obj
 0002:0000d828       __ehfuncinfo$??1?$_InitialTaskHandle@XV<lambda_042c6af70ca74ab46830ae50c8c14c9e>@@U_TypeSelectorNoAsync@details@Concurrency@@@?$task@E@Concurrency@@UAE@XZ 00491828     TraceUI.obj
 0002:0000d84c       __unwindtable$??_G?$_InitialTaskHandle@XV<lambda_042c6af70ca74ab46830ae50c8c14c9e>@@U_TypeSelectorNoAsync@details@Concurrency@@@?$task@E@Concurrency@@UAEPAXI@Z 0049184c     TraceUI.obj
 0002:0000d854       __ehfuncinfo$??_G?$_InitialTaskHandle@XV<lambda_042c6af70ca74ab46830ae50c8c14c9e>@@U_TypeSelectorNoAsync@details@Concurrency@@@?$task@E@Concurrency@@UAEPAXI@Z 00491854     TraceUI.obj
 0002:0000d878       __ehfuncinfo$??1?$_PPLTaskHandle@EU?$_InitialTaskHandle@XV<lambda_483208dc91e150c0c9b495b53fd62158>@@U_TypeSelectorNoAsync@details@Concurrency@@@?$task@E@Concurrency@@U_TaskProcHandle@details@3@@details@Concurrency@@UAE@XZ 00491878     TraceUI.obj
 0002:0000d89c       __tryblocktable$?invoke@?$_PPLTaskHandle@EU?$_InitialTaskHandle@XV<lambda_483208dc91e150c0c9b495b53fd62158>@@U_TypeSelectorNoAsync@details@Concurrency@@@?$task@E@Concurrency@@U_TaskProcHandle@details@3@@details@Concurrency@@UBEXXZ 0049189c     TraceUI.obj
 0002:0000d8b0       __ehfuncinfo$?invoke@?$_PPLTaskHandle@EU?$_InitialTaskHandle@XV<lambda_483208dc91e150c0c9b495b53fd62158>@@U_TypeSelectorNoAsync@details@Concurrency@@@?$task@E@Concurrency@@U_TaskProcHandle@details@3@@details@Concurrency@@UBEXXZ 004918b0     TraceUI.obj
 0002:0000d8d4       __unwindtable$?invoke@?$_PPLTaskHandle@EU?$_InitialTaskHandle@XV<lambda_483208dc91e150c0c9b495b53fd62158>@@U_TypeSelectorNoAsync@details@Concurrency@@@?$task@E@Concurrency@@U_TaskProcHandle@details@3@@details@Concurrency@@UBEXXZ 004918d4     TraceUI.obj
 0002:0000d8fc       __catchsym$?invoke@?$_PPLTaskHandle@EU?$_InitialTaskHandle@XV<lambda_483208dc91e150c0c9b495b53fd62158>@@U_TypeSelectorNoAsync@details@Concurrency@@@?$task@E@Concurrency@@U_TaskProcHandle@details@3@@details@Concurrency@@UBEXXZ$52 004918fc     TraceUI.obj
 0002:0000d92c       __unwindtable$??_G?$_PPLTaskHandle@EU?$_InitialTaskHandle@XV<lambda_483208dc91e150c0c9b495b53fd62158>@@U_TypeSelectorNoAsync@details@Concurrency@@@?$task@E@Concurrency@@U_TaskProcHandle@details@3@@details@Concurrency@@UAEPAXI@Z 0049192c     TraceUI.obj
 0002:0000d934       __ehfuncinfo$??_G?$_PPLTaskHandle@EU?$_InitialTaskHandle@XV<lambda_483208dc91e150c0c9b495b53fd62158>@@U_TypeSelectorNoAsync@details@Concurrency@@@?$task@E@Concurrency@@U_TaskProcHandle@details@3@@details@Concurrency@@UAEPAXI@Z 00491934     TraceUI.obj
 0002:0000d958       __unwindtable$??1?$_InitialTaskHandle@XV<lambda_483208dc91e150c0c9b495b53fd62158>@@U_TypeSelectorNoAsync@details@Concurrency@@@?$task@E@Concurrency@@UAE@XZ 00491958     TraceUI.obj
 0002:0000d960       __ehfuncinfo$??1?$_InitialTaskHandle@XV<lambda_483208dc91e150c0c9b495b53fd62158>@@U_TypeSelectorNoAsync@details@Concurrency@@@?$task@E@Concurrency@@UAE@XZ 00491960     TraceUI.obj
 0002:0000d984       __unwindtable$??_G?$_InitialTaskHandle@XV<lambda_483208dc91e150c0c9b495b53fd62158>@@U_TypeSelectorNoAsync@details@Concurrency@@@?$task@E@Concurrency@@UAEPAXI@Z 00491984     TraceUI.obj
 0002:0000d98c       __ehfuncinfo$??_G?$_InitialTaskHandle@XV<lambda_483208dc91e150c0c9b495b53fd62158>@@U_TypeSelectorNoAsync@details@Concurrency@@@?$task@E@Concurrency@@UAEPAXI@Z 0049198c     TraceUI.obj
 0002:0000d9b0       __unwindtable$??$_LogWorkItemAndInvokeUserLambda@V?$function@$$A6AEXZ@std@@@?$_InitialTaskHandle@XV<lambda_483208dc91e150c0c9b495b53fd62158>@@U_TypeSelectorNoAsync@details@Concurrency@@@?$task@E@Concurrency@@QBEEV?$function@$$A6AEXZ@std@@@Z 004919b0     TraceUI.obj
 0002:0000d9c8       __ehfuncinfo$??$_LogWorkItemAndInvokeUserLambda@V?$function@$$A6AEXZ@std@@@?$_InitialTaskHandle@XV<lambda_483208dc91e150c0c9b495b53fd62158>@@U_TypeSelectorNoAsync@details@Concurrency@@@?$task@E@Concurrency@@QBEEV?$function@$$A6AEXZ@std@@@Z 004919c8     TraceUI.obj
 0002:0000d9ec       __unwindtable$??$_LogWorkItemAndInvokeUserLambda@V?$function@$$A6AEXZ@std@@@?$_InitialTaskHandle@XV<lambda_042c6af70ca74ab46830ae50c8c14c9e>@@U_TypeSelectorNoAsync@details@Concurrency@@@?$task@E@Concurrency@@QBEEV?$function@$$A6AEXZ@std@@@Z 004919ec     TraceUI.obj
 0002:0000da04       __ehfuncinfo$??$_LogWorkItemAndInvokeUserLambda@V?$function@$$A6AEXZ@std@@@?$_InitialTaskHandle@XV<lambda_042c6af70ca74ab46830ae50c8c14c9e>@@U_TypeSelectorNoAsync@details@Concurrency@@@?$task@E@Concurrency@@QBEEV?$function@$$A6AEXZ@std@@@Z 00491a04     TraceUI.obj
 0002:0000da28       __unwindtable$??$_LogWorkItemAndInvokeUserLambda@V?$function@$$A6AEXZ@std@@@?$_InitialTaskHandle@XV<lambda_0ebde0502725cf61f7686a2917d1749f>@@U_TypeSelectorNoAsync@details@Concurrency@@@?$task@E@Concurrency@@QBEEV?$function@$$A6AEXZ@std@@@Z 00491a28     TraceUI.obj
 0002:0000da40       __ehfuncinfo$??$_LogWorkItemAndInvokeUserLambda@V?$function@$$A6AEXZ@std@@@?$_InitialTaskHandle@XV<lambda_0ebde0502725cf61f7686a2917d1749f>@@U_TypeSelectorNoAsync@details@Concurrency@@@?$task@E@Concurrency@@QBEEV?$function@$$A6AEXZ@std@@@Z 00491a40     TraceUI.obj
 0002:0000da64       __unwindtable$??$_LogWorkItemAndInvokeUserLambda@V?$function@$$A6AEXZ@std@@@?$_InitialTaskHandle@XV<lambda_855a1ef4dbee54ab7f2f1e055b9bdfad>@@U_TypeSelectorNoAsync@details@Concurrency@@@?$task@E@Concurrency@@QBEEV?$function@$$A6AEXZ@std@@@Z 00491a64     TraceUI.obj
 0002:0000da7c       __ehfuncinfo$??$_LogWorkItemAndInvokeUserLambda@V?$function@$$A6AEXZ@std@@@?$_InitialTaskHandle@XV<lambda_855a1ef4dbee54ab7f2f1e055b9bdfad>@@U_TypeSelectorNoAsync@details@Concurrency@@@?$task@E@Concurrency@@QBEEV?$function@$$A6AEXZ@std@@@Z 00491a7c     TraceUI.obj
 0002:0000db88       __catchsym$??$?6U?$char_traits@D@std@@@std@@YAAAV?$basic_ostream@DU?$char_traits@D@std@@@0@AAV10@D@Z$12 00491b88     parse.obj
 0002:0000db98       __tryblocktable$??$?6U?$char_traits@D@std@@@std@@YAAAV?$basic_ostream@DU?$char_traits@D@std@@@0@AAV10@D@Z 00491b98     parse.obj
 0002:0000dbac       __ehfuncinfo$??$?6U?$char_traits@D@std@@@std@@YAAAV?$basic_ostream@DU?$char_traits@D@std@@@0@AAV10@D@Z 00491bac     parse.obj
 0002:0000dbd0       __unwindtable$??$?6U?$char_traits@D@std@@@std@@YAAAV?$basic_ostream@DU?$char_traits@D@std@@@0@AAV10@D@Z 00491bd0     parse.obj
 0002:0000dc00       __catchsym$??$?6U?$char_traits@D@std@@@std@@YAAAV?$basic_ostream@DU?$char_traits@D@std@@@0@AAV10@PBD@Z$11 00491c00     parse.obj
 0002:0000dc10       __tryblocktable$??$?6U?$char_traits@D@std@@@std@@YAAAV?$basic_ostream@DU?$char_traits@D@std@@@0@AAV10@PBD@Z 00491c10     parse.obj
 0002:0000dc24       __ehfuncinfo$??$?6U?$char_traits@D@std@@@std@@YAAAV?$basic_ostream@DU?$char_traits@D@std@@@0@AAV10@PBD@Z 00491c24     parse.obj
 0002:0000dc48       __unwindtable$??$?6U?$char_traits@D@std@@@std@@YAAAV?$basic_ostream@DU?$char_traits@D@std@@@0@AAV10@PBD@Z 00491c48     parse.obj
 0002:0000dc78       __ehfuncinfo$??0ObjTypeMismatch@@QAE@V?$basic_string@DU?$char_traits@D@std@@V?$allocator@D@2@@std@@0@Z 00491c78     parse.obj
 0002:0000dc9c       __unwindtable$??0ObjTypeMismatch@@QAE@V?$basic_string@DU?$char_traits@D@std@@V?$allocator@D@2@@std@@0@Z 00491c9c     parse.obj
 0002:0000dce4       __unwindtable$?getScalar@Obj@@UBENXZ 00491ce4     parse.obj
 0002:0000dcec       __ehfuncinfo$?getScalar@Obj@@UBENXZ 00491cec     parse.obj
 0002:0000dd10       __unwindtable$?getBoolean@Obj@@UBE_NXZ 00491d10     parse.obj
 0002:0000dd18       __ehfuncinfo$?getBoolean@Obj@@UBE_NXZ 00491d18     parse.obj
 0002:0000dd3c       __unwindtable$?getID@Obj@@UBE?AV?$basic_string@DU?$char_traits@D@std@@V?$allocator@D@2@@std@@XZ 00491d3c     parse.obj
 0002:0000dd44       __ehfuncinfo$?getID@Obj@@UBE?AV?$basic_string@DU?$char_traits@D@std@@V?$allocator@D@2@@std@@XZ 00491d44     parse.obj
 0002:0000dd68       __unwindtable$?getString@Obj@@UBE?AV?$basic_string@DU?$char_traits@D@std@@V?$allocator@D@2@@std@@XZ 00491d68     parse.obj
 0002:0000dd70       __ehfuncinfo$?getString@Obj@@UBE?AV?$basic_string@DU?$char_traits@D@std@@V?$allocator@D@2@@std@@XZ 00491d70     parse.obj
 0002:0000dd94       __unwindtable$?getTuple@Obj@@UBEABV?$vector@PAVObj@@V?$allocator@PAVObj@@@std@@@std@@XZ 00491d94     parse.obj
 0002:0000dd9c       __ehfuncinfo$?getTuple@Obj@@UBEABV?$vector@PAVObj@@V?$allocator@PAVObj@@@std@@@std@@XZ 00491d9c     parse.obj
 0002:0000ddc0       __unwindtable$?getDict@Obj@@UBEABV?$map@V?$basic_string@DU?$char_traits@D@std@@V?$allocator@D@2@@std@@PAVObj@@U?$less@V?$basic_string@DU?$char_traits@D@std@@V?$allocator@D@2@@std@@@2@V?$allocator@U?$pair@$$CBV?$basic_string@DU?$char_traits@D@std@@V?$allocator@D@2@@std@@PAVObj@@@std@@@2@@std@@XZ 00491dc0     parse.obj
 0002:0000ddc8       __ehfuncinfo$?getDict@Obj@@UBEABV?$map@V?$basic_string@DU?$char_traits@D@std@@V?$allocator@D@2@@std@@PAVObj@@U?$less@V?$basic_string@DU?$char_traits@D@std@@V?$allocator@D@2@@std@@@2@V?$allocator@U?$pair@$$CBV?$basic_string@DU?$char_traits@D@std@@V?$allocator@D@2@@std@@PAVObj@@@std@@@2@@std@@XZ 00491dc8     parse.obj
 0002:0000ddec       __unwindtable$?getName@Obj@@UBE?AV?$basic_string@DU?$char_traits@D@std@@V?$allocator@D@2@@std@@XZ 00491dec     parse.obj
 0002:0000ddf4       __ehfuncinfo$?getName@Obj@@UBE?AV?$basic_string@DU?$char_traits@D@std@@V?$allocator@D@2@@std@@XZ 00491df4     parse.obj
 0002:0000de18       __unwindtable$?getChild@Obj@@UBEPAV1@XZ 00491e18     parse.obj
 0002:0000de20       __ehfuncinfo$?getChild@Obj@@UBEPAV1@XZ 00491e20     parse.obj
 0002:0000de44       __unwindtable$??0IdObj@@QAE@ABV?$basic_string@DU?$char_traits@D@std@@V?$allocator@D@2@@std@@@Z 00491e44     parse.obj
 0002:0000de4c       __ehfuncinfo$??0IdObj@@QAE@ABV?$basic_string@DU?$char_traits@D@std@@V?$allocator@D@2@@std@@@Z 00491e4c     parse.obj
 0002:0000de70       __unwindtable$??1DictObj@@UAE@XZ 00491e70     parse.obj
 0002:0000de78       __ehfuncinfo$??1DictObj@@UAE@XZ 00491e78     parse.obj
 0002:0000de9c       __unwindtable$?erase@?$_Tree@V?$_Tmap_traits@V?$basic_string@DU?$char_traits@D@std@@V?$allocator@D@2@@std@@PAVObj@@U?$less@V?$basic_string@DU?$char_traits@D@std@@V?$allocator@D@2@@std@@@2@V?$allocator@U?$pair@$$CBV?$basic_string@DU?$char_traits@D@std@@V?$allocator@D@2@@std@@PAVObj@@@std@@@2@$0A@@std@@@std@@QAE?AV?$_Tree_iterator@V?$_Tree_val@U?$_Tree_simple_types@U?$pair@$$CBV?$basic_string@DU?$char_traits@D@std@@V?$allocator@D@2@@std@@PAVObj@@@std@@@std@@@std@@@2@V?$_Tree_const_iterator@V?$_Tree_val@U?$_Tree_simple_types@U?$pair@$$CBV?$basic_string@DU?$char_traits@D@std@@V?$allocator@D@2@@std@@PAVObj@@@std@@@std@@@std@@@2@0@Z 00491e9c     parse.obj
 0002:0000dea4       __ehfuncinfo$?erase@?$_Tree@V?$_Tmap_traits@V?$basic_string@DU?$char_traits@D@std@@V?$allocator@D@2@@std@@PAVObj@@U?$less@V?$basic_string@DU?$char_traits@D@std@@V?$allocator@D@2@@std@@@2@V?$allocator@U?$pair@$$CBV?$basic_string@DU?$char_traits@D@std@@V?$allocator@D@2@@std@@PAVObj@@@std@@@2@$0A@@std@@@std@@QAE?AV?$_Tree_iterator@V?$_Tree_val@U?$_Tree_simple_types@U?$pair@$$CBV?$basic_string@DU?$char_traits@D@std@@V?$allocator@D@2@@std@@PAVObj@@@std@@@std@@@std@@@2@V?$_Tree_const_iterator@V?$_Tree_val@U?$_Tree_simple_types@U?$pair@$$CBV?$basic_string@DU?$char_traits@D@std@@V?$allocator@D@2@@std@@PAVObj@@@std@@@std@@@std@@@2@0@Z 00491ea4     parse.obj
 0002:0000dec8       __unwindtable$??1?$map@V?$basic_string@DU?$char_traits@D@std@@V?$allocator@D@2@@std@@PAVObj@@U?$less@V?$basic_string@DU?$char_traits@D@std@@V?$allocator@D@2@@std@@@2@V?$allocator@U?$pair@$$CBV?$basic_string@DU?$char_traits@D@std@@V?$allocator@D@2@@std@@PAVObj@@@std@@@2@@std@@QAE@XZ 00491ec8     parse.obj
 0002:0000ded0       __ehfuncinfo$??1?$map@V?$basic_string@DU?$char_traits@D@std@@V?$allocator@D@2@@std@@PAVObj@@U?$less@V?$basic_string@DU?$char_traits@D@std@@V?$allocator@D@2@@std@@@2@V?$allocator@U?$pair@$$CBV?$basic_string@DU?$char_traits@D@std@@V?$allocator@D@2@@std@@PAVObj@@@std@@@2@@std@@QAE@XZ 00491ed0     parse.obj
 0002:0000def4       __unwindtable$??0NamedObj@@QAE@ABV?$basic_string@DU?$char_traits@D@std@@V?$allocator@D@2@@std@@PAVObj@@@Z 00491ef4     parse.obj
 0002:0000defc       __ehfuncinfo$??0NamedObj@@QAE@ABV?$basic_string@DU?$char_traits@D@std@@V?$allocator@D@2@@std@@PAVObj@@@Z 00491efc     parse.obj
 0002:0000df20       __unwindtable$?readID@@YA?AV?$basic_string@DU?$char_traits@D@std@@V?$allocator@D@2@@std@@AAV?$basic_istream@DU?$char_traits@D@std@@@2@@Z 00491f20     parse.obj
 0002:0000df28       __ehfuncinfo$?readID@@YA?AV?$basic_string@DU?$char_traits@D@std@@V?$allocator@D@2@@std@@AAV?$basic_istream@DU?$char_traits@D@std@@@2@@Z 00491f28     parse.obj
 0002:0000df4c       __unwindtable$?readString@@YAPAVObj@@AAV?$basic_istream@DU?$char_traits@D@std@@@std@@@Z 00491f4c     parse.obj
 0002:0000df64       __ehfuncinfo$?readString@@YAPAVObj@@AAV?$basic_istream@DU?$char_traits@D@std@@@std@@@Z 00491f64     parse.obj
 0002:0000df88       __unwindtable$?readScalar@@YAPAVObj@@AAV?$basic_istream@DU?$char_traits@D@std@@@std@@@Z 00491f88     parse.obj
 0002:0000df90       __ehfuncinfo$?readScalar@@YAPAVObj@@AAV?$basic_istream@DU?$char_traits@D@std@@@std@@@Z 00491f90     parse.obj
 0002:0000dfb4       __ehfuncinfo$?readTuple@@YAPAVObj@@AAV?$basic_istream@DU?$char_traits@D@std@@@std@@@Z 00491fb4     parse.obj
 0002:0000dfd8       __unwindtable$?readTuple@@YAPAVObj@@AAV?$basic_istream@DU?$char_traits@D@std@@@std@@@Z 00491fd8     parse.obj
 0002:0000e000       __ehfuncinfo$?readDict@@YAPAVObj@@AAV?$basic_istream@DU?$char_traits@D@std@@@std@@@Z 00492000     parse.obj
 0002:0000e024       __unwindtable$?readDict@@YAPAVObj@@AAV?$basic_istream@DU?$char_traits@D@std@@@std@@@Z 00492024     parse.obj
 0002:0000e064       __unwindtable$?readName@@YAPAVObj@@AAV?$basic_istream@DU?$char_traits@D@std@@@std@@@Z 00492064     parse.obj
 0002:0000e084       __ehfuncinfo$?readName@@YAPAVObj@@AAV?$basic_istream@DU?$char_traits@D@std@@@std@@@Z 00492084     parse.obj
 0002:0000e0a8       __unwindtable$?eat@@YA_NAAV?$basic_istream@DU?$char_traits@D@std@@@std@@@Z 004920a8     parse.obj
 0002:0000e0b8       __ehfuncinfo$?eat@@YA_NAAV?$basic_istream@DU?$char_traits@D@std@@@std@@@Z 004920b8     parse.obj
 0002:0000e0dc       __catchsym$??$?0U?$_Wrap_alloc@V?$allocator@U?$_Tree_node@U?$pair@$$CBV?$basic_string@DU?$char_traits@D@std@@V?$allocator@D@2@@std@@PAVObj@@@std@@PAX@std@@@std@@@std@@@?$_Tree@V?$_Tmap_traits@V?$basic_string@DU?$char_traits@D@std@@V?$allocator@D@2@@std@@PAVObj@@U?$less@V?$basic_string@DU?$char_traits@D@std@@V?$allocator@D@2@@std@@@2@V?$allocator@U?$pair@$$CBV?$basic_string@DU?$char_traits@D@std@@V?$allocator@D@2@@std@@PAVObj@@@std@@@2@$0A@@std@@@std@@QAE@ABV01@$$QAU?$_Wrap_alloc@V?$allocator@U?$_Tree_node@U?$pair@$$CBV?$basic_string@DU?$char_traits@D@std@@V?$allocator@D@2@@std@@PAVObj@@@std@@PAX@std@@@std@@@1@@Z$13 004920dc     parse.obj
 0002:0000e0ec       __tryblocktable$??$?0U?$_Wrap_alloc@V?$allocator@U?$_Tree_node@U?$pair@$$CBV?$basic_string@DU?$char_traits@D@std@@V?$allocator@D@2@@std@@PAVObj@@@std@@PAX@std@@@std@@@std@@@?$_Tree@V?$_Tmap_traits@V?$basic_string@DU?$char_traits@D@std@@V?$allocator@D@2@@std@@PAVObj@@U?$less@V?$basic_string@DU?$char_traits@D@std@@V?$allocator@D@2@@std@@@2@V?$allocator@U?$pair@$$CBV?$basic_string@DU?$char_traits@D@std@@V?$allocator@D@2@@std@@PAVObj@@@std@@@2@$0A@@std@@@std@@QAE@ABV01@$$QAU?$_Wrap_alloc@V?$allocator@U?$_Tree_node@U?$pair@$$CBV?$basic_string@DU?$char_traits@D@std@@V?$allocator@D@2@@std@@PAVObj@@@std@@PAX@std@@@std@@@1@@Z 004920ec     parse.obj
 0002:0000e100       __unwindtable$??$?0U?$_Wrap_alloc@V?$allocator@U?$_Tree_node@U?$pair@$$CBV?$basic_string@DU?$char_traits@D@std@@V?$allocator@D@2@@std@@PAVObj@@@std@@PAX@std@@@std@@@std@@@?$_Tree@V?$_Tmap_traits@V?$basic_string@DU?$char_traits@D@std@@V?$allocator@D@2@@std@@PAVObj@@U?$less@V?$basic_string@DU?$char_traits@D@std@@V?$allocator@D@2@@std@@@2@V?$allocator@U?$pair@$$CBV?$basic_string@DU?$char_traits@D@std@@V?$allocator@D@2@@std@@PAVObj@@@std@@@2@$0A@@std@@@std@@QAE@ABV01@$$QAU?$_Wrap_alloc@V?$allocator@U?$_Tree_node@U?$pair@$$CBV?$basic_string@DU?$char_traits@D@std@@V?$allocator@D@2@@std@@PAVObj@@@std@@PAX@std@@@std@@@1@@Z 00492100     parse.obj
 0002:0000e118       __ehfuncinfo$??$?0U?$_Wrap_alloc@V?$allocator@U?$_Tree_node@U?$pair@$$CBV?$basic_string@DU?$char_traits@D@std@@V?$allocator@D@2@@std@@PAVObj@@@std@@PAX@std@@@std@@@std@@@?$_Tree@V?$_Tmap_traits@V?$basic_string@DU?$char_traits@D@std@@V?$allocator@D@2@@std@@PAVObj@@U?$less@V?$basic_string@DU?$char_traits@D@std@@V?$allocator@D@2@@std@@@2@V?$allocator@U?$pair@$$CBV?$basic_string@DU?$char_traits@D@std@@V?$allocator@D@2@@std@@PAVObj@@@std@@@2@$0A@@std@@@std@@QAE@ABV01@$$QAU?$_Wrap_alloc@V?$allocator@U?$_Tree_node@U?$pair@$$CBV?$basic_string@DU?$char_traits@D@std@@V?$allocator@D@2@@std@@PAVObj@@@std@@PAX@std@@@std@@@1@@Z 00492118     parse.obj
 0002:0000e13c       __ehfuncinfo$??1_Sentry_base@?$basic_ostream@DU?$char_traits@D@std@@@std@@QAE@XZ 0049213c     parse.obj
 0002:0000e160       __unwindtable$??1sentry@?$basic_ostream@DU?$char_traits@D@std@@@std@@QAE@XZ 00492160     parse.obj
 0002:0000e168       __ehfuncinfo$??1sentry@?$basic_ostream@DU?$char_traits@D@std@@@std@@QAE@XZ 00492168     parse.obj
 0002:0000e18c       __catchsym$??$_Insert_string@DU?$char_traits@D@std@@I@std@@YAAAV?$basic_ostream@DU?$char_traits@D@std@@@0@AAV10@QBDI@Z$10 0049218c     parse.obj
 0002:0000e19c       __tryblocktable$??$_Insert_string@DU?$char_traits@D@std@@I@std@@YAAAV?$basic_ostream@DU?$char_traits@D@std@@@0@AAV10@QBDI@Z 0049219c     parse.obj
 0002:0000e1b0       __ehfuncinfo$??$_Insert_string@DU?$char_traits@D@std@@I@std@@YAAAV?$basic_ostream@DU?$char_traits@D@std@@@0@AAV10@QBDI@Z 004921b0     parse.obj
 0002:0000e1d4       __unwindtable$??$_Insert_string@DU?$char_traits@D@std@@I@std@@YAAAV?$basic_ostream@DU?$char_traits@D@std@@@0@AAV10@QBDI@Z 004921d4     parse.obj
 0002:0000e204       __catchsym$??$_Copy_nodes@U_Copy_tag@?$_Tree@V?$_Tmap_traits@V?$basic_string@DU?$char_traits@D@std@@V?$allocator@D@2@@std@@PAVObj@@U?$less@V?$basic_string@DU?$char_traits@D@std@@V?$allocator@D@2@@std@@@2@V?$allocator@U?$pair@$$CBV?$basic_string@DU?$char_traits@D@std@@V?$allocator@D@2@@std@@PAVObj@@@std@@@2@$0A@@std@@@std@@@?$_Tree@V?$_Tmap_traits@V?$basic_string@DU?$char_traits@D@std@@V?$allocator@D@2@@std@@PAVObj@@U?$less@V?$basic_string@DU?$char_traits@D@std@@V?$allocator@D@2@@std@@@2@V?$allocator@U?$pair@$$CBV?$basic_string@DU?$char_traits@D@std@@V?$allocator@D@2@@std@@PAVObj@@@std@@@2@$0A@@std@@@std@@IAEPAU?$_Tree_node@U?$pair@$$CBV?$basic_string@DU?$char_traits@D@std@@V?$allocator@D@2@@std@@PAVObj@@@std@@PAX@1@PAU21@0U_Copy_tag@01@@Z$6 00492204     parse.obj
 0002:0000e214       __unwindtable$??$_Copy_nodes@U_Copy_tag@?$_Tree@V?$_Tmap_traits@V?$basic_string@DU?$char_traits@D@std@@V?$allocator@D@2@@std@@PAVObj@@U?$less@V?$basic_string@DU?$char_traits@D@std@@V?$allocator@D@2@@std@@@2@V?$allocator@U?$pair@$$CBV?$basic_string@DU?$char_traits@D@std@@V?$allocator@D@2@@std@@PAVObj@@@std@@@2@$0A@@std@@@std@@@?$_Tree@V?$_Tmap_traits@V?$basic_string@DU?$char_traits@D@std@@V?$allocator@D@2@@std@@PAVObj@@U?$less@V?$basic_string@DU?$char_traits@D@std@@V?$allocator@D@2@@std@@@2@V?$allocator@U?$pair@$$CBV?$basic_string@DU?$char_traits@D@std@@V?$allocator@D@2@@std@@PAVObj@@@std@@@2@$0A@@std@@@std@@IAEPAU?$_Tree_node@U?$pair@$$CBV?$basic_string@DU?$char_traits@D@std@@V?$allocator@D@2@@std@@PAVObj@@@std@@PAX@1@PAU21@0U_Copy_tag@01@@Z 00492214     parse.obj
 0002:0000e224       __tryblocktable$??$_Copy_nodes@U_Copy_tag@?$_Tree@V?$_Tmap_traits@V?$basic_string@DU?$char_traits@D@std@@V?$allocator@D@2@@std@@PAVObj@@U?$less@V?$basic_string@DU?$char_traits@D@std@@V?$allocator@D@2@@std@@@2@V?$allocator@U?$pair@$$CBV?$basic_string@DU?$char_traits@D@std@@V?$allocator@D@2@@std@@PAVObj@@@std@@@2@$0A@@std@@@std@@@?$_Tree@V?$_Tmap_traits@V?$basic_string@DU?$char_traits@D@std@@V?$allocator@D@2@@std@@PAVObj@@U?$less@V?$basic_string@DU?$char_traits@D@std@@V?$allocator@D@2@@std@@@2@V?$allocator@U?$pair@$$CBV?$basic_string@DU?$char_traits@D@std@@V?$allocator@D@2@@std@@PAVObj@@@std@@@2@$0A@@std@@@std@@IAEPAU?$_Tree_node@U?$pair@$$CBV?$basic_string@DU?$char_traits@D@std@@V?$allocator@D@2@@std@@PAVObj@@@std@@PAX@1@PAU21@0U_Copy_tag@01@@Z 00492224     parse.obj
 0002:0000e238       __ehfuncinfo$??$_Copy_nodes@U_Copy_tag@?$_Tree@V?$_Tmap_traits@V?$basic_string@DU?$char_traits@D@std@@V?$allocator@D@2@@std@@PAVObj@@U?$less@V?$basic_string@DU?$char_traits@D@std@@V?$allocator@D@2@@std@@@2@V?$allocator@U?$pair@$$CBV?$basic_string@DU?$char_traits@D@std@@V?$allocator@D@2@@std@@PAVObj@@@std@@@2@$0A@@std@@@std@@@?$_Tree@V?$_Tmap_traits@V?$basic_string@DU?$char_traits@D@std@@V?$allocator@D@2@@std@@PAVObj@@U?$less@V?$basic_string@DU?$char_traits@D@std@@V?$allocator@D@2@@std@@@2@V?$allocator@U?$pair@$$CBV?$basic_string@DU?$char_traits@D@std@@V?$allocator@D@2@@std@@PAVObj@@@std@@@2@$0A@@std@@@std@@IAEPAU?$_Tree_node@U?$pair@$$CBV?$basic_string@DU?$char_traits@D@std@@V?$allocator@D@2@@std@@PAVObj@@@std@@PAX@1@PAU21@0U_Copy_tag@01@@Z 00492238     parse.obj
 0002:0000e25c       __catchsym$??$_Buynode@ABUpiecewise_construct_t@std@@V?$tuple@ABV?$basic_string@DU?$char_traits@D@std@@V?$allocator@D@2@@std@@@2@V?$tuple@$$V@2@@?$_Tree_comp_alloc@V?$_Tmap_traits@V?$basic_string@DU?$char_traits@D@std@@V?$allocator@D@2@@std@@PAVObj@@U?$less@V?$basic_string@DU?$char_traits@D@std@@V?$allocator@D@2@@std@@@2@V?$allocator@U?$pair@$$CBV?$basic_string@DU?$char_traits@D@std@@V?$allocator@D@2@@std@@PAVObj@@@std@@@2@$0A@@std@@@std@@QAEPAU?$_Tree_node@U?$pair@$$CBV?$basic_string@DU?$char_traits@D@std@@V?$allocator@D@2@@std@@PAVObj@@@std@@PAX@1@ABUpiecewise_construct_t@1@$$QAV?$tuple@ABV?$basic_string@DU?$char_traits@D@std@@V?$allocator@D@2@@std@@@1@$$QAV?$tuple@$$V@1@@Z$35 0049225c     parse.obj
 0002:0000e26c       __tryblocktable$??$_Buynode@ABUpiecewise_construct_t@std@@V?$tuple@ABV?$basic_string@DU?$char_traits@D@std@@V?$allocator@D@2@@std@@@2@V?$tuple@$$V@2@@?$_Tree_comp_alloc@V?$_Tmap_traits@V?$basic_string@DU?$char_traits@D@std@@V?$allocator@D@2@@std@@PAVObj@@U?$less@V?$basic_string@DU?$char_traits@D@std@@V?$allocator@D@2@@std@@@2@V?$allocator@U?$pair@$$CBV?$basic_string@DU?$char_traits@D@std@@V?$allocator@D@2@@std@@PAVObj@@@std@@@2@$0A@@std@@@std@@QAEPAU?$_Tree_node@U?$pair@$$CBV?$basic_string@DU?$char_traits@D@std@@V?$allocator@D@2@@std@@PAVObj@@@std@@PAX@1@ABUpiecewise_construct_t@1@$$QAV?$tuple@ABV?$basic_string@DU?$char_traits@D@std@@V?$allocator@D@2@@std@@@1@$$QAV?$tuple@$$V@1@@Z 0049226c     parse.obj
 0002:0000e280       __unwindtable$??$_Buynode@ABUpiecewise_construct_t@std@@V?$tuple@ABV?$basic_string@DU?$char_traits@D@std@@V?$allocator@D@2@@std@@@2@V?$tuple@$$V@2@@?$_Tree_comp_alloc@V?$_Tmap_traits@V?$basic_string@DU?$char_traits@D@std@@V?$allocator@D@2@@std@@PAVObj@@U?$less@V?$basic_string@DU?$char_traits@D@std@@V?$allocator@D@2@@std@@@2@V?$allocator@U?$pair@$$CBV?$basic_string@DU?$char_traits@D@std@@V?$allocator@D@2@@std@@PAVObj@@@std@@@2@$0A@@std@@@std@@QAEPAU?$_Tree_node@U?$pair@$$CBV?$basic_string@DU?$char_traits@D@std@@V?$allocator@D@2@@std@@PAVObj@@@std@@PAX@1@ABUpiecewise_construct_t@1@$$QAV?$tuple@ABV?$basic_string@DU?$char_traits@D@std@@V?$allocator@D@2@@std@@@1@$$QAV?$tuple@$$V@1@@Z 00492280     parse.obj
 0002:0000e298       __ehfuncinfo$??$_Buynode@ABUpiecewise_construct_t@std@@V?$tuple@ABV?$basic_string@DU?$char_traits@D@std@@V?$allocator@D@2@@std@@@2@V?$tuple@$$V@2@@?$_Tree_comp_alloc@V?$_Tmap_traits@V?$basic_string@DU?$char_traits@D@std@@V?$allocator@D@2@@std@@PAVObj@@U?$less@V?$basic_string@DU?$char_traits@D@std@@V?$allocator@D@2@@std@@@2@V?$allocator@U?$pair@$$CBV?$basic_string@DU?$char_traits@D@std@@V?$allocator@D@2@@std@@PAVObj@@@std@@@2@$0A@@std@@@std@@QAEPAU?$_Tree_node@U?$pair@$$CBV?$basic_string@DU?$char_traits@D@std@@V?$allocator@D@2@@std@@PAVObj@@@std@@PAX@1@ABUpiecewise_construct_t@1@$$QAV?$tuple@ABV?$basic_string@DU?$char_traits@D@std@@V?$allocator@D@2@@std@@@1@$$QAV?$tuple@$$V@1@@Z 00492298     parse.obj
 0002:0000e2bc       __catchsym$??$_Insert_hint@AAU?$pair@$$CBV?$basic_string@DU?$char_traits@D@std@@V?$allocator@D@2@@std@@PAVObj@@@std@@PAU?$_Tree_node@U?$pair@$$CBV?$basic_string@DU?$char_traits@D@std@@V?$allocator@D@2@@std@@PAVObj@@@std@@PAX@2@@?$_Tree@V?$_Tmap_traits@V?$basic_string@DU?$char_traits@D@std@@V?$allocator@D@2@@std@@PAVObj@@U?$less@V?$basic_string@DU?$char_traits@D@std@@V?$allocator@D@2@@std@@@2@V?$allocator@U?$pair@$$CBV?$basic_string@DU?$char_traits@D@std@@V?$allocator@D@2@@std@@PAVObj@@@std@@@2@$0A@@std@@@std@@IAE?AV?$_Tree_iterator@V?$_Tree_val@U?$_Tree_simple_types@U?$pair@$$CBV?$basic_string@DU?$char_traits@D@std@@V?$allocator@D@2@@std@@PAVObj@@@std@@@std@@@std@@@1@V?$_Tree_const_iterator@V?$_Tree_val@U?$_Tree_simple_types@U?$pair@$$CBV?$basic_string@DU?$char_traits@D@std@@V?$allocator@D@2@@std@@PAVObj@@@std@@@std@@@std@@@1@AAU?$pair@$$CBV?$basic_string@DU?$char_traits@D@std@@V?$allocator@D@2@@std@@PAVObj@@@1@PAU?$_Tree_node@U?$pair@$$CBV?$basic_string@DU?$char_traits@D@std@@V?$allocator@D@2@@std@@PAVObj@@@std@@PAX@1@@Z$143 004922bc     parse.obj
 0002:0000e2cc       __unwindtable$??$_Insert_hint@AAU?$pair@$$CBV?$basic_string@DU?$char_traits@D@std@@V?$allocator@D@2@@std@@PAVObj@@@std@@PAU?$_Tree_node@U?$pair@$$CBV?$basic_string@DU?$char_traits@D@std@@V?$allocator@D@2@@std@@PAVObj@@@std@@PAX@2@@?$_Tree@V?$_Tmap_traits@V?$basic_string@DU?$char_traits@D@std@@V?$allocator@D@2@@std@@PAVObj@@U?$less@V?$basic_string@DU?$char_traits@D@std@@V?$allocator@D@2@@std@@@2@V?$allocator@U?$pair@$$CBV?$basic_string@DU?$char_traits@D@std@@V?$allocator@D@2@@std@@PAVObj@@@std@@@2@$0A@@std@@@std@@IAE?AV?$_Tree_iterator@V?$_Tree_val@U?$_Tree_simple_types@U?$pair@$$CBV?$basic_string@DU?$char_traits@D@std@@V?$allocator@D@2@@std@@PAVObj@@@std@@@std@@@std@@@1@V?$_Tree_const_iterator@V?$_Tree_val@U?$_Tree_simple_types@U?$pair@$$CBV?$basic_string@DU?$char_traits@D@std@@V?$allocator@D@2@@std@@PAVObj@@@std@@@std@@@std@@@1@AAU?$pair@$$CBV?$basic_string@DU?$char_traits@D@std@@V?$allocator@D@2@@std@@PAVObj@@@1@PAU?$_Tree_node@U?$pair@$$CBV?$basic_string@DU?$char_traits@D@std@@V?$allocator@D@2@@std@@PAVObj@@@std@@PAX@1@@Z 004922cc     parse.obj
 0002:0000e2dc       __tryblocktable$??$_Insert_hint@AAU?$pair@$$CBV?$basic_string@DU?$char_traits@D@std@@V?$allocator@D@2@@std@@PAVObj@@@std@@PAU?$_Tree_node@U?$pair@$$CBV?$basic_string@DU?$char_traits@D@std@@V?$allocator@D@2@@std@@PAVObj@@@std@@PAX@2@@?$_Tree@V?$_Tmap_traits@V?$basic_string@DU?$char_traits@D@std@@V?$allocator@D@2@@std@@PAVObj@@U?$less@V?$basic_string@DU?$char_traits@D@std@@V?$allocator@D@2@@std@@@2@V?$allocator@U?$pair@$$CBV?$basic_string@DU?$char_traits@D@std@@V?$allocator@D@2@@std@@PAVObj@@@std@@@2@$0A@@std@@@std@@IAE?AV?$_Tree_iterator@V?$_Tree_val@U?$_Tree_simple_types@U?$pair@$$CBV?$basic_string@DU?$char_traits@D@std@@V?$allocator@D@2@@std@@PAVObj@@@std@@@std@@@std@@@1@V?$_Tree_const_iterator@V?$_Tree_val@U?$_Tree_simple_types@U?$pair@$$CBV?$basic_string@DU?$char_traits@D@std@@V?$allocator@D@2@@std@@PAVObj@@@std@@@std@@@std@@@1@AAU?$pair@$$CBV?$basic_string@DU?$char_traits@D@std@@V?$allocator@D@2@@std@@PAVObj@@@1@PAU?$_Tree_node@U?$pair@$$CBV?$basic_string@DU?$char_traits@D@std@@V?$allocator@D@2@@std@@PAVObj@@@std@@PAX@1@@Z 004922dc     parse.obj
 0002:0000e2f0       __ehfuncinfo$??$_Insert_hint@AAU?$pair@$$CBV?$basic_string@DU?$char_traits@D@std@@V?$allocator@D@2@@std@@PAVObj@@@std@@PAU?$_Tree_node@U?$pair@$$CBV?$basic_string@DU?$char_traits@D@std@@V?$allocator@D@2@@std@@PAVObj@@@std@@PAX@2@@?$_Tree@V?$_Tmap_traits@V?$basic_string@DU?$char_traits@D@std@@V?$allocator@D@2@@std@@PAVObj@@U?$less@V?$basic_string@DU?$char_traits@D@std@@V?$allocator@D@2@@std@@@2@V?$allocator@U?$pair@$$CBV?$basic_string@DU?$char_traits@D@std@@V?$allocator@D@2@@std@@PAVObj@@@std@@@2@$0A@@std@@@std@@IAE?AV?$_Tree_iterator@V?$_Tree_val@U?$_Tree_simple_types@U?$pair@$$CBV?$basic_string@DU?$char_traits@D@std@@V?$allocator@D@2@@std@@PAVObj@@@std@@@std@@@std@@@1@V?$_Tree_const_iterator@V?$_Tree_val@U?$_Tree_simple_types@U?$pair@$$CBV?$basic_string@DU?$char_traits@D@std@@V?$allocator@D@2@@std@@PAVObj@@@std@@@std@@@std@@@1@AAU?$pair@$$CBV?$basic_string@DU?$char_traits@D@std@@V?$allocator@D@2@@std@@PAVObj@@@1@PAU?$_Tree_node@U?$pair@$$CBV?$basic_string@DU?$char_traits@D@std@@V?$allocator@D@2@@std@@PAVObj@@@std@@PAX@1@@Z 004922f0     parse.obj
 0002:0000e314       __catchsym$??$_Insert_nohint@AAU?$pair@$$CBV?$basic_string@DU?$char_traits@D@std@@V?$allocator@D@2@@std@@PAVObj@@@std@@PAU?$_Tree_node@U?$pair@$$CBV?$basic_string@DU?$char_traits@D@std@@V?$allocator@D@2@@std@@PAVObj@@@std@@PAX@2@@?$_Tree@V?$_Tmap_traits@V?$basic_string@DU?$char_traits@D@std@@V?$allocator@D@2@@std@@PAVObj@@U?$less@V?$basic_string@DU?$char_traits@D@std@@V?$allocator@D@2@@std@@@2@V?$allocator@U?$pair@$$CBV?$basic_string@DU?$char_traits@D@std@@V?$allocator@D@2@@std@@PAVObj@@@std@@@2@$0A@@std@@@std@@IAE?AU?$pair@V?$_Tree_iterator@V?$_Tree_val@U?$_Tree_simple_types@U?$pair@$$CBV?$basic_string@DU?$char_traits@D@std@@V?$allocator@D@2@@std@@PAVObj@@@std@@@std@@@std@@@std@@_N@1@_NAAU?$pair@$$CBV?$basic_string@DU?$char_traits@D@std@@V?$allocator@D@2@@std@@PAVObj@@@1@PAU?$_Tree_node@U?$pair@$$CBV?$basic_string@DU?$char_traits@D@std@@V?$allocator@D@2@@std@@PAVObj@@@std@@PAX@1@@Z$86 00492314     parse.obj
 0002:0000e324       __unwindtable$??$_Insert_nohint@AAU?$pair@$$CBV?$basic_string@DU?$char_traits@D@std@@V?$allocator@D@2@@std@@PAVObj@@@std@@PAU?$_Tree_node@U?$pair@$$CBV?$basic_string@DU?$char_traits@D@std@@V?$allocator@D@2@@std@@PAVObj@@@std@@PAX@2@@?$_Tree@V?$_Tmap_traits@V?$basic_string@DU?$char_traits@D@std@@V?$allocator@D@2@@std@@PAVObj@@U?$less@V?$basic_string@DU?$char_traits@D@std@@V?$allocator@D@2@@std@@@2@V?$allocator@U?$pair@$$CBV?$basic_string@DU?$char_traits@D@std@@V?$allocator@D@2@@std@@PAVObj@@@std@@@2@$0A@@std@@@std@@IAE?AU?$pair@V?$_Tree_iterator@V?$_Tree_val@U?$_Tree_simple_types@U?$pair@$$CBV?$basic_string@DU?$char_traits@D@std@@V?$allocator@D@2@@std@@PAVObj@@@std@@@std@@@std@@@std@@_N@1@_NAAU?$pair@$$CBV?$basic_string@DU?$char_traits@D@std@@V?$allocator@D@2@@std@@PAVObj@@@1@PAU?$_Tree_node@U?$pair@$$CBV?$basic_string@DU?$char_traits@D@std@@V?$allocator@D@2@@std@@PAVObj@@@std@@PAX@1@@Z 00492324     parse.obj
 0002:0000e334       __tryblocktable$??$_Insert_nohint@AAU?$pair@$$CBV?$basic_string@DU?$char_traits@D@std@@V?$allocator@D@2@@std@@PAVObj@@@std@@PAU?$_Tree_node@U?$pair@$$CBV?$basic_string@DU?$char_traits@D@std@@V?$allocator@D@2@@std@@PAVObj@@@std@@PAX@2@@?$_Tree@V?$_Tmap_traits@V?$basic_string@DU?$char_traits@D@std@@V?$allocator@D@2@@std@@PAVObj@@U?$less@V?$basic_string@DU?$char_traits@D@std@@V?$allocator@D@2@@std@@@2@V?$allocator@U?$pair@$$CBV?$basic_string@DU?$char_traits@D@std@@V?$allocator@D@2@@std@@PAVObj@@@std@@@2@$0A@@std@@@std@@IAE?AU?$pair@V?$_Tree_iterator@V?$_Tree_val@U?$_Tree_simple_types@U?$pair@$$CBV?$basic_string@DU?$char_traits@D@std@@V?$allocator@D@2@@std@@PAVObj@@@std@@@std@@@std@@@std@@_N@1@_NAAU?$pair@$$CBV?$basic_string@DU?$char_traits@D@std@@V?$allocator@D@2@@std@@PAVObj@@@1@PAU?$_Tree_node@U?$pair@$$CBV?$basic_string@DU?$char_traits@D@std@@V?$allocator@D@2@@std@@PAVObj@@@std@@PAX@1@@Z 00492334     parse.obj
 0002:0000e348       __ehfuncinfo$??$_Insert_nohint@AAU?$pair@$$CBV?$basic_string@DU?$char_traits@D@std@@V?$allocator@D@2@@std@@PAVObj@@@std@@PAU?$_Tree_node@U?$pair@$$CBV?$basic_string@DU?$char_traits@D@std@@V?$allocator@D@2@@std@@PAVObj@@@std@@PAX@2@@?$_Tree@V?$_Tmap_traits@V?$basic_string@DU?$char_traits@D@std@@V?$allocator@D@2@@std@@PAVObj@@U?$less@V?$basic_string@DU?$char_traits@D@std@@V?$allocator@D@2@@std@@@2@V?$allocator@U?$pair@$$CBV?$basic_string@DU?$char_traits@D@std@@V?$allocator@D@2@@std@@PAVObj@@@std@@@2@$0A@@std@@@std@@IAE?AU?$pair@V?$_Tree_iterator@V?$_Tree_val@U?$_Tree_simple_types@U?$pair@$$CBV?$basic_string@DU?$char_traits@D@std@@V?$allocator@D@2@@std@@PAVObj@@@std@@@std@@@std@@@std@@_N@1@_NAAU?$pair@$$CBV?$basic_string@DU?$char_traits@D@std@@V?$allocator@D@2@@std@@PAVObj@@@1@PAU?$_Tree_node@U?$pair@$$CBV?$basic_string@DU?$char_traits@D@std@@V?$allocator@D@2@@std@@PAVObj@@@std@@PAX@1@@Z 00492348     parse.obj
 0002:0000e36c       __catchsym$??$_Buynode@AAU?$pair@$$CBV?$basic_string@DU?$char_traits@D@std@@V?$allocator@D@2@@std@@PAVObj@@@std@@@?$_Tree_comp_alloc@V?$_Tmap_traits@V?$basic_string@DU?$char_traits@D@std@@V?$allocator@D@2@@std@@PAVObj@@U?$less@V?$basic_string@DU?$char_traits@D@std@@V?$allocator@D@2@@std@@@2@V?$allocator@U?$pair@$$CBV?$basic_string@DU?$char_traits@D@std@@V?$allocator@D@2@@std@@PAVObj@@@std@@@2@$0A@@std@@@std@@QAEPAU?$_Tree_node@U?$pair@$$CBV?$basic_string@DU?$char_traits@D@std@@V?$allocator@D@2@@std@@PAVObj@@@std@@PAX@1@AAU?$pair@$$CBV?$basic_string@DU?$char_traits@D@std@@V?$allocator@D@2@@std@@PAVObj@@@1@@Z$20 0049236c     parse.obj
 0002:0000e37c       __tryblocktable$??$_Buynode@AAU?$pair@$$CBV?$basic_string@DU?$char_traits@D@std@@V?$allocator@D@2@@std@@PAVObj@@@std@@@?$_Tree_comp_alloc@V?$_Tmap_traits@V?$basic_string@DU?$char_traits@D@std@@V?$allocator@D@2@@std@@PAVObj@@U?$less@V?$basic_string@DU?$char_traits@D@std@@V?$allocator@D@2@@std@@@2@V?$allocator@U?$pair@$$CBV?$basic_string@DU?$char_traits@D@std@@V?$allocator@D@2@@std@@PAVObj@@@std@@@2@$0A@@std@@@std@@QAEPAU?$_Tree_node@U?$pair@$$CBV?$basic_string@DU?$char_traits@D@std@@V?$allocator@D@2@@std@@PAVObj@@@std@@PAX@1@AAU?$pair@$$CBV?$basic_string@DU?$char_traits@D@std@@V?$allocator@D@2@@std@@PAVObj@@@1@@Z 0049237c     parse.obj
 0002:0000e390       __unwindtable$??$_Buynode@AAU?$pair@$$CBV?$basic_string@DU?$char_traits@D@std@@V?$allocator@D@2@@std@@PAVObj@@@std@@@?$_Tree_comp_alloc@V?$_Tmap_traits@V?$basic_string@DU?$char_traits@D@std@@V?$allocator@D@2@@std@@PAVObj@@U?$less@V?$basic_string@DU?$char_traits@D@std@@V?$allocator@D@2@@std@@@2@V?$allocator@U?$pair@$$CBV?$basic_string@DU?$char_traits@D@std@@V?$allocator@D@2@@std@@PAVObj@@@std@@@2@$0A@@std@@@std@@QAEPAU?$_Tree_node@U?$pair@$$CBV?$basic_string@DU?$char_traits@D@std@@V?$allocator@D@2@@std@@PAVObj@@@std@@PAX@1@AAU?$pair@$$CBV?$basic_string@DU?$char_traits@D@std@@V?$allocator@D@2@@std@@PAVObj@@@1@@Z 00492390     parse.obj
 0002:0000e3a8       __ehfuncinfo$??$_Buynode@AAU?$pair@$$CBV?$basic_string@DU?$char_traits@D@std@@V?$allocator@D@2@@std@@PAVObj@@@std@@@?$_Tree_comp_alloc@V?$_Tmap_traits@V?$basic_string@DU?$char_traits@D@std@@V?$allocator@D@2@@std@@PAVObj@@U?$less@V?$basic_string@DU?$char_traits@D@std@@V?$allocator@D@2@@std@@@2@V?$allocator@U?$pair@$$CBV?$basic_string@DU?$char_traits@D@std@@V?$allocator@D@2@@std@@PAVObj@@@std@@@2@$0A@@std@@@std@@QAEPAU?$_Tree_node@U?$pair@$$CBV?$basic_string@DU?$char_traits@D@std@@V?$allocator@D@2@@std@@PAVObj@@@std@@PAX@1@AAU?$pair@$$CBV?$basic_string@DU?$char_traits@D@std@@V?$allocator@D@2@@std@@PAVObj@@@1@@Z 004923a8     parse.obj
 0002:0000e45c       __ehfuncinfo$??1locale@std@@QAE@XZ 0049245c     read.obj
 0002:0000e480       __ehfuncinfo$??1strstreambuf@std@@UAE@XZ 00492480     read.obj
 0002:0000e4a4       __unwindtable$??_Gstrstreambuf@std@@UAEPAXI@Z 004924a4     read.obj
 0002:0000e4ac       __ehfuncinfo$??_Gstrstreambuf@std@@UAEPAXI@Z 004924ac     read.obj
 0002:0000e4d0       __unwindtable$??0ostrstream@std@@QAE@XZ 004924d0     read.obj
 0002:0000e4e8       __ehfuncinfo$??0ostrstream@std@@QAE@XZ 004924e8     read.obj
 0002:0000e50c       __unwindtable$??1ostrstream@std@@UAE@XZ 0049250c     read.obj
 0002:0000e514       __ehfuncinfo$??1ostrstream@std@@UAE@XZ 00492514     read.obj
 0002:0000e538       __unwindtable$?createChild@TransformNode@@QAEPAV1@ABVmat4f@@@Z 00492538     read.obj
 0002:0000e540       __ehfuncinfo$?createChild@TransformNode@@QAEPAV1@ABVmat4f@@@Z 00492540     read.obj
 0002:0000e564       __unwindtable$??0TransformNode@@IAE@PAV0@ABVmat4f@@@Z 00492564     read.obj
 0002:0000e56c       __ehfuncinfo$??0TransformNode@@IAE@PAV0@ABVmat4f@@@Z 0049256c     read.obj
 0002:0000e590       __ehfuncinfo$??0Scene@@QAE@XZ 00492590     read.obj
 0002:0000e5b4       __unwindtable$??0Scene@@QAE@XZ 004925b4     read.obj
 0002:0000e5e4       __catchsym$?readScene@@YAPAVScene@@ABV?$basic_string@DU?$char_traits@D@std@@V?$allocator@D@2@@std@@@Z$17 004925e4     read.obj
 0002:0000e5f4       __tryblocktable$?readScene@@YAPAVScene@@ABV?$basic_string@DU?$char_traits@D@std@@V?$allocator@D@2@@std@@@Z 004925f4     read.obj
 0002:0000e608       __unwindtable$?readScene@@YAPAVScene@@ABV?$basic_string@DU?$char_traits@D@std@@V?$allocator@D@2@@std@@@Z 00492608     read.obj
 0002:0000e620       __ehfuncinfo$?readScene@@YAPAVScene@@ABV?$basic_string@DU?$char_traits@D@std@@V?$allocator@D@2@@std@@@Z 00492620     read.obj
 0002:0000e644       __ehfuncinfo$?readScene@@YAPAVScene@@AAV?$basic_istream@DU?$char_traits@D@std@@@std@@@Z 00492644     read.obj
 0002:0000e668       __unwindtable$?readScene@@YAPAVScene@@AAV?$basic_istream@DU?$char_traits@D@std@@@std@@@Z 00492668     read.obj
 0002:0000e698       __unwindtable$??6@YAAAV?$basic_ostream@DU?$char_traits@D@std@@@std@@AAV01@ABVException@@@Z 00492698     read.obj
 0002:0000e6a0       __ehfuncinfo$??6@YAAAV?$basic_ostream@DU?$char_traits@D@std@@@std@@AAV01@ABVException@@@Z 004926a0     read.obj
 0002:0000e6c4       __ehfuncinfo$?processObject@@YAXPAVObj@@PAVScene@@AAV?$map@V?$basic_string@DU?$char_traits@D@std@@V?$allocator@D@2@@std@@PAVMaterial@@U?$less@V?$basic_string@DU?$char_traits@D@std@@V?$allocator@D@2@@std@@@2@V?$allocator@U?$pair@$$CBV?$basic_string@DU?$char_traits@D@std@@V?$allocator@D@2@@std@@PAVMaterial@@@std@@@2@@std@@@Z 004926c4     read.obj
 0002:0000e6e8       __unwindtable$?processObject@@YAXPAVObj@@PAVScene@@AAV?$map@V?$basic_string@DU?$char_traits@D@std@@V?$allocator@D@2@@std@@PAVMaterial@@U?$less@V?$basic_string@DU?$char_traits@D@std@@V?$allocator@D@2@@std@@@2@V?$allocator@U?$pair@$$CBV?$basic_string@DU?$char_traits@D@std@@V?$allocator@D@2@@std@@PAVMaterial@@@std@@@2@@std@@@Z 004926e8     read.obj
 0002:0000e750       __unwindtable$?getColorField@@YAPAVObj@@PAV1@@Z 00492750     read.obj
 0002:0000e760       __ehfuncinfo$?getColorField@@YAPAVObj@@PAV1@@Z 00492760     read.obj
 0002:0000e784       __ehfuncinfo$?getField@@YAPAVObj@@PAV1@ABV?$basic_string@DU?$char_traits@D@std@@V?$allocator@D@2@@std@@@Z 00492784     read.obj
 0002:0000e7a8       __unwindtable$?getField@@YAPAVObj@@PAV1@ABV?$basic_string@DU?$char_traits@D@std@@V?$allocator@D@2@@std@@@Z 004927a8     read.obj
 0002:0000e7d8       __ehfuncinfo$?processGeometry@@YAXV?$basic_string@DU?$char_traits@D@std@@V?$allocator@D@2@@std@@PAVObj@@PAVScene@@ABV?$map@V?$basic_string@DU?$char_traits@D@std@@V?$allocator@D@2@@std@@PAVMaterial@@U?$less@V?$basic_string@DU?$char_traits@D@std@@V?$allocator@D@2@@std@@@2@V?$allocator@U?$pair@$$CBV?$basic_string@DU?$char_traits@D@std@@V?$allocator@D@2@@std@@PAVMaterial@@@std@@@2@@2@PAVTransformNode@@@Z 004927d8     read.obj
 0002:0000e7fc       __unwindtable$?processGeometry@@YAXV?$basic_string@DU?$char_traits@D@std@@V?$allocator@D@2@@std@@PAVObj@@PAVScene@@ABV?$map@V?$basic_string@DU?$char_traits@D@std@@V?$allocator@D@2@@std@@PAVMaterial@@U?$less@V?$basic_string@DU?$char_traits@D@std@@V?$allocator@D@2@@std@@@2@V?$allocator@U?$pair@$$CBV?$basic_string@DU?$char_traits@D@std@@V?$allocator@D@2@@std@@PAVMaterial@@@std@@@2@@2@PAVTransformNode@@@Z 004927fc     read.obj
 0002:0000e82c       __ehfuncinfo$?processTrimesh@@YAXV?$basic_string@DU?$char_traits@D@std@@V?$allocator@D@2@@std@@PAVObj@@PAVScene@@ABV?$map@V?$basic_string@DU?$char_traits@D@std@@V?$allocator@D@2@@std@@PAVMaterial@@U?$less@V?$basic_string@DU?$char_traits@D@std@@V?$allocator@D@2@@std@@@2@V?$allocator@U?$pair@$$CBV?$basic_string@DU?$char_traits@D@std@@V?$allocator@D@2@@std@@PAVMaterial@@@std@@@2@@2@PAVTransformNode@@@Z 0049282c     read.obj
 0002:0000e850       __unwindtable$?processTrimesh@@YAXV?$basic_string@DU?$char_traits@D@std@@V?$allocator@D@2@@std@@PAVObj@@PAVScene@@ABV?$map@V?$basic_string@DU?$char_traits@D@std@@V?$allocator@D@2@@std@@PAVMaterial@@U?$less@V?$basic_string@DU?$char_traits@D@std@@V?$allocator@D@2@@std@@@2@V?$allocator@U?$pair@$$CBV?$basic_string@DU?$char_traits@D@std@@V?$allocator@D@2@@std@@PAVMaterial@@@std@@@2@@2@PAVTransformNode@@@Z 00492850     read.obj
 0002:0000e8b8       __ehfuncinfo$?processCamera@@YAXPAVObj@@PAVScene@@@Z 004928b8     read.obj
 0002:0000e8dc       __unwindtable$?processCamera@@YAXPAVObj@@PAVScene@@@Z 004928dc     read.obj
 0002:0000e944       __unwindtable$?getMaterial@@YAPAVMaterial@@PAVObj@@ABV?$map@V?$basic_string@DU?$char_traits@D@std@@V?$allocator@D@2@@std@@PAVMaterial@@U?$less@V?$basic_string@DU?$char_traits@D@std@@V?$allocator@D@2@@std@@@2@V?$allocator@U?$pair@$$CBV?$basic_string@DU?$char_traits@D@std@@V?$allocator@D@2@@std@@PAVMaterial@@@std@@@2@@std@@@Z 00492944     read.obj
 0002:0000e94c       __ehfuncinfo$?getMaterial@@YAPAVMaterial@@PAVObj@@ABV?$map@V?$basic_string@DU?$char_traits@D@std@@V?$allocator@D@2@@std@@PAVMaterial@@U?$less@V?$basic_string@DU?$char_traits@D@std@@V?$allocator@D@2@@std@@@2@V?$allocator@U?$pair@$$CBV?$basic_string@DU?$char_traits@D@std@@V?$allocator@D@2@@std@@PAVMaterial@@@std@@@2@@std@@@Z 0049294c     read.obj
 0002:0000e970       __ehfuncinfo$?processMaterial@@YAPAVMaterial@@PAVObj@@PAV?$map@V?$basic_string@DU?$char_traits@D@std@@V?$allocator@D@2@@std@@PAVMaterial@@U?$less@V?$basic_string@DU?$char_traits@D@std@@V?$allocator@D@2@@std@@@2@V?$allocator@U?$pair@$$CBV?$basic_string@DU?$char_traits@D@std@@V?$allocator@D@2@@std@@PAVMaterial@@@std@@@2@@std@@@Z 00492970     read.obj
 0002:0000e994       __unwindtable$?processMaterial@@YAPAVMaterial@@PAVObj@@PAV?$map@V?$basic_string@DU?$char_traits@D@std@@V?$allocator@D@2@@std@@PAVMaterial@@U?$less@V?$basic_string@DU?$char_traits@D@std@@V?$allocator@D@2@@std@@@2@V?$allocator@U?$pair@$$CBV?$basic_string@DU?$char_traits@D@std@@V?$allocator@D@2@@std@@PAVMaterial@@@std@@@2@@std@@@Z 00492994     read.obj
 0002:0000ea3c       __unwindtable$?verifyTuple@@YAXABV?$vector@PAVObj@@V?$allocator@PAVObj@@@std@@@std@@I@Z 00492a3c     read.obj
 0002:0000ea4c       __ehfuncinfo$?verifyTuple@@YAXABV?$vector@PAVObj@@V?$allocator@PAVObj@@@std@@@std@@I@Z 00492a4c     read.obj
 0002:0000ea70       __unwindtable$??0?$basic_ifstream@DU?$char_traits@D@std@@@std@@QAE@PBDHH@Z 00492a70     read.obj
 0002:0000ea90       __ehfuncinfo$??0?$basic_ifstream@DU?$char_traits@D@std@@@std@@QAE@PBDHH@Z 00492a90     read.obj
 0002:0000eab4       __unwindtable$??1?$basic_ifstream@DU?$char_traits@D@std@@@std@@UAE@XZ 00492ab4     read.obj
 0002:0000eabc       __ehfuncinfo$??1?$basic_ifstream@DU?$char_traits@D@std@@@std@@UAE@XZ 00492abc     read.obj
 0002:0000eae0       __ehfuncinfo$??1?$basic_filebuf@DU?$char_traits@D@std@@@std@@UAE@XZ 00492ae0     read.obj
 0002:0000eb04       __unwindtable$?open@?$basic_filebuf@DU?$char_traits@D@std@@@std@@QAEPAV12@PBDHH@Z 00492b04     read.obj
 0002:0000eb14       __ehfuncinfo$?open@?$basic_filebuf@DU?$char_traits@D@std@@@std@@QAEPAV12@PBDHH@Z 00492b14     read.obj
 0002:0000eb38       __unwindtable$?overflow@?$basic_filebuf@DU?$char_traits@D@std@@@std@@MAEHH@Z 00492b38     read.obj
 0002:0000eb40       __ehfuncinfo$?overflow@?$basic_filebuf@DU?$char_traits@D@std@@@std@@MAEHH@Z 00492b40     read.obj
 0002:0000eb64       __unwindtable$?uflow@?$basic_filebuf@DU?$char_traits@D@std@@@std@@MAEHXZ 00492b64     read.obj
 0002:0000eb6c       __ehfuncinfo$?uflow@?$basic_filebuf@DU?$char_traits@D@std@@@std@@MAEHXZ 00492b6c     read.obj
 0002:0000eb90       __unwindtable$?_Endwrite@?$basic_filebuf@DU?$char_traits@D@std@@@std@@IAE_NXZ 00492b90     read.obj
 0002:0000eb98       __ehfuncinfo$?_Endwrite@?$basic_filebuf@DU?$char_traits@D@std@@@std@@IAE_NXZ 00492b98     read.obj
 0002:0000ebbc       __unwindtable$??_G?$basic_filebuf@DU?$char_traits@D@std@@@std@@UAEPAXI@Z 00492bbc     read.obj
 0002:0000ebc4       __ehfuncinfo$??_G?$basic_filebuf@DU?$char_traits@D@std@@@std@@UAEPAXI@Z 00492bc4     read.obj
 0002:0000ebe8       __unwindtable$?erase@?$_Tree@V?$_Tmap_traits@V?$basic_string@DU?$char_traits@D@std@@V?$allocator@D@2@@std@@PAVMaterial@@U?$less@V?$basic_string@DU?$char_traits@D@std@@V?$allocator@D@2@@std@@@2@V?$allocator@U?$pair@$$CBV?$basic_string@DU?$char_traits@D@std@@V?$allocator@D@2@@std@@PAVMaterial@@@std@@@2@$0A@@std@@@std@@QAE?AV?$_Tree_iterator@V?$_Tree_val@U?$_Tree_simple_types@U?$pair@$$CBV?$basic_string@DU?$char_traits@D@std@@V?$allocator@D@2@@std@@PAVMaterial@@@std@@@std@@@std@@@2@V?$_Tree_const_iterator@V?$_Tree_val@U?$_Tree_simple_types@U?$pair@$$CBV?$basic_string@DU?$char_traits@D@std@@V?$allocator@D@2@@std@@PAVMaterial@@@std@@@std@@@std@@@2@0@Z 00492be8     read.obj
 0002:0000ebf0       __ehfuncinfo$?erase@?$_Tree@V?$_Tmap_traits@V?$basic_string@DU?$char_traits@D@std@@V?$allocator@D@2@@std@@PAVMaterial@@U?$less@V?$basic_string@DU?$char_traits@D@std@@V?$allocator@D@2@@std@@@2@V?$allocator@U?$pair@$$CBV?$basic_string@DU?$char_traits@D@std@@V?$allocator@D@2@@std@@PAVMaterial@@@std@@@2@$0A@@std@@@std@@QAE?AV?$_Tree_iterator@V?$_Tree_val@U?$_Tree_simple_types@U?$pair@$$CBV?$basic_string@DU?$char_traits@D@std@@V?$allocator@D@2@@std@@PAVMaterial@@@std@@@std@@@std@@@2@V?$_Tree_const_iterator@V?$_Tree_val@U?$_Tree_simple_types@U?$pair@$$CBV?$basic_string@DU?$char_traits@D@std@@V?$allocator@D@2@@std@@PAVMaterial@@@std@@@std@@@std@@@2@0@Z 00492bf0     read.obj
 0002:0000ec14       __unwindtable$??1?$map@V?$basic_string@DU?$char_traits@D@std@@V?$allocator@D@2@@std@@PAVMaterial@@U?$less@V?$basic_string@DU?$char_traits@D@std@@V?$allocator@D@2@@std@@@2@V?$allocator@U?$pair@$$CBV?$basic_string@DU?$char_traits@D@std@@V?$allocator@D@2@@std@@PAVMaterial@@@std@@@2@@std@@QAE@XZ 00492c14     read.obj
 0002:0000ec1c       __ehfuncinfo$??1?$map@V?$basic_string@DU?$char_traits@D@std@@V?$allocator@D@2@@std@@PAVMaterial@@U?$less@V?$basic_string@DU?$char_traits@D@std@@V?$allocator@D@2@@std@@@2@V?$allocator@U?$pair@$$CBV?$basic_string@DU?$char_traits@D@std@@V?$allocator@D@2@@std@@PAVMaterial@@@std@@@2@@std@@QAE@XZ 00492c1c     read.obj
 0002:0000ec40       __unwindtable$?processGeometry@@YAXPAVObj@@PAVScene@@ABV?$map@V?$basic_string@DU?$char_traits@D@std@@V?$allocator@D@2@@std@@PAVMaterial@@U?$less@V?$basic_string@DU?$char_traits@D@std@@V?$allocator@D@2@@std@@@2@V?$allocator@U?$pair@$$CBV?$basic_string@DU?$char_traits@D@std@@V?$allocator@D@2@@std@@PAVMaterial@@@std@@@2@@std@@PAVTransformNode@@@Z 00492c40     read.obj
 0002:0000ec58       __ehfuncinfo$?processGeometry@@YAXPAVObj@@PAVScene@@ABV?$map@V?$basic_string@DU?$char_traits@D@std@@V?$allocator@D@2@@std@@PAVMaterial@@U?$less@V?$basic_string@DU?$char_traits@D@std@@V?$allocator@D@2@@std@@@2@V?$allocator@U?$pair@$$CBV?$basic_string@DU?$char_traits@D@std@@V?$allocator@D@2@@std@@PAVMaterial@@@std@@@2@@std@@PAVTransformNode@@@Z 00492c58     read.obj
 0002:0000ec7c       __unwindtable$??$use_facet@V?$codecvt@DDU_Mbstatet@@@std@@@std@@YAABV?$codecvt@DDU_Mbstatet@@@0@ABVlocale@0@@Z 00492c7c     read.obj
 0002:0000ec84       __ehfuncinfo$??$use_facet@V?$codecvt@DDU_Mbstatet@@@std@@@std@@YAABV?$codecvt@DDU_Mbstatet@@@0@ABVlocale@0@@Z 00492c84     read.obj
 0002:0000eca8       __catchsym$??$_Buynode@ABUpiecewise_construct_t@std@@V?$tuple@ABV?$basic_string@DU?$char_traits@D@std@@V?$allocator@D@2@@std@@@2@V?$tuple@$$V@2@@?$_Tree_comp_alloc@V?$_Tmap_traits@V?$basic_string@DU?$char_traits@D@std@@V?$allocator@D@2@@std@@PAVMaterial@@U?$less@V?$basic_string@DU?$char_traits@D@std@@V?$allocator@D@2@@std@@@2@V?$allocator@U?$pair@$$CBV?$basic_string@DU?$char_traits@D@std@@V?$allocator@D@2@@std@@PAVMaterial@@@std@@@2@$0A@@std@@@std@@QAEPAU?$_Tree_node@U?$pair@$$CBV?$basic_string@DU?$char_traits@D@std@@V?$allocator@D@2@@std@@PAVMaterial@@@std@@PAX@1@ABUpiecewise_construct_t@1@$$QAV?$tuple@ABV?$basic_string@DU?$char_traits@D@std@@V?$allocator@D@2@@std@@@1@$$QAV?$tuple@$$V@1@@Z$35 00492ca8     read.obj
 0002:0000ecb8       __tryblocktable$??$_Buynode@ABUpiecewise_construct_t@std@@V?$tuple@ABV?$basic_string@DU?$char_traits@D@std@@V?$allocator@D@2@@std@@@2@V?$tuple@$$V@2@@?$_Tree_comp_alloc@V?$_Tmap_traits@V?$basic_string@DU?$char_traits@D@std@@V?$allocator@D@2@@std@@PAVMaterial@@U?$less@V?$basic_string@DU?$char_traits@D@std@@V?$allocator@D@2@@std@@@2@V?$allocator@U?$pair@$$CBV?$basic_string@DU?$char_traits@D@std@@V?$allocator@D@2@@std@@PAVMaterial@@@std@@@2@$0A@@std@@@std@@QAEPAU?$_Tree_node@U?$pair@$$CBV?$basic_string@DU?$char_traits@D@std@@V?$allocator@D@2@@std@@PAVMaterial@@@std@@PAX@1@ABUpiecewise_construct_t@1@$$QAV?$tuple@ABV?$basic_string@DU?$char_traits@D@std@@V?$allocator@D@2@@std@@@1@$$QAV?$tuple@$$V@1@@Z 00492cb8     read.obj
 0002:0000eccc       __unwindtable$??$_Buynode@ABUpiecewise_construct_t@std@@V?$tuple@ABV?$basic_string@DU?$char_traits@D@std@@V?$allocator@D@2@@std@@@2@V?$tuple@$$V@2@@?$_Tree_comp_alloc@V?$_Tmap_traits@V?$basic_string@DU?$char_traits@D@std@@V?$allocator@D@2@@std@@PAVMaterial@@U?$less@V?$basic_string@DU?$char_traits@D@std@@V?$allocator@D@2@@std@@@2@V?$allocator@U?$pair@$$CBV?$basic_string@DU?$char_traits@D@std@@V?$allocator@D@2@@std@@PAVMaterial@@@std@@@2@$0A@@std@@@std@@QAEPAU?$_Tree_node@U?$pair@$$CBV?$basic_string@DU?$char_traits@D@std@@V?$allocator@D@2@@std@@PAVMaterial@@@std@@PAX@1@ABUpiecewise_construct_t@1@$$QAV?$tuple@ABV?$basic_string@DU?$char_traits@D@std@@V?$allocator@D@2@@std@@@1@$$QAV?$tuple@$$V@1@@Z 00492ccc     read.obj
 0002:0000ece4       __ehfuncinfo$??$_Buynode@ABUpiecewise_construct_t@std@@V?$tuple@ABV?$basic_string@DU?$char_traits@D@std@@V?$allocator@D@2@@std@@@2@V?$tuple@$$V@2@@?$_Tree_comp_alloc@V?$_Tmap_traits@V?$basic_string@DU?$char_traits@D@std@@V?$allocator@D@2@@std@@PAVMaterial@@U?$less@V?$basic_string@DU?$char_traits@D@std@@V?$allocator@D@2@@std@@@2@V?$allocator@U?$pair@$$CBV?$basic_string@DU?$char_traits@D@std@@V?$allocator@D@2@@std@@PAVMaterial@@@std@@@2@$0A@@std@@@std@@QAEPAU?$_Tree_node@U?$pair@$$CBV?$basic_string@DU?$char_traits@D@std@@V?$allocator@D@2@@std@@PAVMaterial@@@std@@PAX@1@ABUpiecewise_construct_t@1@$$QAV?$tuple@ABV?$basic_string@DU?$char_traits@D@std@@V?$allocator@D@2@@std@@@1@$$QAV?$tuple@$$V@1@@Z 00492ce4     read.obj
 0002:0000ed08       __catchsym$??$_Insert_hint@AAU?$pair@$$CBV?$basic_string@DU?$char_traits@D@std@@V?$allocator@D@2@@std@@PAVMaterial@@@std@@PAU?$_Tree_node@U?$pair@$$CBV?$basic_string@DU?$char_traits@D@std@@V?$allocator@D@2@@std@@PAVMaterial@@@std@@PAX@2@@?$_Tree@V?$_Tmap_traits@V?$basic_string@DU?$char_traits@D@std@@V?$allocator@D@2@@std@@PAVMaterial@@U?$less@V?$basic_string@DU?$char_traits@D@std@@V?$allocator@D@2@@std@@@2@V?$allocator@U?$pair@$$CBV?$basic_string@DU?$char_traits@D@std@@V?$allocator@D@2@@std@@PAVMaterial@@@std@@@2@$0A@@std@@@std@@IAE?AV?$_Tree_iterator@V?$_Tree_val@U?$_Tree_simple_types@U?$pair@$$CBV?$basic_string@DU?$char_traits@D@std@@V?$allocator@D@2@@std@@PAVMaterial@@@std@@@std@@@std@@@1@V?$_Tree_const_iterator@V?$_Tree_val@U?$_Tree_simple_types@U?$pair@$$CBV?$basic_string@DU?$char_traits@D@std@@V?$allocator@D@2@@std@@PAVMaterial@@@std@@@std@@@std@@@1@AAU?$pair@$$CBV?$basic_string@DU?$char_traits@D@std@@V?$allocator@D@2@@std@@PAVMaterial@@@1@PAU?$_Tree_node@U?$pair@$$CBV?$basic_string@DU?$char_traits@D@std@@V?$allocator@D@2@@std@@PAVMaterial@@@std@@PAX@1@@Z$143 00492d08     read.obj
 0002:0000ed18       __unwindtable$??$_Insert_hint@AAU?$pair@$$CBV?$basic_string@DU?$char_traits@D@std@@V?$allocator@D@2@@std@@PAVMaterial@@@std@@PAU?$_Tree_node@U?$pair@$$CBV?$basic_string@DU?$char_traits@D@std@@V?$allocator@D@2@@std@@PAVMaterial@@@std@@PAX@2@@?$_Tree@V?$_Tmap_traits@V?$basic_string@DU?$char_traits@D@std@@V?$allocator@D@2@@std@@PAVMaterial@@U?$less@V?$basic_string@DU?$char_traits@D@std@@V?$allocator@D@2@@std@@@2@V?$allocator@U?$pair@$$CBV?$basic_string@DU?$char_traits@D@std@@V?$allocator@D@2@@std@@PAVMaterial@@@std@@@2@$0A@@std@@@std@@IAE?AV?$_Tree_iterator@V?$_Tree_val@U?$_Tree_simple_types@U?$pair@$$CBV?$basic_string@DU?$char_traits@D@std@@V?$allocator@D@2@@std@@PAVMaterial@@@std@@@std@@@std@@@1@V?$_Tree_const_iterator@V?$_Tree_val@U?$_Tree_simple_types@U?$pair@$$CBV?$basic_string@DU?$char_traits@D@std@@V?$allocator@D@2@@std@@PAVMaterial@@@std@@@std@@@std@@@1@AAU?$pair@$$CBV?$basic_string@DU?$char_traits@D@std@@V?$allocator@D@2@@std@@PAVMaterial@@@1@PAU?$_Tree_node@U?$pair@$$CBV?$basic_string@DU?$char_traits@D@std@@V?$allocator@D@2@@std@@PAVMaterial@@@std@@PAX@1@@Z 00492d18     read.obj
 0002:0000ed28       __tryblocktable$??$_Insert_hint@AAU?$pair@$$CBV?$basic_string@DU?$char_traits@D@std@@V?$allocator@D@2@@std@@PAVMaterial@@@std@@PAU?$_Tree_node@U?$pair@$$CBV?$basic_string@DU?$char_traits@D@std@@V?$allocator@D@2@@std@@PAVMaterial@@@std@@PAX@2@@?$_Tree@V?$_Tmap_traits@V?$basic_string@DU?$char_traits@D@std@@V?$allocator@D@2@@std@@PAVMaterial@@U?$less@V?$basic_string@DU?$char_traits@D@std@@V?$allocator@D@2@@std@@@2@V?$allocator@U?$pair@$$CBV?$basic_string@DU?$char_traits@D@std@@V?$allocator@D@2@@std@@PAVMaterial@@@std@@@2@$0A@@std@@@std@@IAE?AV?$_Tree_iterator@V?$_Tree_val@U?$_Tree_simple_types@U?$pair@$$CBV?$basic_string@DU?$char_traits@D@std@@V?$allocator@D@2@@std@@PAVMaterial@@@std@@@std@@@std@@@1@V?$_Tree_const_iterator@V?$_Tree_val@U?$_Tree_simple_types@U?$pair@$$CBV?$basic_string@DU?$char_traits@D@std@@V?$allocator@D@2@@std@@PAVMaterial@@@std@@@std@@@std@@@1@AAU?$pair@$$CBV?$basic_string@DU?$char_traits@D@std@@V?$allocator@D@2@@std@@PAVMaterial@@@1@PAU?$_Tree_node@U?$pair@$$CBV?$basic_string@DU?$char_traits@D@std@@V?$allocator@D@2@@std@@PAVMaterial@@@std@@PAX@1@@Z 00492d28     read.obj
 0002:0000ed3c       __ehfuncinfo$??$_Insert_hint@AAU?$pair@$$CBV?$basic_string@DU?$char_traits@D@std@@V?$allocator@D@2@@std@@PAVMaterial@@@std@@PAU?$_Tree_node@U?$pair@$$CBV?$basic_string@DU?$char_traits@D@std@@V?$allocator@D@2@@std@@PAVMaterial@@@std@@PAX@2@@?$_Tree@V?$_Tmap_traits@V?$basic_string@DU?$char_traits@D@std@@V?$allocator@D@2@@std@@PAVMaterial@@U?$less@V?$basic_string@DU?$char_traits@D@std@@V?$allocator@D@2@@std@@@2@V?$allocator@U?$pair@$$CBV?$basic_string@DU?$char_traits@D@std@@V?$allocator@D@2@@std@@PAVMaterial@@@std@@@2@$0A@@std@@@std@@IAE?AV?$_Tree_iterator@V?$_Tree_val@U?$_Tree_simple_types@U?$pair@$$CBV?$basic_string@DU?$char_traits@D@std@@V?$allocator@D@2@@std@@PAVMaterial@@@std@@@std@@@std@@@1@V?$_Tree_const_iterator@V?$_Tree_val@U?$_Tree_simple_types@U?$pair@$$CBV?$basic_string@DU?$char_traits@D@std@@V?$allocator@D@2@@std@@PAVMaterial@@@std@@@std@@@std@@@1@AAU?$pair@$$CBV?$basic_string@DU?$char_traits@D@std@@V?$allocator@D@2@@std@@PAVMaterial@@@1@PAU?$_Tree_node@U?$pair@$$CBV?$basic_string@DU?$char_traits@D@std@@V?$allocator@D@2@@std@@PAVMaterial@@@std@@PAX@1@@Z 00492d3c     read.obj
 0002:0000ed60       __catchsym$??$_Insert_nohint@AAU?$pair@$$CBV?$basic_string@DU?$char_traits@D@std@@V?$allocator@D@2@@std@@PAVMaterial@@@std@@PAU?$_Tree_node@U?$pair@$$CBV?$basic_string@DU?$char_traits@D@std@@V?$allocator@D@2@@std@@PAVMaterial@@@std@@PAX@2@@?$_Tree@V?$_Tmap_traits@V?$basic_string@DU?$char_traits@D@std@@V?$allocator@D@2@@std@@PAVMaterial@@U?$less@V?$basic_string@DU?$char_traits@D@std@@V?$allocator@D@2@@std@@@2@V?$allocator@U?$pair@$$CBV?$basic_string@DU?$char_traits@D@std@@V?$allocator@D@2@@std@@PAVMaterial@@@std@@@2@$0A@@std@@@std@@IAE?AU?$pair@V?$_Tree_iterator@V?$_Tree_val@U?$_Tree_simple_types@U?$pair@$$CBV?$basic_string@DU?$char_traits@D@std@@V?$allocator@D@2@@std@@PAVMaterial@@@std@@@std@@@std@@@std@@_N@1@_NAAU?$pair@$$CBV?$basic_string@DU?$char_traits@D@std@@V?$allocator@D@2@@std@@PAVMaterial@@@1@PAU?$_Tree_node@U?$pair@$$CBV?$basic_string@DU?$char_traits@D@std@@V?$allocator@D@2@@std@@PAVMaterial@@@std@@PAX@1@@Z$86 00492d60     read.obj
 0002:0000ed70       __unwindtable$??$_Insert_nohint@AAU?$pair@$$CBV?$basic_string@DU?$char_traits@D@std@@V?$allocator@D@2@@std@@PAVMaterial@@@std@@PAU?$_Tree_node@U?$pair@$$CBV?$basic_string@DU?$char_traits@D@std@@V?$allocator@D@2@@std@@PAVMaterial@@@std@@PAX@2@@?$_Tree@V?$_Tmap_traits@V?$basic_string@DU?$char_traits@D@std@@V?$allocator@D@2@@std@@PAVMaterial@@U?$less@V?$basic_string@DU?$char_traits@D@std@@V?$allocator@D@2@@std@@@2@V?$allocator@U?$pair@$$CBV?$basic_string@DU?$char_traits@D@std@@V?$allocator@D@2@@std@@PAVMaterial@@@std@@@2@$0A@@std@@@std@@IAE?AU?$pair@V?$_Tree_iterator@V?$_Tree_val@U?$_Tree_simple_types@U?$pair@$$CBV?$basic_string@DU?$char_traits@D@std@@V?$allocator@D@2@@std@@PAVMaterial@@@std@@@std@@@std@@@std@@_N@1@_NAAU?$pair@$$CBV?$basic_string@DU?$char_traits@D@std@@V?$allocator@D@2@@std@@PAVMaterial@@@1@PAU?$_Tree_node@U?$pair@$$CBV?$basic_string@DU?$char_traits@D@std@@V?$allocator@D@2@@std@@PAVMaterial@@@std@@PAX@1@@Z 00492d70     read.obj
 0002:0000ed80       __tryblocktable$??$_Insert_nohint@AAU?$pair@$$CBV?$basic_string@DU?$char_traits@D@std@@V?$allocator@D@2@@std@@PAVMaterial@@@std@@PAU?$_Tree_node@U?$pair@$$CBV?$basic_string@DU?$char_traits@D@std@@V?$allocator@D@2@@std@@PAVMaterial@@@std@@PAX@2@@?$_Tree@V?$_Tmap_traits@V?$basic_string@DU?$char_traits@D@std@@V?$allocator@D@2@@std@@PAVMaterial@@U?$less@V?$basic_string@DU?$char_traits@D@std@@V?$allocator@D@2@@std@@@2@V?$allocator@U?$pair@$$CBV?$basic_string@DU?$char_traits@D@std@@V?$allocator@D@2@@std@@PAVMaterial@@@std@@@2@$0A@@std@@@std@@IAE?AU?$pair@V?$_Tree_iterator@V?$_Tree_val@U?$_Tree_simple_types@U?$pair@$$CBV?$basic_string@DU?$char_traits@D@std@@V?$allocator@D@2@@std@@PAVMaterial@@@std@@@std@@@std@@@std@@_N@1@_NAAU?$pair@$$CBV?$basic_string@DU?$char_traits@D@std@@V?$allocator@D@2@@std@@PAVMaterial@@@1@PAU?$_Tree_node@U?$pair@$$CBV?$basic_string@DU?$char_traits@D@std@@V?$allocator@D@2@@std@@PAVMaterial@@@std@@PAX@1@@Z 00492d80     read.obj
 0002:0000ed94       __ehfuncinfo$??$_Insert_nohint@AAU?$pair@$$CBV?$basic_string@DU?$char_traits@D@std@@V?$allocator@D@2@@std@@PAVMaterial@@@std@@PAU?$_Tree_node@U?$pair@$$CBV?$basic_string@DU?$char_traits@D@std@@V?$allocator@D@2@@std@@PAVMaterial@@@std@@PAX@2@@?$_Tree@V?$_Tmap_traits@V?$basic_string@DU?$char_traits@D@std@@V?$allocator@D@2@@std@@PAVMaterial@@U?$less@V?$basic_string@DU?$char_traits@D@std@@V?$allocator@D@2@@std@@@2@V?$allocator@U?$pair@$$CBV?$basic_string@DU?$char_traits@D@std@@V?$allocator@D@2@@std@@PAVMaterial@@@std@@@2@$0A@@std@@@std@@IAE?AU?$pair@V?$_Tree_iterator@V?$_Tree_val@U?$_Tree_simple_types@U?$pair@$$CBV?$basic_string@DU?$char_traits@D@std@@V?$allocator@D@2@@std@@PAVMaterial@@@std@@@std@@@std@@@std@@_N@1@_NAAU?$pair@$$CBV?$basic_string@DU?$char_traits@D@std@@V?$allocator@D@2@@std@@PAVMaterial@@@1@PAU?$_Tree_node@U?$pair@$$CBV?$basic_string@DU?$char_traits@D@std@@V?$allocator@D@2@@std@@PAVMaterial@@@std@@PAX@1@@Z 00492d94     read.obj
 0002:0000ee24       __unwindtable$?shadowAttenuation@DirectionalLight@@UBE?AVvec3f@@ABV2@@Z 00492e24     light.obj
 0002:0000ee2c       __ehfuncinfo$?shadowAttenuation@DirectionalLight@@UBE?AVvec3f@@ABV2@@Z 00492e2c     light.obj
 0002:0000ee50       __unwindtable$?shadowAttenuation_@PointLight@@IBE?AVvec3f@@ABV2@0@Z 00492e50     light.obj
 0002:0000ee58       __ehfuncinfo$?shadowAttenuation_@PointLight@@IBE?AVvec3f@@ABV2@0@Z 00492e58     light.obj
 0002:0000ee7c       __unwindtable$?intersect@Scene@@QBE_NABVray@@AAVisect@@@Z 00492e7c     scene.obj
 0002:0000ee84       __ehfuncinfo$?intersect@Scene@@QBE_NABVray@@AAVisect@@@Z 00492e84     scene.obj
 0002:0000eea8       __unwindtable$?intersectLocal@Cone@@UBE_NABVray@@AAVisect@@@Z 00492ea8     Cone.obj
 0002:0000eeb0       __ehfuncinfo$?intersectLocal@Cone@@UBE_NABVray@@AAVisect@@@Z 00492eb0     Cone.obj
 0002:0000eed4       __unwindtable$?intersectLocal@Cylinder@@UBE_NABVray@@AAVisect@@@Z 00492ed4     Cylinder.obj
 0002:0000eedc       __ehfuncinfo$?intersectLocal@Cylinder@@UBE_NABVray@@AAVisect@@@Z 00492edc     Cylinder.obj
 0002:0000ef00       __unwindtable$?addFace@Trimesh@@QAE_NHHH@Z 00492f00     trimesh.obj
 0002:0000ef08       __ehfuncinfo$?addFace@Trimesh@@QAE_NHHH@Z 00492f08     trimesh.obj
 0002:0000ef2c       __catchsym$??$_Resize@V<lambda_c34ecdecde49bf1d2564cf10b5269ebb>@@@?$vector@Vvec3f@@V?$allocator@Vvec3f@@@std@@@std@@AAEXIV<lambda_c34ecdecde49bf1d2564cf10b5269ebb>@@@Z$68 00492f2c     trimesh.obj
 0002:0000ef3c       __unwindtable$??$_Resize@V<lambda_c34ecdecde49bf1d2564cf10b5269ebb>@@@?$vector@Vvec3f@@V?$allocator@Vvec3f@@@std@@@std@@AAEXIV<lambda_c34ecdecde49bf1d2564cf10b5269ebb>@@@Z 00492f3c     trimesh.obj
 0002:0000ef4c       __tryblocktable$??$_Resize@V<lambda_c34ecdecde49bf1d2564cf10b5269ebb>@@@?$vector@Vvec3f@@V?$allocator@Vvec3f@@@std@@@std@@AAEXIV<lambda_c34ecdecde49bf1d2564cf10b5269ebb>@@@Z 00492f4c     trimesh.obj
 0002:0000ef60       __ehfuncinfo$??$_Resize@V<lambda_c34ecdecde49bf1d2564cf10b5269ebb>@@@?$vector@Vvec3f@@V?$allocator@Vvec3f@@@std@@@std@@AAEXIV<lambda_c34ecdecde49bf1d2564cf10b5269ebb>@@@Z 00492f60     trimesh.obj
 0002:0000ef84       __catchsym$??$emplace_back@ABVvec3f@@@?$vector@Vvec3f@@V?$allocator@Vvec3f@@@std@@@std@@QAEXABVvec3f@@@Z$71 00492f84     trimesh.obj
 0002:0000ef94       __unwindtable$??$emplace_back@ABVvec3f@@@?$vector@Vvec3f@@V?$allocator@Vvec3f@@@std@@@std@@QAEXABVvec3f@@@Z 00492f94     trimesh.obj
 0002:0000efa4       __tryblocktable$??$emplace_back@ABVvec3f@@@?$vector@Vvec3f@@V?$allocator@Vvec3f@@@std@@@std@@QAEXABVvec3f@@@Z 00492fa4     trimesh.obj
 0002:0000efb8       __ehfuncinfo$??$emplace_back@ABVvec3f@@@?$vector@Vvec3f@@V?$allocator@Vvec3f@@@std@@@std@@QAEXABVvec3f@@@Z 00492fb8     trimesh.obj
 0002:0000efdc       __unwindtable$?copy@Fl@@SAXPBDHH0@Z 00492fdc     fltk:Fl.obj
 0002:0000efe4       __unwindtable$?option@Fl@@SA_NW4Fl_Option@1@@Z 00492fe4     fltk:Fl.obj
 0002:0000f004       __ehfuncinfo$??1Fl_Widget_Tracker@@QAE@XZ 00493004     fltk:Fl.obj
 0002:0000f028       __ehfuncinfo$?copy@Fl@@SAXPBDHH0@Z 00493028     fltk:Fl.obj
 0002:0000f04c       __ehfuncinfo$?option@Fl@@SA_NW4Fl_Option@1@@Z 0049304c     fltk:Fl.obj
 0002:0000f070       __ehfuncinfo$??1Fl_Win32_At_Exit@@QAE@XZ 00493070     fltk:Fl.obj
 0002:0000f094       __ehfuncinfo$?makeform@@YAPAVFl_Window@@XZ 00493094     fltk:fl_ask.obj
 0002:0000f0b8       __unwindtable$?makeform@@YAPAVFl_Window@@XZ 004930b8     fltk:fl_ask.obj
 0002:0000f0f0       __unwindtable$??0Fl_Window@@QAE@HHHHPBD@Z 004930f0     fltk:Fl_Window.obj
 0002:0000f0f8       __unwindtable$??0Fl_Window@@QAE@HHPBD@Z 004930f8     fltk:Fl_Window.obj
 0002:0000f100       __ehfuncinfo$??1Fl_Window@@UAE@XZ 00493100     fltk:Fl_Window.obj
 0002:0000f124       __ehfuncinfo$??0Fl_Window@@QAE@HHHHPBD@Z 00493124     fltk:Fl_Window.obj
 0002:0000f148       __ehfuncinfo$??0Fl_Window@@QAE@HHPBD@Z 00493148     fltk:Fl_Window.obj
 0002:0000f16c       __unwindtable$??0Fl_Group@@QAE@HHHHPBD@Z 0049316c     fltk:Fl_Group.obj
 0002:0000f174       __unwindtable$?handle@Fl_Group@@UAEHH@Z 00493174     fltk:Fl_Group.obj
 0002:0000f17c       __unwindtable$??0Fl_Input_Choice@@QAE@HHHHPBD@Z 0049317c     fltk:Fl_Group.obj
 0002:0000f194       __unwindtable$??0Fl_Spinner@@QAE@HHHHPBD@Z 00493194     fltk:Fl_Group.obj
 0002:0000f1b4       __ehfuncinfo$??0Fl_Spinner@@QAE@HHHHPBD@Z 004931b4     fltk:Fl_Group.obj
 0002:0000f1d8       __ehfuncinfo$??0Fl_Input_Choice@@QAE@HHHHPBD@Z 004931d8     fltk:Fl_Group.obj
 0002:0000f1fc       __ehfuncinfo$??1Fl_Group@@UAE@XZ 004931fc     fltk:Fl_Group.obj
 0002:0000f220       __ehfuncinfo$??0Fl_Group@@QAE@HHHHPBD@Z 00493220     fltk:Fl_Group.obj
 0002:0000f244       __ehfuncinfo$?handle@Fl_Group@@UAEHH@Z 00493244     fltk:Fl_Group.obj
 0002:0000f268       __unwindtable$?menu_cb@Fl_Input_Choice@@CAXPAVFl_Widget@@PAX@Z 00493268     fltk:Fl_Group.obj
 0002:0000f270       __ehfuncinfo$?menu_cb@Fl_Input_Choice@@CAXPAVFl_Widget@@PAX@Z 00493270     fltk:Fl_Group.obj
 0002:0000f294       __unwindtable$?inp_cb@Fl_Input_Choice@@CAXPAVFl_Widget@@PAX@Z 00493294     fltk:Fl_Group.obj
 0002:0000f29c       __ehfuncinfo$?inp_cb@Fl_Input_Choice@@CAXPAVFl_Widget@@PAX@Z 0049329c     fltk:Fl_Group.obj
 0002:0000f2c0       __ehfuncinfo$??1Fl_Menu_@@UAE@XZ 004932c0     fltk:Fl_Menu_.obj
 0002:0000f2e4       __unwindtable$?simulate_key_action@Fl_Button@@IAEXXZ 004932e4     fltk:Fl_Button.obj
 0002:0000f2ec       __unwindtable$?handle@Fl_Button@@UAEHH@Z 004932ec     fltk:Fl_Button.obj
 0002:0000f2fc       __ehfuncinfo$?handle@Fl_Button@@UAEHH@Z 004932fc     fltk:Fl_Button.obj
 0002:0000f320       __ehfuncinfo$?simulate_key_action@Fl_Button@@IAEXXZ 00493320     fltk:Fl_Button.obj
 0002:0000f344       __unwindtable$?fl_file_chooser@@YAPADPBD00H@Z 00493344     fltk:fl_file_dir.obj
 0002:0000f34c       __unwindtable$?fl_dir_chooser@@YAPADPBD0H@Z 0049334c     fltk:fl_file_dir.obj
 0002:0000f354       __ehfuncinfo$?fl_file_chooser@@YAPADPBD00H@Z 00493354     fltk:fl_file_dir.obj
 0002:0000f378       __ehfuncinfo$?fl_dir_chooser@@YAPADPBD0H@Z 00493378     fltk:fl_file_dir.obj
 0002:0000f39c       __unwindtable$?do_callback@Fl_Widget@@QAEXPAV1@PAX@Z 0049339c     fltk:Fl_Widget.obj
 0002:0000f3a4       __ehfuncinfo$?do_callback@Fl_Widget@@QAEXPAV1@PAX@Z 004933a4     fltk:Fl_Widget.obj
 0002:0000f3c8       __ehfuncinfo$??1Fl_Widget@@UAE@XZ 004933c8     fltk:Fl_Widget.obj
 0002:0000f3ec       __unwindtable$??0Fl_RGB_Image@@QAE@PBVFl_Pixmap@@I@Z 004933ec     fltk:Fl_Image.obj
 0002:0000f3f4       __ehfuncinfo$??1Fl_RGB_Image@@UAE@XZ 004933f4     fltk:Fl_Image.obj
 0002:0000f418       __ehfuncinfo$??0Fl_RGB_Image@@QAE@PBVFl_Pixmap@@I@Z 00493418     fltk:Fl_Image.obj
 0002:0000f43c       __unwindtable$??0Fl_TooltipBox@@QAE@XZ 0049343c     fltk:Fl_Tooltip.obj
 0002:0000f444       __ehfuncinfo$??0Fl_TooltipBox@@QAE@XZ 00493444     fltk:Fl_Tooltip.obj
 0002:0000f468       __unwindtable$?tooltip_timeout@@YAXPAX@Z 00493468     fltk:Fl_Tooltip.obj
 0002:0000f470       __ehfuncinfo$?tooltip_timeout@@YAXPAX@Z 00493470     fltk:Fl_Tooltip.obj
 0002:0000f494       __ehfuncinfo$??1Fl_Double_Window@@UAE@XZ 00493494     fltk:Fl_Double_Window.obj
 0002:0000f4b8       __unwindtable$?loadAll@Fl_Plugin_Manager@@SAHPBD0@Z 004934b8     fltk:Fl_Preferences.obj
 0002:0000f4c0       __unwindtable$?addPlugin@Fl_Plugin_Manager@@QAEPAXPBDPAVFl_Plugin@@@Z 004934c0     fltk:Fl_Preferences.obj
 0002:0000f4c8       __unwindtable$?plugin@Fl_Plugin_Manager@@QAEPAVFl_Plugin@@PBD@Z 004934c8     fltk:Fl_Preferences.obj
 0002:0000f4d0       __unwindtable$?plugin@Fl_Plugin_Manager@@QAEPAVFl_Plugin@@H@Z 004934d0     fltk:Fl_Preferences.obj
 0002:0000f4d8       __unwindtable$??0Fl_Plugin_Manager@@QAE@PBD@Z 004934d8     fltk:Fl_Preferences.obj
 0002:0000f4e0       __unwindtable$??0Fl_Plugin@@QAE@PBD0@Z 004934e0     fltk:Fl_Preferences.obj
 0002:0000f4e8       __unwindtable$?find@Node@Fl_Preferences@@QAEPAV12@PBD@Z 004934e8     fltk:Fl_Preferences.obj
 0002:0000f4f0       __unwindtable$??0Fl_Preferences@@QAE@PAV0@PBD@Z 004934f0     fltk:Fl_Preferences.obj
 0002:0000f500       __unwindtable$??0Fl_Preferences@@QAE@PBD00@Z 00493500     fltk:Fl_Preferences.obj
 0002:0000f510       __unwindtable$??0Fl_Preferences@@QAE@W4Root@0@PBD1@Z 00493510     fltk:Fl_Preferences.obj
 0002:0000f520       __ehfuncinfo$?loadAll@Fl_Plugin_Manager@@SAHPBD0@Z 00493520     fltk:Fl_Preferences.obj
 0002:0000f544       __ehfuncinfo$?addPlugin@Fl_Plugin_Manager@@QAEPAXPBDPAVFl_Plugin@@@Z 00493544     fltk:Fl_Preferences.obj
 0002:0000f568       __ehfuncinfo$?plugin@Fl_Plugin_Manager@@QAEPAVFl_Plugin@@PBD@Z 00493568     fltk:Fl_Preferences.obj
 0002:0000f58c       __ehfuncinfo$?plugin@Fl_Plugin_Manager@@QAEPAVFl_Plugin@@H@Z 0049358c     fltk:Fl_Preferences.obj
 0002:0000f5b0       __ehfuncinfo$??0Fl_Plugin_Manager@@QAE@PBD@Z 004935b0     fltk:Fl_Preferences.obj
 0002:0000f5d4       __ehfuncinfo$??1Fl_Plugin@@UAE@XZ 004935d4     fltk:Fl_Preferences.obj
 0002:0000f5f8       __ehfuncinfo$??0Fl_Plugin@@QAE@PBD0@Z 004935f8     fltk:Fl_Preferences.obj
 0002:0000f61c       __ehfuncinfo$??1RootNode@Fl_Preferences@@QAE@XZ 0049361c     fltk:Fl_Preferences.obj
 0002:0000f640       __ehfuncinfo$?find@Node@Fl_Preferences@@QAEPAV12@PBD@Z 00493640     fltk:Fl_Preferences.obj
 0002:0000f664       __ehfuncinfo$??1Node@Fl_Preferences@@QAE@XZ 00493664     fltk:Fl_Preferences.obj
 0002:0000f688       __ehfuncinfo$??0Fl_Preferences@@QAE@PAV0@PBD@Z 00493688     fltk:Fl_Preferences.obj
 0002:0000f6ac       __ehfuncinfo$??0Fl_Preferences@@QAE@PBD00@Z 004936ac     fltk:Fl_Preferences.obj
 0002:0000f6d0       __ehfuncinfo$??0Fl_Preferences@@QAE@W4Root@0@PBD1@Z 004936d0     fltk:Fl_Preferences.obj
 0002:0000f6f4       __unwindtable$??0Fl_Display_Device@@QAE@PAVFl_Graphics_Driver@@@Z 004936f4     fltk:Fl_Device.obj
 0002:0000f6fc       __ehfuncinfo$??0Fl_Display_Device@@QAE@PAVFl_Graphics_Driver@@@Z 004936fc     fltk:Fl_Device.obj
 0002:0000f720       __unwindtable$?find@@YAPAVFl_Font_Descriptor@@HHH@Z 00493720     fltk:fl_font.obj
 0002:0000f728       __ehfuncinfo$?find@@YAPAVFl_Font_Descriptor@@HHH@Z 00493728     fltk:fl_font.obj
 0002:0000f74c       __unwindtable$??0Fl_Pixmap@@QAE@PBQAD@Z 0049374c     fltk:Fl_Pixmap.obj
 0002:0000f754       __ehfuncinfo$??0Fl_Pixmap@@QAE@PBQAD@Z 00493754     fltk:Fl_Pixmap.obj
 0002:0000f778       __unwindtable$??0Fl_Pixmap@@QAE@PBQBD@Z 00493778     fltk:Fl_Pixmap.obj
 0002:0000f780       __ehfuncinfo$??0Fl_Pixmap@@QAE@PBQBD@Z 00493780     fltk:Fl_Pixmap.obj
 0002:0000f7a4       __unwindtable$?copy@Fl_Pixmap@@UAEPAVFl_Image@@HH@Z 004937a4     fltk:Fl_Pixmap.obj
 0002:0000f7b4       __ehfuncinfo$?copy@Fl_Pixmap@@UAEPAVFl_Image@@HH@Z 004937b4     fltk:Fl_Pixmap.obj
 0002:0000f7d8       __ehfuncinfo$??1Fl_Pixmap@@UAE@XZ 004937d8     fltk:Fl_Pixmap.obj
 0002:0000f7fc       __ehfuncinfo$??1Fl_Bitmap@@UAE@XZ 004937fc     fltk:Fl_Bitmap.obj
 0002:0000f820       __unwindtable$?reload_scheme@Fl@@SAHXZ 00493820     fltk:Fl_get_system_colors.obj
 0002:0000f828       __ehfuncinfo$?reload_scheme@Fl@@SAHXZ 00493828     fltk:Fl_get_system_colors.obj
 0002:0000f84c       __unwindtable$?shape_pixmap_@Fl_Window@@AAEXPAVFl_Pixmap@@@Z 0049384c     fltk:Fl_Window_shape.obj
 0002:0000f854       __ehfuncinfo$?shape_pixmap_@Fl_Window@@AAEXPAVFl_Pixmap@@@Z 00493854     fltk:Fl_Window_shape.obj
 0002:0000f878       __unwindtable$?popup@Fl_Menu_Button@@QAEPBUFl_Menu_Item@@XZ 00493878     fltk:Fl_Menu_Button.obj
 0002:0000f880       __ehfuncinfo$?popup@Fl_Menu_Button@@QAEPBUFl_Menu_Item@@XZ 00493880     fltk:Fl_Menu_Button.obj
 0002:0000f8a4       __unwindtable$??0menutitle@@QAE@HHHHPBUFl_Menu_Item@@@Z 004938a4     fltk:Fl_Menu.obj
 0002:0000f8ac       __unwindtable$??0menuwindow@@QAE@PBUFl_Menu_Item@@HHHH00HHH@Z 004938ac     fltk:Fl_Menu.obj
 0002:0000f8c4       __unwindtable$?pulldown@Fl_Menu_Item@@QBEPBU1@HHHHPBU1@PBVFl_Menu_@@0H@Z 004938c4     fltk:Fl_Menu.obj
 0002:0000f8e4       __ehfuncinfo$??1menuwindow@@UAE@XZ 004938e4     fltk:Fl_Menu.obj
 0002:0000f908       __ehfuncinfo$??0menuwindow@@QAE@PBUFl_Menu_Item@@HHHH00HHH@Z 00493908     fltk:Fl_Menu.obj
 0002:0000f92c       __ehfuncinfo$??0menutitle@@QAE@HHHHPBUFl_Menu_Item@@@Z 0049392c     fltk:Fl_Menu.obj
 0002:0000f950       __ehfuncinfo$?pulldown@Fl_Menu_Item@@QBEPBU1@HHHHPBU1@PBVFl_Menu_@@0H@Z 00493950     fltk:Fl_Menu.obj
 0002:0000f974       __unwindtable$??0Fl_Slider@@QAE@EHHHHPBD@Z 00493974     fltk:Fl_Slider.obj
 0002:0000f97c       __unwindtable$??0Fl_Slider@@QAE@HHHHPBD@Z 0049397c     fltk:Fl_Slider.obj
 0002:0000f984       __unwindtable$?handle@Fl_Slider@@IAEHHHHHH@Z 00493984     fltk:Fl_Slider.obj
 0002:0000f994       __ehfuncinfo$??0Fl_Slider@@QAE@EHHHHPBD@Z 00493994     fltk:Fl_Slider.obj
 0002:0000f9b8       __ehfuncinfo$??0Fl_Slider@@QAE@HHHHPBD@Z 004939b8     fltk:Fl_Slider.obj
 0002:0000f9dc       __ehfuncinfo$?handle@Fl_Slider@@IAEHHHHHH@Z 004939dc     fltk:Fl_Slider.obj
 0002:0000fa00       __ehfuncinfo$??1Fl_File_Chooser@@QAE@XZ 00493a00     fltk:Fl_File_Chooser.obj
 0002:0000fa24       __ehfuncinfo$??0Fl_File_Chooser@@QAE@PBD0H0@Z 00493a24     fltk:Fl_File_Chooser.obj
 0002:0000fa48       __unwindtable$??0Fl_File_Chooser@@QAE@PBD0H0@Z 00493a48     fltk:Fl_File_Chooser.obj
 0002:0000fb30       __ehfuncinfo$??1Fl_Menu_Window@@UAE@XZ 00493b30     fltk:Fl_Menu_Window.obj
 0002:0000fb54       __ehfuncinfo$??1Fl_Overlay_Window@@UAE@XZ 00493b54     fltk:Fl_Overlay_Window.obj
 0002:0000fb78       __unwindtable$?copy@Fl_Tiled_Image@@UAEPAVFl_Image@@HH@Z 00493b78     fltk:Fl_Tiled_Image.obj
 0002:0000fb80       __ehfuncinfo$?copy@Fl_Tiled_Image@@UAEPAVFl_Image@@HH@Z 00493b80     fltk:Fl_Tiled_Image.obj
 0002:0000fba4       __unwindtable$?fallback_cursor@@YAXPAVFl_Window@@W4Fl_Cursor@@@Z 00493ba4     fltk:fl_cursor.obj
 0002:0000fbb4       __ehfuncinfo$?fallback_cursor@@YAXPAVFl_Window@@W4Fl_Cursor@@@Z 00493bb4     fltk:fl_cursor.obj
 0002:0000fbd8       __unwindtable$?select_only@Fl_Browser_@@QAEHPAXH@Z 00493bd8     fltk:Fl_Browser_.obj
 0002:0000fbe0       __unwindtable$?handle@Fl_Browser_@@UAEHH@Z 00493be0     fltk:Fl_Browser_.obj
 0002:0000fbe8       __unwindtable$??0Fl_Browser_@@IAE@HHHHPBD@Z 00493be8     fltk:Fl_Browser_.obj
 0002:0000fc00       __ehfuncinfo$?select_only@Fl_Browser_@@QAEHPAXH@Z 00493c00     fltk:Fl_Browser_.obj
 0002:0000fc24       __ehfuncinfo$?handle@Fl_Browser_@@UAEHH@Z 00493c24     fltk:Fl_Browser_.obj
 0002:0000fc48       __ehfuncinfo$??0Fl_Browser_@@IAE@HHHHPBD@Z 00493c48     fltk:Fl_Browser_.obj
 0002:0000fc6c       __ehfuncinfo$??1Fl_Browser@@UAE@XZ 00493c6c     fltk:Fl_File_Browser.obj
 0002:0000fc90       __unwindtable$?handle@Fl_File_Input@@UAEHH@Z 00493c90     fltk:Fl_File_Input.obj
 0002:0000fc98       __ehfuncinfo$?handle@Fl_File_Input@@UAEHH@Z 00493c98     fltk:Fl_File_Input.obj
 0002:0000fcbc       __unwindtable$?get@Fl_Shared_Image@@SAPAV1@PBDHH@Z 00493cbc     fltk:Fl_Shared_Image.obj
 0002:0000fcc4       __unwindtable$?find@Fl_Shared_Image@@SAPAV1@PBDHH@Z 00493cc4     fltk:Fl_Shared_Image.obj
 0002:0000fccc       __unwindtable$?copy@Fl_Shared_Image@@UAEPAVFl_Image@@HH@Z 00493ccc     fltk:Fl_Shared_Image.obj
 0002:0000fcd4       __unwindtable$??0Fl_Shared_Image@@IAE@PBDPAVFl_Image@@@Z 00493cd4     fltk:Fl_Shared_Image.obj
 0002:0000fcdc       __unwindtable$?reload@Fl_Shared_Image@@QAEXXZ 00493cdc     fltk:Fl_Shared_Image.obj
 0002:0000fcec       __ehfuncinfo$?get@Fl_Shared_Image@@SAPAV1@PBDHH@Z 00493cec     fltk:Fl_Shared_Image.obj
 0002:0000fd10       __ehfuncinfo$?find@Fl_Shared_Image@@SAPAV1@PBDHH@Z 00493d10     fltk:Fl_Shared_Image.obj
 0002:0000fd34       __ehfuncinfo$?copy@Fl_Shared_Image@@UAEPAVFl_Image@@HH@Z 00493d34     fltk:Fl_Shared_Image.obj
 0002:0000fd58       __ehfuncinfo$?reload@Fl_Shared_Image@@QAEXXZ 00493d58     fltk:Fl_Shared_Image.obj
 0002:0000fd7c       __ehfuncinfo$??0Fl_Shared_Image@@IAE@PBDPAVFl_Image@@@Z 00493d7c     fltk:Fl_Shared_Image.obj
 0002:0000fda0       __ehfuncinfo$??1Fl_Scrollbar@@UAE@XZ 00493da0     fltk:Fl_Scrollbar.obj
 0002:0000fdc4       __unwindtable$??0Fl_XBM_Image@@QAE@PBD@Z 00493dc4     fltk:Fl_XBM_Image.obj
 0002:0000fdcc       __ehfuncinfo$??0Fl_XBM_Image@@QAE@PBD@Z 00493dcc     fltk:Fl_XBM_Image.obj
 0002:0000fdf0       __unwindtable$??0Fl_XPM_Image@@QAE@PBD@Z 00493df0     fltk:Fl_XPM_Image.obj
 0002:0000fdf8       __ehfuncinfo$??0Fl_XPM_Image@@QAE@PBD@Z 00493df8     fltk:Fl_XPM_Image.obj
 0002:0000fe1c       __ehfuncinfo$??1Fl_Gl_Window@@UAE@XZ 00493e1c     fltkgl:Fl_Gl_Window.obj
 0002:0000fe40       __sehtable$___scrt_is_nonwritable_in_current_image 00493e40     MSVCRT:utility.obj
 0002:0000fe60       __sehtable$?__scrt_common_main_seh@@YAHXZ 00493e60     MSVCRT:exe_winmain.obj
 0002:0000fef0       __ehfuncinfo$??1_Fac_node@std@@QAE@XZ 00493ef0     msvcprt:locale0_implib.obj
 0002:00010a70       .idata$6                   00494a70     opengl32:OPENGL32.dll
 0002:00010c06       .idata$6                   00494c06     kernel32:KERNEL32.dll
 0002:000110ec       .idata$6                   004950ec     user32:USER32.dll
 0002:00011446       .idata$6                   00495446     gdi32:GDI32.dll
 0002:00011480       .idata$6                   00495480     advapi32:ADVAPI32.dll
 0002:000114a0       .idata$6                   004954a0     shell32:SHELL32.dll
 0002:00011504       .idata$6                   00495504     ole32:ole32.dll
 0002:0001289e       .idata$6                   0049689e     msvcprt:MSVCP140.dll
 0002:000128c0       .idata$6                   004968c0     comctl32:COMCTL32.dll
 0002:000129f0       .idata$6                   004969f0     vcruntime:VCRUNTIME140.dll
 0002:00013088       .idata$6                   00497088     ucrt:api-ms-win-crt-string-l1-1-0.dll
 0002:000130aa       .idata$6                   004970aa     ucrt:api-ms-win-crt-stdio-l1-1-0.dll
 0002:000130ca       .idata$6                   004970ca     ucrt:api-ms-win-crt-runtime-l1-1-0.dll
 0002:000130ec       .idata$6                   004970ec     ucrt:api-ms-win-crt-convert-l1-1-0.dll
 0002:0001310e       .idata$6                   0049710e     ucrt:api-ms-win-crt-time-l1-1-0.dll
 0002:0001312e       .idata$6                   0049712e     ucrt:api-ms-win-crt-utility-l1-1-0.dll
 0002:00013150       .idata$6                   00497150     ucrt:api-ms-win-crt-math-l1-1-0.dll
 0002:00013170       .idata$6                   00497170     ucrt:api-ms-win-crt-heap-l1-1-0.dll
 0002:00013190       .idata$6                   00497190     ucrt:api-ms-win-crt-filesystem-l1-1-0.dll
 0002:000131b6       .idata$6                   004971b6     ucrt:api-ms-win-crt-environment-l1-1-0.dll
 0002:000131dc       .idata$6                   004971dc     ucrt:api-ms-win-crt-process-l1-1-0.dll
 0002:000131fe       .idata$6                   004971fe     ucrt:api-ms-win-crt-locale-l1-1-0.dll
 0003:00000000       ?iArg@?1??GetOption@@YAHHPAPADPAD0@Z@4HA 00498000     getopt.obj
 0003:0000014c       ?initial_clipboard@@3_NA   0049814c     fltk:Fl.obj
 0003:0000014d       ?im_enabled@@3DA           0049814d     fltk:Fl.obj
 0003:00000170       ?iconlabel@@3PBDB          00498170     fltk:fl_ask.obj
 0003:00000174       ?enableHotspot@@3HA        00498174     fltk:fl_ask.obj
 0003:00000198       _cp1252                    00498198     fltk:fl_utf.obj
 0003:000001d8       ?ret@?1??fl_utf8locale@@9@9 004981d8     fltk:fl_utf.obj
 0003:000001dc       ?num_screens@@3HA          004981dc     fltk:screen_xywh.obj
 0003:000001e0       ?table@@3PAP6AXPBUFl_Label@@HHHHI@ZA 004981e0     fltk:fl_labeltype.obj
 0003:00000238       ?fl_cmap@@3PAIA            00498238     fltk:fl_color.obj
 0003:00000638       ?blendfunc@@3UFL_BLENDFUNCTION@@A 00498638     fltk:Fl_Double_Window.obj
 0003:00000640       ?lu@?3??set@Fl_Preferences@@QAEDPBDPBXH@Z@4PADA 00498640     fltk:Fl_Preferences.obj
 0003:0000066c       ?Cap@?1??line_style@Fl_Graphics_Driver@@MAEXHHPAD@Z@4PAKA 0049866c     fltk:fl_line_style.obj
 0003:0000067c       ?Join@?1??line_style@Fl_Graphics_Driver@@MAEXHHPAD@Z@4PAKA 0049867c     fltk:fl_line_style.obj
 0003:00000690       ?built_in_table@@3PAUFl_Fontdesc@@A 00498690     fltk:fl_font.obj
 0003:00000f14       ?reverse@?1??fl_create_bitmap@@YAPAUHBITMAP__@@HHPBE@Z@4PAEA 00498f14     fltk:Fl_Bitmap.obj
 0003:00000f24       ?hiNibble@?1??fl_create_bitmask@@YAPAUHBITMAP__@@HHPBE@Z@4PAEA 00498f24     fltk:Fl_Bitmap.obj
 0003:00000f34       ?loNibble@?1??fl_create_bitmask@@YAPAUHBITMAP__@@HHPBE@Z@4PAEA 00498f34     fltk:Fl_Bitmap.obj
 0003:00000f48       ?dither@?1??fl_create_alphamask@@YAPAUHBITMAP__@@HHHHPBE@Z@4PAY0BA@EA 00498f48     fltk:Fl_Bitmap.obj
 0003:00001048       ?tile_cmap@@3PAY0CA@DA     00499048     fltk:Fl_get_system_colors.obj
 0003:000010a8       ?levels@?4??reload_scheme@Fl@@SAHXZ@4PAEA 004990a8     fltk:Fl_get_system_colors.obj
 0003:000010cc       $SG5889                    004990cc     fltk:vsnprintf.obj
 0003:000010d4       $SG5892                    004990d4     fltk:vsnprintf.obj
 0003:000010d8       $SG5899                    004990d8     fltk:vsnprintf.obj
 0003:000010dc       $SG5933                    004990dc     fltk:vsnprintf.obj
 0003:000010e8       ?table@@3PAUKeyname@@A     004990e8     fltk:fl_shortcut.obj
 0003:000011e0       ?standard_fp_chars@@3PBDB  004991e0     fltk:Fl_Input.obj
 0003:000011e4       ?drag_start@?1??handle@Fl_Input@@UAEHH@Z@4HA 004991e4     fltk:Fl_Input.obj
 0003:000011e8       ?l_local_buff@?1??expand_text_@@YAPBDPBDAAPADHNAAHAANHH@Z@4HA 004991e8     fltk:fl_draw.obj
 0003:000011f0       ?draw_it_active@@3HA       004991f0     fltk:fl_boxtype.obj
 0003:000011f8       ?fl_box_table@@3PAU<unnamed-type-fl_box_table>@@A 004991f8     fltk:fl_boxtype.obj
 0003:00001e34       ?symbnumb@@3HA             00499e34     fltk:fl_symbols.obj
 0003:00001e38       ?cursors@@3PAW4Fl_Cursor@@A 00499e38     fltk:Fl_Tile.obj
 0003:00001e48       $SG37744                   00499e48     fltk:scandir.obj
 0003:00001e4c       $SG37747                   00499e4c     fltk:scandir.obj
 0003:00001e50       $SG37752                   00499e50     fltk:scandir.obj
 0003:00001e54       $SG37756                   00499e54     fltk:scandir.obj
 0003:00002048       ??_R0?AV<lambda_0456396a71e3abd88ede77bdd2823d8e>@@@8 0049a048     TraceUI.obj
 0003:00002080       ??_R0?AV<lambda_cab26a778e4185933e9c5b0cfaedfe5e>@@@8 0049a080     TraceUI.obj
 0003:000020b8       ??_R0?AV<lambda_7c33b2c4310ad8c6be497d7a2a561bb8>@@@8 0049a0b8     TraceUI.obj
 0003:000020f0       ??_R0?AV<lambda_5e5ab22ea98f4361dbf159481d01f54d>@@@8 0049a0f0     TraceUI.obj
 0003:000021d8       ??_R0?AV<lambda_483208dc91e150c0c9b495b53fd62158>@@@8 0049a1d8     TraceUI.obj
 0003:00002210       ??_R0?AV<lambda_042c6af70ca74ab46830ae50c8c14c9e>@@@8 0049a210     TraceUI.obj
 0003:00002248       ??_R0?AV<lambda_0ebde0502725cf61f7686a2917d1749f>@@@8 0049a248     TraceUI.obj
 0003:00002280       ??_R0?AV<lambda_855a1ef4dbee54ab7f2f1e055b9bdfad>@@@8 0049a280     TraceUI.obj
 0003:00002498       ??_R0?AV?$_CancellationTokenCallback@V<lambda_3b8ab8d2629adf61a42ee3fe177a046b>@@@details@Concurrency@@@8 0049a498     TraceUI.obj
 0003:00002700       ??_R0?AV?$_Func_impl@V<lambda_5e5ab22ea98f4361dbf159481d01f54d>@@V?$allocator@H@std@@X$$V@std@@@8 0049a700     TraceUI.obj
 0003:00002768       ??_R0?AV?$_Func_impl@V<lambda_7c33b2c4310ad8c6be497d7a2a561bb8>@@V?$allocator@H@std@@X$$V@std@@@8 0049a768     TraceUI.obj
 0003:000027d0       ??_R0?AV?$_Func_impl@V<lambda_cab26a778e4185933e9c5b0cfaedfe5e>@@V?$allocator@H@std@@E$$V@std@@@8 0049a7d0     TraceUI.obj
 0003:00002838       ??_R0?AV?$_Func_impl@V<lambda_0456396a71e3abd88ede77bdd2823d8e>@@V?$allocator@H@std@@X$$V@std@@@8 0049a838     TraceUI.obj
 0003:00002920       ??_R0?AU?$_InitialTaskHandle@XV<lambda_855a1ef4dbee54ab7f2f1e055b9bdfad>@@U_TypeSelectorNoAsync@details@Concurrency@@@?$task@E@Concurrency@@@8 0049a920     TraceUI.obj
 0003:000029b8       ??_R0?AU?$_PPLTaskHandle@EU?$_InitialTaskHandle@XV<lambda_855a1ef4dbee54ab7f2f1e055b9bdfad>@@U_TypeSelectorNoAsync@details@Concurrency@@@?$task@E@Concurrency@@U_TaskProcHandle@details@3@@details@Concurrency@@@8 0049a9b8     TraceUI.obj
 0003:00002a90       ??_R0?AU?$_InitialTaskHandle@XV<lambda_0ebde0502725cf61f7686a2917d1749f>@@U_TypeSelectorNoAsync@details@Concurrency@@@?$task@E@Concurrency@@@8 0049aa90     TraceUI.obj
 0003:00002b28       ??_R0?AU?$_PPLTaskHandle@EU?$_InitialTaskHandle@XV<lambda_0ebde0502725cf61f7686a2917d1749f>@@U_TypeSelectorNoAsync@details@Concurrency@@@?$task@E@Concurrency@@U_TaskProcHandle@details@3@@details@Concurrency@@@8 0049ab28     TraceUI.obj
 0003:00002c80       ??_R0?AU?$_InitialTaskHandle@XV<lambda_042c6af70ca74ab46830ae50c8c14c9e>@@U_TypeSelectorNoAsync@details@Concurrency@@@?$task@E@Concurrency@@@8 0049ac80     TraceUI.obj
 0003:00002d18       ??_R0?AU?$_PPLTaskHandle@EU?$_InitialTaskHandle@XV<lambda_042c6af70ca74ab46830ae50c8c14c9e>@@U_TypeSelectorNoAsync@details@Concurrency@@@?$task@E@Concurrency@@U_TaskProcHandle@details@3@@details@Concurrency@@@8 0049ad18     TraceUI.obj
 0003:00002df0       ??_R0?AU?$_InitialTaskHandle@XV<lambda_483208dc91e150c0c9b495b53fd62158>@@U_TypeSelectorNoAsync@details@Concurrency@@@?$task@E@Concurrency@@@8 0049adf0     TraceUI.obj
 0003:00002e88       ??_R0?AU?$_PPLTaskHandle@EU?$_InitialTaskHandle@XV<lambda_483208dc91e150c0c9b495b53fd62158>@@U_TypeSelectorNoAsync@details@Concurrency@@@?$task@E@Concurrency@@U_TaskProcHandle@details@3@@details@Concurrency@@@8 0049ae88     TraceUI.obj
 0003:00002f60       ??_R0?AV?$_Func_impl@V<lambda_855a1ef4dbee54ab7f2f1e055b9bdfad>@@V?$allocator@H@std@@X$$V@std@@@8 0049af60     TraceUI.obj
 0003:00002fc8       ??_R0?AV?$_Func_impl@V<lambda_0ebde0502725cf61f7686a2917d1749f>@@V?$allocator@H@std@@X$$V@std@@@8 0049afc8     TraceUI.obj
 0003:00003030       ??_R0?AV?$_Func_impl@V<lambda_042c6af70ca74ab46830ae50c8c14c9e>@@V?$allocator@H@std@@X$$V@std@@@8 0049b030     TraceUI.obj
 0003:00003098       ??_R0?AV?$_Func_impl@V<lambda_483208dc91e150c0c9b495b53fd62158>@@V?$allocator@H@std@@X$$V@std@@@8 0049b098     TraceUI.obj
 0003:00003ed4       ?done@@3_NA                0049bed4     TraceUI.obj
 0003:00003f38       ?clip_notify_list@@3PAUClipboard_Notify@@A 0049bf38     fltk:Fl.obj
 0003:00003f44       ?clipboard_wnd@@3PAUHWND__@@A 0049bf44     fltk:Fl.obj
 0003:00003f48       ?next_clipboard_wnd@@3PAUHWND__@@A 0049bf48     fltk:Fl.obj
 0003:00003f4c       ?handlers@@3PAUhandler_link@@A 0049bf4c     fltk:Fl.obj
 0003:00003f50       ?s_wsock_mod@@3PAUHINSTANCE__@@A 0049bf50     fltk:Fl.obj
 0003:00003f54       ?s_wsock_select@@3P6GHHPAUfd_set@@00PBUtimeval@@@ZA 0049bf54     fltk:Fl.obj
 0003:00003f58       ?fl_wsk_fd_is_set@@3P6GHIPAUfd_set@@@ZA 0049bf58     fltk:Fl.obj
 0003:00003f84       ?s_imm_module@@3PAUHINSTANCE__@@A 0049bf84     fltk:Fl.obj
 0003:00003f88       ?flImmAssociateContextEx@@3P6GHPAUHWND__@@PAUHIMC__@@K@ZA 0049bf88     fltk:Fl.obj
 0003:00003f8d       ?dnd_flag@@3DA             0049bf8d     fltk:Fl.obj
 0003:00003f90       ?flImmGetContext@@3P6GPAUHIMC__@@PAUHWND__@@@ZA 0049bf90     fltk:Fl.obj
 0003:00003f98       ?flImmSetCompositionWindow@@3P6GHPAUHIMC__@@PAUtagCOMPOSITIONFORM@@@ZA 0049bf98     fltk:Fl.obj
 0003:00003f9c       ?flImmReleaseContext@@3P6GHPAUHWND__@@PAUHIMC__@@@ZA 0049bf9c     fltk:Fl.obj
 0003:00003fa0       ?sys_handlers@@3PAUsystem_handler_link@@A 0049bfa0     fltk:Fl.obj
 0003:00003fa4       ?track_mouse_win@@3PAVFl_Window@@A 0049bfa4     fltk:Fl.obj
 0003:00003fa8       ?maxfd@@3HA                0049bfa8     fltk:Fl.obj
 0003:00003fac       ?nfds@@3HA                 0049bfac     fltk:Fl.obj
 0003:00003fb0       ?fd_array_size@@3HA        0049bfb0     fltk:Fl.obj
 0003:00003fdc       ?fd@@3PAUFD@@A             0049bfdc     fltk:Fl.obj
 0003:0000403c       ?default_big_icon@@3PAUHICON__@@A 0049c03c     fltk:Fl.obj
 0003:00004040       ?default_small_icon@@3PAUHICON__@@A 0049c040     fltk:Fl.obj
 0003:00004044       ?win_DC_list@@3PAUWin_DC_List@@A 0049c044     fltk:Fl.obj
 0003:00004050       ?num_dwidgets@@3HA         0049c050     fltk:Fl.obj
 0003:00004054       ?alloc_dwidgets@@3HA       0049c054     fltk:Fl.obj
 0003:00004058       ?dwidgets@@3PAPAVFl_Widget@@A 0049c058     fltk:Fl.obj
 0003:0000405c       ?widget_watch@@3PAPAPAVFl_Widget@@A 0049c05c     fltk:Fl.obj
 0003:00004060       ?num_widget_watch@@3HA     0049c060     fltk:Fl.obj
 0003:00004064       ?max_widget_watch@@3HA     0049c064     fltk:Fl.obj
 0003:00004070       ?win32_at_exit@@3VFl_Win32_At_Exit@@A 0049c070     fltk:Fl.obj
 0003:00004074       ?fl_gdi_display@@3VFl_Display_Device@@A 0049c074     fltk:Fl.obj
 0003:00004080       ?fl_gdi_driver@@3VFl_GDI_Graphics_Driver@@A 0049c080     fltk:Fl.obj
 0003:00004768       ?first_check@@3PAUCheck@@A 0049c768     fltk:Fl.obj
 0003:0000476c       ?next_check@@3PAUCheck@@A  0049c76c     fltk:Fl.obj
 0003:00004770       ?free_check@@3PAUCheck@@A  0049c770     fltk:Fl.obj
 0003:00004774       ?thread_message_@@3PAXA    0049c774     fltk:Fl.obj
 0003:00004778       ?fdsets@@3PAUfd_set@@A     0049c778     fltk:Fl.obj
 0003:00004a84       ?win32_timers@@3PAUWin32Timer@@A 0049ca84     fltk:Fl.obj
 0003:00004a88       ?win32_timer_alloc@@3HA    0049ca88     fltk:Fl.obj
 0003:00004a8c       ?win32_timer_used@@3HA     0049ca8c     fltk:Fl.obj
 0003:00004a90       ?s_TimerWnd@@3PAUHWND__@@A 0049ca90     fltk:Fl.obj
 0003:00004a94       ?resize_bug_fix@@3PAVFl_Window@@A 0049ca94     fltk:Fl.obj
 0003:00004a98       ?in_idle@?1??fl_wait@@YAHN@Z@4DA 0049ca98     fltk:Fl.obj
 0003:00004a99       ?beenHereDoneThat@?1??fl_open_display@@YAXXZ@4DA 0049ca99     fltk:Fl.obj
 0003:00004a9c       ?px@?1??mouse_event@@YAHPAVFl_Window@@HHIJ@Z@4HA 0049ca9c     fltk:Fl.obj
 0003:00004aa0       ?py@?1??mouse_event@@YAHPAVFl_Window@@HHIJ@Z@4HA 0049caa0     fltk:Fl.obj
 0003:00004aa4       ?pmx@?1??mouse_event@@YAHPAVFl_Window@@HHIJ@Z@4HA 0049caa4     fltk:Fl.obj
 0003:00004aa8       ?pmy@?1??mouse_event@@YAHPAVFl_Window@@HHIJ@Z@4HA 0049caa8     fltk:Fl.obj
 0003:00004ab0       ?vklut@?1??ms2fltk@@YAHIH@Z@4PAGA 0049cab0     fltk:Fl.obj
 0003:00004cb0       ?extendedlut@?1??ms2fltk@@YAHIH@Z@4PAGA 0049ccb0     fltk:Fl.obj
 0003:00004eb0       ?buffer@?DH@??WndProc@@YGJPAUHWND__@@IIJ@Z@4PADA 0049ceb0     fltk:Fl.obj
 0003:000052b0       ?delta@?GG@??WndProc@@YGJPAUHWND__@@IIJ@Z@4HA 0049d2b0     fltk:Fl.obj
 0003:000052b4       ?delta@?GJ@??WndProc@@YGJPAUHWND__@@IIJ@Z@4HA 0049d2b4     fltk:Fl.obj
 0003:000052b8       ?class_name_list@?1??make@Fl_X@@SAPAV2@PAVFl_Window@@@Z@4VNameList@@A 0049d2b8     fltk:Fl.obj
 0003:000052c4       ?$TSS0@?1??make@Fl_X@@SAPAV2@PAVFl_Window@@@Z@4HA 0049d2c4     fltk:Fl.obj
 0003:000052c8       ?first_class_name@?1??make@Fl_X@@SAPAV2@PAVFl_Window@@@Z@4PBDB 0049d2c8     fltk:Fl.obj
 0003:000052cc       ?avoidRecursion@@3DA       0049d2cc     fltk:fl_ask.obj
 0003:000052d4       ?message_form@@3PAVFl_Window@@A 0049d2d4     fltk:fl_ask.obj
 0003:000052d8       ?message@@3PAVFl_Box@@A    0049d2d8     fltk:fl_ask.obj
 0003:000052dc       ?icon@@3PAVFl_Box@@A       0049d2dc     fltk:fl_ask.obj
 0003:000052e0       ?button@@3PAPAVFl_Button@@A 0049d2e0     fltk:fl_ask.obj
 0003:000052ec       ?input@@3PAVFl_Input@@A    0049d2ec     fltk:fl_ask.obj
 0003:000052f0       ?ret_val@@3HA              0049d2f0     fltk:fl_ask.obj
 0003:000052f4       ?message_title_default@@3PBDB 0049d2f4     fltk:fl_ask.obj
 0003:00005308       ?fc@@3PAVFl_File_Chooser@@A 0049d308     fltk:fl_file_dir.obj
 0003:0000530c       ?current_callback@@3P6AXPBD@ZA 0049d30c     fltk:fl_file_dir.obj
 0003:00005310       ?current_label@@3PBDB      0049d310     fltk:fl_file_dir.obj
 0003:00005318       ?retname@?1??fl_file_chooser@@YAPADPBD00H@Z@4PADA 0049d318     fltk:fl_file_dir.obj
 0003:00005b18       ?retname@?1??fl_dir_chooser@@YAPADPBD0H@Z@4PADA 0049db18     fltk:fl_file_dir.obj
 0003:00006318       ?fl_gmi@@3P6GHPAUHMONITOR__@@PAUtagMONITORINFO@@@ZA 0049e318     fltk:screen_xywh.obj
 0003:00006320       ?screens@@3PAUtagRECT@@A   0049e320     fltk:screen_xywh.obj
 0003:00006420       ?work_area@@3PAUtagRECT@@A 0049e420     fltk:screen_xywh.obj
 0003:00006520       ?dpi@@3PAY01MA             0049e520     fltk:screen_xywh.obj
 0003:000065d0       ?main_thread@@3KA          0049e5d0     fltk:Fl_lock.obj
 0003:000065d8       ?measure@@3PAP6AXPBUFl_Label@@AAH1@ZA 0049e5d8     fltk:fl_labeltype.obj
 0003:00006618       ?obj_queue@@3PAPAVFl_Widget@@A 0049e618     fltk:Fl_Widget.obj
 0003:00006668       ?obj_head@@3HA             0049e668     fltk:Fl_Widget.obj
 0003:0000666c       ?obj_tail@@3HA             0049e66c     fltk:Fl_Widget.obj
 0003:0000667c       ?window@@3PAVFl_TooltipBox@@A 0049e67c     fltk:Fl_Tooltip.obj
 0003:00006684       ?tip@@3PBDB                0049e684     fltk:Fl_Tooltip.obj
 0003:00006688       ?Y@@3HA                    0049e688     fltk:Fl_Tooltip.obj
 0003:0000668c       ?H@@3HA                    0049e68c     fltk:Fl_Tooltip.obj
 0003:00006690       ?recent_tooltip@@3DA       0049e690     fltk:Fl_Tooltip.obj
 0003:00006691       ?recursion@@3DA            0049e691     fltk:Fl_Tooltip.obj
 0003:00006692       ?beenhere@?1??set_enter_exit_once_@Fl_Tooltip@@CAXXZ@4DA 0049e692     fltk:Fl_Tooltip.obj
 0003:000072a0       ?tmppen@@3PAXA             0049f2a0     fltk:fl_color.obj
 0003:000072a4       ?savepen@@3PAUHPEN__@@A    0049f2a4     fltk:fl_color.obj
 0003:000072a8       ?xmap@?1??color@Fl_GDI_Graphics_Driver@@UAEXEEE@Z@4UFl_XMap@@A 0049f2a8     fltk:fl_color.obj
 0003:000072b8       ?brushes@?1??fl_brush_action@@YAPAUHBRUSH__@@H@Z@4PAUFl_Brush@?1??1@YAPAU2@H@Z@A 0049f2b8     fltk:fl_color.obj
 0003:00007378       ?beenhere@?1??fl_select_palette@@YAPAUHPALETTE__@@XZ@4DA 0049f378     fltk:fl_color.obj
 0003:0000737c       ?fl_alpha_blend@@3P6GHPAUHDC__@@HHHH0HHHHUFL_BLENDFUNCTION@@@ZA 0049f37c     fltk:Fl_Double_Window.obj
 0003:00007380       ?been_here@?1??fl_can_do_alpha_blending@@YADXZ@4DA 0049f380     fltk:Fl_Double_Window.obj
 0003:00007381       ?can_do@?1??fl_can_do_alpha_blending@@YADXZ@4DA 0049f381     fltk:Fl_Double_Window.obj
 0003:00007434       ?hMod@?1??newUUID@Fl_Preferences@@SAPBDXZ@4PAUHINSTANCE__@@A 0049f434     fltk:Fl_Preferences.obj
 0003:00007444       ?fl_angle_@@3HA            0049f444     fltk:fl_font.obj
 0003:00007448       ?wstr@@3PAGA               0049f448     fltk:fl_font.obj
 0003:0000744c       ?wstr_len@@3HA             0049f44c     fltk:fl_font.obj
 0003:00007450       ?fl_GetGlyphIndices@@3P6GKPAUHDC__@@PB_WHPAGK@ZA 0049f450     fltk:fl_font.obj
 0003:00007454       ?have_loaded_GetGlyphIndices@@3HA 0049f454     fltk:fl_font.obj
 0003:00007458       ?ext_buff@?1??text_extents@Fl_GDI_Graphics_Driver@@UAEXPBDHAAH111@Z@4PAGA 0049f458     fltk:fl_font.obj
 0003:0000745c       ?w_buff@?1??text_extents@Fl_GDI_Graphics_Driver@@UAEXPBDHAAH111@Z@4PAGA 0049f45c     fltk:fl_font.obj
 0003:00007460       ?wc_len@?1??text_extents@Fl_GDI_Graphics_Driver@@UAEXPBDHAAH111@Z@4IA 0049f460     fltk:fl_font.obj
 0003:00007470       ?hMod@?1??draw@Fl_GDI_Printer_Graphics_Driver@@UAEXPAVFl_Pixmap@@HHHHHH@Z@4PAUHINSTANCE__@@A 0049f470     fltk:Fl_Pixmap.obj
 0003:00007474       ?fl_TransparentBlt@?1??draw@Fl_GDI_Printer_Graphics_Driver@@UAEXPAVFl_Pixmap@@HHHHHH@Z@4P6GHPAUHDC__@@HHHH1HHHHI@ZA 0049f474     fltk:Fl_Pixmap.obj
 0003:00007478       ?fl_TransparentBlt@?1??draw@Fl_GDI_Printer_Graphics_Driver@@UAEXPAVFl_Bitmap@@HHHHHH@Z@4P6GHPAUHDC__@@HHHH1HHHHI@ZA 0049f478     fltk:Fl_Bitmap.obj
 0003:0000747c       ?hMod@?1??draw@Fl_GDI_Printer_Graphics_Driver@@UAEXPAVFl_Bitmap@@HHHHHH@Z@4PAUHINSTANCE__@@A 0049f47c     fltk:Fl_Bitmap.obj
 0003:00007480       ?ri@?1??dither@@YAXPAEPBEHH@Z@4HA 0049f480     fltk:fl_draw_image.obj
 0003:00007484       ?gi@?1??dither@@YAXPAEPBEHH@Z@4HA 0049f484     fltk:fl_draw_image.obj
 0003:00007488       ?bi@?1??dither@@YAXPAEPBEHH@Z@4HA 0049f488     fltk:fl_draw_image.obj
 0003:0000748c       ?dir@?1??dither@@YAXPAEPBEHH@Z@4HA 0049f48c     fltk:fl_draw_image.obj
 0003:00007490       ?ri@?1??monodither@@YAXPAEPBEHH@Z@4HA 0049f490     fltk:fl_draw_image.obj
 0003:00007494       ?dir@?1??monodither@@YAXPAEPBEHH@Z@4HA 0049f494     fltk:fl_draw_image.obj
 0003:00007498       ?bmibuffer@?1??innards@@YAXPBEHHHHHHHP6AXPAXHHHPAE@Z1@Z@4PAIA 0049f498     fltk:fl_draw_image.obj
 0003:000078c8       ?buffer@?1??innards@@YAXPBEHHHHHHHP6AXPAXHHHPAE@Z1@Z@4PAIA 0049f8c8     fltk:fl_draw_image.obj
 0003:000078cc       ?buffer_size@?1??innards@@YAXPBEHHHHHHHP6AXPAXHHHPAE@Z1@Z@4JA 0049f8cc     fltk:fl_draw_image.obj
 0003:000078d0       ?line_buffer@?1??innards@@YAXPBEHHHHHHHP6AXPAXHHHPAE@Z1@Z@4PAIA 0049f8d0     fltk:fl_draw_image.obj
 0003:000078d4       ?line_buf_size@?CH@??innards@@YAXPBEHHHHHHHP6AXPAXHHHPAE@Z1@Z@4HA 0049f8d4     fltk:fl_draw_image.obj
 0003:000078e0       ?fl_bg_set@@3DA            0049f8e0     fltk:Fl_get_system_colors.obj
 0003:000078e1       ?fl_bg2_set@@3DA           0049f8e1     fltk:Fl_get_system_colors.obj
 0003:000078e2       ?fl_fg_set@@3DA            0049f8e2     fltk:Fl_get_system_colors.obj
 0003:000078f0       ?tile@@3VFl_Pixmap@@A      0049f8f0     fltk:Fl_get_system_colors.obj
 0003:00007918       ?e@?1??scheme@Fl@@SAHPBD@Z@4PADA 0049f918     fltk:Fl_get_system_colors.obj
 0003:00007d50       ?mbwbuf@@3PA_WA            0049fd50     fltk:fl_utf8.obj
 0003:00007d58       ?buf@@3PADA                0049fd58     fltk:fl_utf8.obj
 0003:00007d5c       ?buf_len@@3HA              0049fd5c     fltk:fl_utf8.obj
 0003:00007d60       ?wbufa@@3PAGA              0049fd60     fltk:fl_utf8.obj
 0003:00007d64       ?wbuf@@3PA_WA              0049fd64     fltk:fl_utf8.obj
 0003:00007d68       ?wbuf1@@3PA_WA             0049fd68     fltk:fl_utf8.obj
 0003:00007d6c       ?table@?1??Toupper@@YAHH@Z@4PAGA 0049fd6c     fltk:fl_utf8.obj
 0003:00007d70       ?buf@?1??fl_utf2mbcs@@9@4PADA 0049fd70     fltk:fl_utf8.obj
 0003:00007d74       ?buf@?1??fl_getenv@@9@4PADA 0049fd74     fltk:fl_utf8.obj
 0003:00007d78       ?wbuf@?1??fl_getcwd@@9@4PA_WA 0049fd78     fltk:fl_utf8.obj
 0003:00007d7c       ?buf@?1??fl_shortcut_label@@YAPBDIPAPBD@Z@4PADA 0049fd7c     fltk:fl_shortcut.obj
 0003:00007db4       ?l_secret@@3HA             0049fdb4     fltk:Fl_Input_.obj
 0003:00007db8       ?undobuffer@@3PADA         0049fdb8     fltk:Fl_Input_.obj
 0003:00007dbc       ?undobufferlength@@3HA     0049fdbc     fltk:Fl_Input_.obj
 0003:00007dc0       ?undowidget@@3PAVFl_Input_@@A 0049fdc0     fltk:Fl_Input_.obj
 0003:00007dc4       ?undoat@@3HA               0049fdc4     fltk:Fl_Input_.obj
 0003:00007dc8       ?undocut@@3HA              0049fdc8     fltk:Fl_Input_.obj
 0003:00007dcc       ?undoinsert@@3HA           0049fdcc     fltk:Fl_Input_.obj
 0003:00007dd0       ?yankcut@@3HA              0049fdd0     fltk:Fl_Input_.obj
 0003:00007dd4       ?legal_fp_chars@@3PBDB     0049fdd4     fltk:Fl_Input.obj
 0003:00007dd8       ?dnd_save_position@?1??handle@Fl_Input@@UAEHH@Z@4HA 0049fdd8     fltk:Fl_Input.obj
 0003:00007ddc       ?dnd_save_mark@?1??handle@Fl_Input@@UAEHH@Z@4HA 0049fddc     fltk:Fl_Input.obj
 0003:00007de0       ?newpos@?1??handle@Fl_Input@@UAEHH@Z@4HA 0049fde0     fltk:Fl_Input.obj
 0003:00007de4       ?dnd_save_focus@?1??handle@Fl_Input@@UAEHH@Z@4PAVFl_Widget@@A 0049fde4     fltk:Fl_Input.obj
 0003:00007dec       ?underline_at@@3PADA       0049fdec     fltk:fl_draw.obj
 0003:00007df0       ?local_buf@?1??expand_text_@@YAPBDPBDAAPADHNAAHAANHH@Z@4PADA 0049fdf0     fltk:fl_draw.obj
 0003:00007df4       ?$TSS0@?1??expand_text_@@YAPBDPBDAAPADHNAAHAANHH@Z@4HA 0049fdf4     fltk:fl_draw.obj
 0003:00007dfc       ?pressed_menu_button_@@3PAVFl_Menu_Button@@A 0049fdfc     fltk:Fl_Menu_Button.obj
 0003:00007e00       ?p@@3PAUmenustate@@A       0049fe00     fltk:Fl_Menu.obj
 0003:00007e04       ?button@@3PBVFl_Menu_@@B   0049fe04     fltk:Fl_Menu.obj
 0003:00007e08       ?dummy@?1??popup@Fl_Menu_Item@@QBEPBU2@HHPBDPBU2@PBVFl_Menu_@@@Z@4U2@A 0049fe08     fltk:Fl_Menu.obj
 0003:00007e2c       ?local_array@@3PAUFl_Menu_Item@@A 0049fe2c     fltk:Fl_Menu_add.obj
 0003:00007e30       ?local_array_alloc@@3HA    0049fe30     fltk:Fl_Menu_add.obj
 0003:00007e34       ?local_array_size@@3HA     0049fe34     fltk:Fl_Menu_add.obj
 0003:00007e38       ?offcenter@?9??handle@Fl_Slider@@IAEHHHHHH@Z@4HA 0049fe38     fltk:Fl_Slider.obj
 0003:00007e3c       ?image_new@@3VFl_Bitmap@@A 0049fe3c     fltk:Fl_File_Chooser.obj
 0003:00007e70       ?pathname@?1??value@Fl_File_Chooser@@QAEPBDH@Z@4PADA 0049fe70     fltk:Fl_File_Chooser2.obj
 0003:00008678       ?ncolors@@3HA              004a0678     fltk:fl_draw_pixmap.obj
 0003:0000867c       ?chars_per_pixel@@3HA      004a067c     fltk:fl_draw_pixmap.obj
 0003:00008680       ?color_count@@3HA          004a0680     fltk:fl_draw_pixmap.obj
 0003:00008684       ?used_colors@@3PAUUsedColor@@A 004a0684     fltk:fl_draw_pixmap.obj
 0003:00008688       ?table@?1??XUtf8Toupper@@9@9 004a0688     fltk:case.obj
 0003:00008690       ?symbols@@3PAUSYMBOL@@A    004a0690     fltk:fl_symbols.obj
 0003:00009074       ?beenhere@?1??fl_init_symbols@@YAXXZ@4DA 004a1074     fltk:fl_symbols.obj
 0003:00009078       ?cursor@?1??set_cursor@@YAXPAVFl_Tile@@W4Fl_Cursor@@@Z@4W43@A 004a1078     fltk:Fl_Tile.obj
 0003:0000907c       ?sdrag@?1??handle@Fl_Tile@@UAEHH@Z@4HA 004a107c     fltk:Fl_Tile.obj
 0003:00009080       ?sdx@?1??handle@Fl_Tile@@UAEHH@Z@4HA 004a1080     fltk:Fl_Tile.obj
 0003:00009084       ?sdy@?1??handle@Fl_Tile@@UAEHH@Z@4HA 004a1084     fltk:Fl_Tile.obj
 0003:00009088       ?sx@?1??handle@Fl_Tile@@UAEHH@Z@4HA 004a1088     fltk:Fl_Tile.obj
 0003:0000908c       ?sy@?1??handle@Fl_Tile@@UAEHH@Z@4HA 004a108c     fltk:Fl_Tile.obj
 0003:00009090       ?change@?1??handle@Fl_Browser_@@UAEHH@Z@4DA 004a1090     fltk:Fl_Browser_.obj
 0003:00009091       ?whichway@?1??handle@Fl_Browser_@@UAEHH@Z@4DA 004a1091     fltk:Fl_Browser_.obj
 0003:00009094       ?py@?1??handle@Fl_Browser_@@UAEHH@Z@4HA 004a1094     fltk:Fl_Browser_.obj
 0003:00009098       ?inButtonBar@?1??handle@Fl_File_Input@@UAEHH@Z@4DA 004a1098     fltk:Fl_File_Input.obj
 0003:000090b8       ?SWAP_TYPE@@3DA            004a10b8     fltkgl:Fl_Gl_Window.obj
 0003:000090c0       ?ortho_context@?DG@??flush@Fl_Gl_Window@@UAEXXZ@4PAUHGLRC__@@A 004a10c0     fltkgl:Fl_Gl_Window.obj
 0003:000090c4       ?ortho_window@?DG@??flush@Fl_Gl_Window@@UAEXXZ@4PAV2@A 004a10c4     fltkgl:Fl_Gl_Window.obj
 0003:000090c8       ?context_list@@3PAPAUHGLRC__@@A 004a10c8     fltkgl:Fl_Gl_Choice.obj
 0003:000090cc       ?nContext@@3HA             004a10cc     fltkgl:Fl_Gl_Choice.obj
 0003:000090d0       ?NContext@@3HA             004a10d0     fltkgl:Fl_Gl_Choice.obj
 0003:000090d4       ?first@@3PAVFl_Gl_Choice@@A 004a10d4     fltkgl:Fl_Gl_Choice.obj
 0003:000090d8       ?cached_context@@3PAUHGLRC__@@A 004a10d8     fltkgl:Fl_Gl_Choice.obj
 0003:000090dc       ?cached_window@@3PAVFl_Window@@A 004a10dc     fltkgl:Fl_Gl_Choice.obj
 0003:000090e4       ?Gl_Device_Plugin@@3VFl_Gl_Device_Plugin@@A 004a10e4     fltkgl:Fl_Gl_Device_Plugin.obj
 0003:000090ec       ?gl_fontsize@@3PAVFl_Font_Descriptor@@A 004a10ec     fltkgl:gl_draw.obj
 0003:000090f0       ?buf@?1??gl_draw@@YAXPBDH@Z@4PA_WA 004a10f0     fltkgl:gl_draw.obj
 0003:000090f4       ?l@?1??gl_draw@@YAXPBDH@Z@4HA 004a10f4     fltkgl:gl_draw.obj
 0003:00009100       ?module_local_atexit_table@@3U_onexit_table_t@@A 004a1100     MSVCRT:utility.obj
 0003:0000910c       ?module_local_at_quick_exit_table@@3U_onexit_table_t@@A 004a110c     MSVCRT:utility.obj
 0003:00009118       ?module_local_atexit_table_initialized@@3_NA 004a1118     MSVCRT:utility.obj
 0003:00009119       ?is_initialized_as_dll@@3_NA 004a1119     MSVCRT:utility.obj
 0003:0000911c       ?_Tss_mutex@@3U_RTL_CRITICAL_SECTION@@A 004a111c     MSVCRT:thread_safe_statics.obj
 0003:00009134       ?_Tss_cv@@3U_RTL_CONDITION_VARIABLE@@A 004a1134     MSVCRT:thread_safe_statics.obj
 0003:00009138       ?_Tss_event@@3PAXA         004a1138     MSVCRT:thread_safe_statics.obj
 0003:0000913c       ?encoded_sleep_condition_variable_cs@@3P6GHPAU_RTL_CONDITION_VARIABLE@@PAU_RTL_CRITICAL_SECTION@@K@ZA 004a113c     MSVCRT:thread_safe_statics.obj
 0003:00009140       ?encoded_wake_all_condition_variable@@3P6GXPAU_RTL_CONDITION_VARIABLE@@@ZA 004a1140     MSVCRT:thread_safe_statics.obj
 0003:00009148       _GS_ExceptionRecord        004a1148     MSVCRT:gs_report.obj
 0003:00009198       _GS_ContextRecord          004a1198     MSVCRT:gs_report.obj
 0003:00009478       ?_Fac_head@std@@3PAU_Fac_node@1@A 004a1478     msvcprt:locale0_implib.obj
 0003:0000947c       ?_Fac_tidy_reg@std@@3U_Fac_tidy_reg_t@1@B 004a147c     msvcprt:locale0_implib.obj
 0003:00009480       ?mbwbuf@?1??mbcs2utf@@9@9  004a1480     fltk:fl_call_main.obj
 0005:00000060       $R000000                   004a3060     * linker generated manifest res *
